
usb_kb.elf:     file format elf32-littlenios2
usb_kb.elf
architecture: nios2:r1, flags 0x00000112:
EXEC_P, HAS_SYMS, D_PAGED
start address 0x10000230

Program Header:
    LOAD off    0x00001000 vaddr 0x10000000 paddr 0x10000000 align 2**12
         filesz 0x00000020 memsz 0x00000020 flags r-x
    LOAD off    0x00001020 vaddr 0x10000020 paddr 0x10000020 align 2**12
         filesz 0x000124d8 memsz 0x000124d8 flags r-x
    LOAD off    0x000134f8 vaddr 0x100124f8 paddr 0x10013fe4 align 2**12
         filesz 0x00001aec memsz 0x00001aec flags rw-
    LOAD off    0x00015ad0 vaddr 0x10015ad0 paddr 0x10015ad0 align 2**12
         filesz 0x00000000 memsz 0x00000164 flags rw-

Sections:
Idx Name          Size      VMA       LMA       File off  Algn
  0 .entry        00000020  10000000  10000000  00001000  2**5
                  CONTENTS, ALLOC, LOAD, READONLY, CODE
  1 .exceptions   00000210  10000020  10000020  00001020  2**2
                  CONTENTS, ALLOC, LOAD, READONLY, CODE
  2 .text         00011824  10000230  10000230  00001230  2**2
                  CONTENTS, ALLOC, LOAD, READONLY, CODE
  3 .rodata       00000aa4  10011a54  10011a54  00012a54  2**2
                  CONTENTS, ALLOC, LOAD, READONLY, DATA
  4 .rwdata       00001aec  100124f8  10013fe4  000134f8  2**2
                  CONTENTS, ALLOC, LOAD, DATA, SMALL_DATA
  5 .bss          00000164  10015ad0  10015ad0  00015ad0  2**2
                  ALLOC, SMALL_DATA
  6 .onchip_memory2_0 00000000  00000000  00000000  00014fe4  2**0
                  CONTENTS
  7 .sdram        00000000  10015c34  10015c34  00014fe4  2**0
                  CONTENTS
  8 .comment      00000023  00000000  00000000  00014fe4  2**0
                  CONTENTS, READONLY
  9 .debug_aranges 00000f18  00000000  00000000  00015008  2**3
                  CONTENTS, READONLY, DEBUGGING
 10 .debug_info   0002371a  00000000  00000000  00015f20  2**0
                  CONTENTS, READONLY, DEBUGGING
 11 .debug_abbrev 000090c8  00000000  00000000  0003963a  2**0
                  CONTENTS, READONLY, DEBUGGING
 12 .debug_line   0000b892  00000000  00000000  00042702  2**0
                  CONTENTS, READONLY, DEBUGGING
 13 .debug_frame  00002384  00000000  00000000  0004df94  2**2
                  CONTENTS, READONLY, DEBUGGING
 14 .debug_str    00003a02  00000000  00000000  00050318  2**0
                  CONTENTS, READONLY, DEBUGGING
 15 .debug_loc    0001786c  00000000  00000000  00053d1a  2**0
                  CONTENTS, READONLY, DEBUGGING
 16 .debug_alt_sim_info 00000040  00000000  00000000  0006b588  2**2
                  CONTENTS, READONLY, DEBUGGING
 17 .debug_ranges 000018d0  00000000  00000000  0006b5c8  2**3
                  CONTENTS, READONLY, DEBUGGING
 18 .thread_model 00000003  00000000  00000000  00070236  2**0
                  CONTENTS, READONLY
 19 .cpu          0000000c  00000000  00000000  00070239  2**0
                  CONTENTS, READONLY
 20 .qsys         00000001  00000000  00000000  00070245  2**0
                  CONTENTS, READONLY
 21 .simulation_enabled 00000001  00000000  00000000  00070246  2**0
                  CONTENTS, READONLY
 22 .sysid_hash   00000004  00000000  00000000  00070247  2**0
                  CONTENTS, READONLY
 23 .sysid_base   00000004  00000000  00000000  0007024b  2**0
                  CONTENTS, READONLY
 24 .sysid_time   00000004  00000000  00000000  0007024f  2**0
                  CONTENTS, READONLY
 25 .stderr_dev   0000000b  00000000  00000000  00070253  2**0
                  CONTENTS, READONLY
 26 .stdin_dev    0000000b  00000000  00000000  0007025e  2**0
                  CONTENTS, READONLY
 27 .stdout_dev   0000000b  00000000  00000000  00070269  2**0
                  CONTENTS, READONLY
 28 .sopc_system_name 0000000b  00000000  00000000  00070274  2**0
                  CONTENTS, READONLY
 29 .quartus_project_dir 00000022  00000000  00000000  0007027f  2**0
                  CONTENTS, READONLY
 30 .jdi          00005553  00000000  00000000  000702a1  2**0
                  CONTENTS, READONLY
 31 .sopcinfo     00090dbd  00000000  00000000  000757f4  2**0
                  CONTENTS, READONLY
SYMBOL TABLE:
10000000 l    d  .entry	00000000 .entry
10000020 l    d  .exceptions	00000000 .exceptions
10000230 l    d  .text	00000000 .text
10011a54 l    d  .rodata	00000000 .rodata
100124f8 l    d  .rwdata	00000000 .rwdata
10015ad0 l    d  .bss	00000000 .bss
00000000 l    d  .onchip_memory2_0	00000000 .onchip_memory2_0
10015c34 l    d  .sdram	00000000 .sdram
00000000 l    d  .comment	00000000 .comment
00000000 l    d  .debug_aranges	00000000 .debug_aranges
00000000 l    d  .debug_info	00000000 .debug_info
00000000 l    d  .debug_abbrev	00000000 .debug_abbrev
00000000 l    d  .debug_line	00000000 .debug_line
00000000 l    d  .debug_frame	00000000 .debug_frame
00000000 l    d  .debug_str	00000000 .debug_str
00000000 l    d  .debug_loc	00000000 .debug_loc
00000000 l    d  .debug_alt_sim_info	00000000 .debug_alt_sim_info
00000000 l    d  .debug_ranges	00000000 .debug_ranges
00000000 l    df *ABS*	00000000 ../usb_kb_bsp//obj/HAL/src/crt0.o
10000268 l       .text	00000000 alt_after_alt_main
00000000 l    df *ABS*	00000000 alt_irq_handler.c
00000000 l    df *ABS*	00000000 alt_instruction_exception_entry.c
00000000 l    df *ABS*	00000000 io_handler.c
00000000 l    df *ABS*	00000000 main.c
10015ad0 l     O .bss	00000002 ctl_reg.3589
10015ad2 l     O .bss	00000002 no_device.3590
00000000 l    df *ABS*	00000000 usb.c
00000000 l    df *ABS*	00000000 printf.c
00000000 l    df *ABS*	00000000 puts.c
00000000 l    df *ABS*	00000000 strlen.c
00000000 l    df *ABS*	00000000 vfprintf.c
1001223e l     O .rodata	00000010 zeroes.4404
100047c4 l     F .text	000000bc __sbprintf
1001224e l     O .rodata	00000010 blanks.4403
00000000 l    df *ABS*	00000000 wsetup.c
00000000 l    df *ABS*	00000000 dtoa.c
100049d4 l     F .text	00000228 quorem
00000000 l    df *ABS*	00000000 fflush.c
00000000 l    df *ABS*	00000000 findfp.c
1000652c l     F .text	00000008 __fp_unlock
10006540 l     F .text	0000019c __sinit.part.1
100066dc l     F .text	00000008 __fp_lock
00000000 l    df *ABS*	00000000 mallocr.c
00000000 l    df *ABS*	00000000 fvwrite.c
00000000 l    df *ABS*	00000000 fwalk.c
00000000 l    df *ABS*	00000000 impure.c
100124f8 l     O .rwdata	00000424 impure_data
00000000 l    df *ABS*	00000000 locale.c
1001293c l     O .rwdata	00000020 lc_ctype_charset
1001291c l     O .rwdata	00000020 lc_message_charset
1001295c l     O .rwdata	00000038 lconv
00000000 l    df *ABS*	00000000 makebuf.c
00000000 l    df *ABS*	00000000 mallocr.c
00000000 l    df *ABS*	00000000 memchr.c
00000000 l    df *ABS*	00000000 memcpy.c
00000000 l    df *ABS*	00000000 memmove.c
00000000 l    df *ABS*	00000000 memset.c
00000000 l    df *ABS*	00000000 mprec.c
10012280 l     O .rodata	0000000c p05.2768
00000000 l    df *ABS*	00000000 mallocr.c
00000000 l    df *ABS*	00000000 s_fpclassify.c
00000000 l    df *ABS*	00000000 sbrkr.c
00000000 l    df *ABS*	00000000 stdio.c
00000000 l    df *ABS*	00000000 strcmp.c
00000000 l    df *ABS*	00000000 vfprintf.c
10009bb0 l     F .text	000000fc __sprint_r.part.0
100123a4 l     O .rodata	00000010 zeroes.4349
1000b1ec l     F .text	000000bc __sbprintf
100123b4 l     O .rodata	00000010 blanks.4348
00000000 l    df *ABS*	00000000 writer.c
00000000 l    df *ABS*	00000000 closer.c
00000000 l    df *ABS*	00000000 mallocr.c
00000000 l    df *ABS*	00000000 fclose.c
00000000 l    df *ABS*	00000000 fputwc.c
00000000 l    df *ABS*	00000000 fstatr.c
00000000 l    df *ABS*	00000000 int_errno.c
00000000 l    df *ABS*	00000000 isattyr.c
00000000 l    df *ABS*	00000000 lseekr.c
00000000 l    df *ABS*	00000000 readr.c
00000000 l    df *ABS*	00000000 wbuf.c
00000000 l    df *ABS*	00000000 wcrtomb.c
00000000 l    df *ABS*	00000000 wctomb_r.c
00000000 l    df *ABS*	00000000 libgcc2.c
00000000 l    df *ABS*	00000000 libgcc2.c
00000000 l    df *ABS*	00000000 lib2-divmod.c
00000000 l    df *ABS*	00000000 lib2-mul.c
00000000 l    df *ABS*	00000000 adddf3.c
00000000 l    df *ABS*	00000000 divdf3.c
00000000 l    df *ABS*	00000000 eqdf2.c
00000000 l    df *ABS*	00000000 gedf2.c
00000000 l    df *ABS*	00000000 ledf2.c
00000000 l    df *ABS*	00000000 muldf3.c
00000000 l    df *ABS*	00000000 subdf3.c
00000000 l    df *ABS*	00000000 fixdfsi.c
00000000 l    df *ABS*	00000000 floatsidf.c
00000000 l    df *ABS*	00000000 floatunsidf.c
00000000 l    df *ABS*	00000000 libgcc2.c
00000000 l    df *ABS*	00000000 libgcc2.c
00000000 l    df *ABS*	00000000 alt_close.c
1000f234 l     F .text	0000003c alt_get_errno
00000000 l    df *ABS*	00000000 alt_dev.c
1000f348 l     F .text	0000002c alt_dev_null_write
00000000 l    df *ABS*	00000000 alt_errno.c
00000000 l    df *ABS*	00000000 alt_fstat.c
1000f374 l     F .text	0000003c alt_get_errno
00000000 l    df *ABS*	00000000 alt_isatty.c
1000f468 l     F .text	0000003c alt_get_errno
00000000 l    df *ABS*	00000000 alt_load.c
1000f550 l     F .text	00000068 alt_load_section
00000000 l    df *ABS*	00000000 alt_lseek.c
1000f63c l     F .text	0000003c alt_get_errno
00000000 l    df *ABS*	00000000 alt_main.c
00000000 l    df *ABS*	00000000 alt_malloc_lock.c
00000000 l    df *ABS*	00000000 alt_read.c
1000f818 l     F .text	0000003c alt_get_errno
00000000 l    df *ABS*	00000000 alt_release_fd.c
00000000 l    df *ABS*	00000000 alt_sbrk.c
10013fd4 l     O .rwdata	00000004 heap_end
00000000 l    df *ABS*	00000000 alt_usleep.c
00000000 l    df *ABS*	00000000 alt_write.c
1000fabc l     F .text	0000003c alt_get_errno
00000000 l    df *ABS*	00000000 alt_sys_init.c
1000fbf8 l     F .text	00000034 alt_dev_reg
10012f44 l     O .rwdata	00001060 jtag_uart_0
00000000 l    df *ABS*	00000000 altera_avalon_jtag_uart_fd.c
00000000 l    df *ABS*	00000000 altera_avalon_jtag_uart_init.c
1000fed4 l     F .text	0000020c altera_avalon_jtag_uart_irq
100100e0 l     F .text	000000a0 altera_avalon_jtag_uart_timeout
00000000 l    df *ABS*	00000000 altera_avalon_jtag_uart_ioctl.c
00000000 l    df *ABS*	00000000 altera_avalon_jtag_uart_read.c
00000000 l    df *ABS*	00000000 altera_avalon_jtag_uart_write.c
00000000 l    df *ABS*	00000000 alt_alarm_start.c
00000000 l    df *ABS*	00000000 alt_busy_sleep.c
00000000 l    df *ABS*	00000000 alt_dcache_flush_all.c
00000000 l    df *ABS*	00000000 alt_dev_llist_insert.c
100109bc l     F .text	0000003c alt_get_errno
00000000 l    df *ABS*	00000000 alt_do_ctors.c
00000000 l    df *ABS*	00000000 alt_do_dtors.c
00000000 l    df *ABS*	00000000 alt_icache_flush_all.c
00000000 l    df *ABS*	00000000 alt_iic.c
00000000 l    df *ABS*	00000000 alt_iic_isr_register.c
00000000 l    df *ABS*	00000000 alt_io_redirect.c
10010e1c l     F .text	000000e4 alt_open_fd
00000000 l    df *ABS*	00000000 alt_irq_vars.c
00000000 l    df *ABS*	00000000 alt_open.c
10010f7c l     F .text	0000003c alt_get_errno
10010fb8 l     F .text	000000ec alt_file_locked
00000000 l    df *ABS*	00000000 alt_tick.c
00000000 l    df *ABS*	00000000 altera_nios2_gen2_irq.c
00000000 l    df *ABS*	00000000 alt_find_dev.c
00000000 l    df *ABS*	00000000 alt_find_file.c
00000000 l    df *ABS*	00000000 alt_get_fd.c
00000000 l    df *ABS*	00000000 atexit.c
00000000 l    df *ABS*	00000000 exit.c
00000000 l    df *ABS*	00000000 memcmp.c
00000000 l    df *ABS*	00000000 __atexit.c
00000000 l    df *ABS*	00000000 __call_atexit.c
00000000 l    df *ABS*	00000000 alt_exit.c
10015b08 g     O .bss	00000004 alt_instruction_exception_handler
100091f4 g     F .text	00000074 _mprec_log10
100092e0 g     F .text	0000008c __any_on
1000b7a0 g     F .text	00000054 _isatty_r
1001228c g     O .rodata	00000028 __mprec_tinytens
1000f754 g     F .text	0000007c alt_main
10002360 g     F .text	000000c0 _puts_r
10015b34 g     O .bss	00000100 alt_irq
1000b7f4 g     F .text	00000060 _lseek_r
10013fe4 g       *ABS*	00000000 __flash_rwdata_start
1000dc0c g     F .text	00000088 .hidden __eqdf2
10015c34 g       *ABS*	00000000 __alt_heap_start
10002324 g     F .text	0000003c printf
1000ba0c g     F .text	0000009c _wcrtomb_r
10009a70 g     F .text	0000005c __sseek
1000688c g     F .text	00000010 __sinit
1000b8b4 g     F .text	00000140 __swbuf_r
10007360 g     F .text	0000007c _setlocale_r
100066e4 g     F .text	00000078 __sfmoreglue
1000f7f4 g     F .text	00000024 __malloc_unlock
100021f4 g     F .text	00000080 UsbGetRetryCnt
10008030 g     F .text	0000015c memmove
1000026c g     F .text	00000088 IO_init
10006874 g     F .text	00000018 _cleanup
100082b4 g     F .text	000000a8 _Balloc
1000dc94 g     F .text	000000dc .hidden __gtdf2
100113a4 g     F .text	00000024 altera_nios2_gen2_irq_init
10000000 g     F .entry	0000000c __reset
10000020 g       *ABS*	00000000 __flash_exceptions_start
1000b744 g     F .text	0000005c _fstat_r
10015aec g     O .bss	00000004 errno
100099ec g     F .text	00000008 __seofread
10015af4 g     O .bss	00000004 alt_argv
1001bfa4 g       *ABS*	00000000 _gp
1000fa8c g     F .text	00000030 usleep
10012dc4 g     O .rwdata	00000180 alt_fd_list
100113c8 g     F .text	00000090 alt_find_dev
10007ee8 g     F .text	00000148 memcpy
10006534 g     F .text	0000000c _cleanup_r
1000f04c g     F .text	000000dc .hidden __floatsidf
10010f00 g     F .text	0000007c alt_io_redirect
1000dd70 g     F .text	000000f4 .hidden __ltdf2
10011a54 g       *ABS*	00000000 __DTOR_END__
10002420 g     F .text	00000014 puts
10011624 g     F .text	0000009c alt_exception_cause_generated_bad_addr
100098d0 g     F .text	00000074 __fpclassifyd
10009150 g     F .text	000000a4 __ratio
1000b1d0 g     F .text	0000001c __vfiprintf_internal
100102d8 g     F .text	0000021c altera_avalon_jtag_uart_read
100022f4 g     F .text	00000030 _printf_r
00000000 g       *ABS*	00000000 __alt_mem_onchip_memory2_0
1000c8ac g     F .text	00000064 .hidden __udivsi3
1000f4a4 g     F .text	000000ac isatty
100122dc g     O .rodata	000000c8 __mprec_tens
100073dc g     F .text	0000000c __locale_charset
10015ae8 g     O .bss	00000004 __malloc_top_pad
10001880 g     F .text	00000268 UsbGetConfigDesc2
10013fac g     O .rwdata	00000004 __mb_cur_max
1000740c g     F .text	0000000c _localeconv_r
100086e8 g     F .text	0000003c __i2b
10006d10 g     F .text	000004c8 __sfvwrite_r
10009944 g     F .text	00000054 _sbrk_r
1000b854 g     F .text	00000060 _read_r
10013fcc g     O .rwdata	00000004 alt_max_fd
1000b438 g     F .text	000000f0 _fclose_r
100064fc g     F .text	00000030 fflush
10015ae4 g     O .bss	00000004 __malloc_max_sbrked_mem
1000c990 g     F .text	000008ac .hidden __adddf3
10008ef8 g     F .text	0000010c __b2d
1000c1f0 g     F .text	000005c4 .hidden __umoddi3
1000f678 g     F .text	000000dc lseek
10013fa4 g     O .rwdata	00000004 _global_impure_ptr
1000936c g     F .text	00000564 _realloc_r
10015c34 g       *ABS*	00000000 __bss_end
10010d2c g     F .text	000000f0 alt_iic_isr_register
1001129c g     F .text	00000108 alt_tick
1000bbf4 g     F .text	000005fc .hidden __udivdi3
1000b6a0 g     F .text	00000024 _fputwc_r
100122b4 g     O .rodata	00000028 __mprec_bigtens
100084cc g     F .text	00000104 __s2b
1000f128 g     F .text	000000a8 .hidden __floatunsidf
10008c38 g     F .text	00000060 __mcmp
100012d0 g     F .text	00000100 UsbSetAddress
100068ac g     F .text	00000018 __fp_lock_all
10010ce0 g     F .text	0000004c alt_ic_irq_enabled
10011200 g     F .text	0000009c alt_alarm_stop
10015afc g     O .bss	00000004 alt_irq_active
100000fc g     F .exceptions	000000d4 alt_irq_handler
10012d9c g     O .rwdata	00000028 alt_dev_null
1001099c g     F .text	00000020 alt_dcache_flush_all
100085d0 g     F .text	00000068 __hi0bits
10000370 g     F .text	00000074 IO_read
1000efcc g     F .text	00000080 .hidden __fixdfsi
10013fe4 g       *ABS*	00000000 __ram_rwdata_end
10013fc4 g     O .rwdata	00000008 alt_dev_list
1000faf8 g     F .text	00000100 write
100124f8 g       *ABS*	00000000 __ram_rodata_end
1000f3b0 g     F .text	000000b8 fstat
1000dd70 g     F .text	000000f4 .hidden __ledf2
10002274 g     F .text	00000080 UsbPrintMem
100089b0 g     F .text	00000140 __pow5mult
10009cc4 g     F .text	0000150c ___vfiprintf_internal_r
10015adc g     O .bss	00000004 __nlocale_changed
1000c910 g     F .text	00000058 .hidden __umodsi3
10015c34 g       *ABS*	00000000 end
1000fe14 g     F .text	000000c0 altera_avalon_jtag_uart_init
100001d0 g     F .exceptions	00000060 alt_instruction_exception_entry
10011a54 g       *ABS*	00000000 __CTOR_LIST__
18000000 g       *ABS*	00000000 __alt_stack_pointer
1000f1d0 g     F .text	00000064 .hidden __clzsi2
100104f4 g     F .text	00000224 altera_avalon_jtag_uart_write
1000689c g     F .text	00000004 __sfp_lock_acquire
10007e04 g     F .text	000000e4 memchr
100024cc g     F .text	000022dc ___vfprintf_internal_r
10001be8 g     F .text	00000100 UsbClassRequest
10006a00 g     F .text	00000310 _free_r
100073e8 g     F .text	00000010 __locale_mb_cur_max
100118a0 g     F .text	00000180 __call_exitprocs
10015ad8 g     O .bss	00000004 __mlocale_changed
10013fb0 g     O .rwdata	00000004 __malloc_sbrk_base
10000230 g     F .text	0000003c _start
10015b00 g     O .bss	00000004 _alt_tick_rate
10008af0 g     F .text	00000148 __lshift
10015b04 g     O .bss	00000004 _alt_nticks
1000f854 g     F .text	00000104 read
1000fc64 g     F .text	0000004c alt_sys_init
10011788 g     F .text	00000118 __register_exitproc
10008724 g     F .text	0000028c __multiply
10010180 g     F .text	00000068 altera_avalon_jtag_uart_close
1000c968 g     F .text	00000028 .hidden __mulsi3
100124f8 g       *ABS*	00000000 __ram_rwdata_start
10011a54 g       *ABS*	00000000 __ram_rodata_start
10015b0c g     O .bss	00000028 __malloc_current_mallinfo
10009004 g     F .text	0000014c __d2b
100013d0 g     F .text	00000148 UsbGetDeviceDesc1
1000fcb0 g     F .text	00000060 altera_avalon_jtag_uart_read_fd
10011560 g     F .text	000000c4 alt_get_fd
10010844 g     F .text	00000158 alt_busy_sleep
1000b308 g     F .text	00000054 _close_r
1001170c g     F .text	0000007c memcmp
1000fd70 g     F .text	00000050 altera_avalon_jtag_uart_close_fd
10015c34 g       *ABS*	00000000 __alt_stack_base
1000fdc0 g     F .text	00000054 altera_avalon_jtag_uart_ioctl_fd
10004880 g     F .text	00000154 __swsetup_r
1000d23c g     F .text	000009d0 .hidden __divdf3
1000675c g     F .text	00000118 __sfp
10009268 g     F .text	00000078 __copybits
10012994 g     O .rwdata	00000408 __malloc_av_
100068a8 g     F .text	00000004 __sinit_lock_release
1000de64 g     F .text	0000086c .hidden __muldf3
10009998 g     F .text	00000054 __sread
10002170 g     F .text	00000084 UsbWaitTDListDone
10011458 g     F .text	00000108 alt_find_file
100109f8 g     F .text	000000a4 alt_dev_llist_insert
1000f7d0 g     F .text	00000024 __malloc_lock
1000f9dc g     F .text	000000b0 sbrk
100064a0 g     F .text	0000005c _fflush_r
1000b35c g     F .text	000000dc _calloc_r
10015ad0 g       *ABS*	00000000 __bss_start
1000818c g     F .text	00000128 memset
100003e4 g     F .text	00000d9c main
10015af8 g     O .bss	00000004 alt_envp
10015ae0 g     O .bss	00000004 __malloc_max_total_mem
1000fd10 g     F .text	00000060 altera_avalon_jtag_uart_write_fd
10001ae8 g     F .text	00000100 UsbSetConfig
1000b9f4 g     F .text	00000018 __swbuf
10009acc g     F .text	00000008 __sclose
18000000 g       *ABS*	00000000 __alt_heap_limit
1000b528 g     F .text	00000014 fclose
10004bfc g     F .text	00001688 _dtoa_r
100075f8 g     F .text	0000080c _malloc_r
1000bb68 g     F .text	00000030 __ascii_wctomb
10013fd0 g     O .rwdata	00000004 alt_errno
100071d8 g     F .text	000000c4 _fwalk
1000c7b4 g     F .text	00000084 .hidden __divsi3
100068dc g     F .text	00000124 _malloc_trim_r
10001ce8 g     F .text	00000148 UsbGetHidDesc
10011a54 g       *ABS*	00000000 __CTOR_END__
10009ad4 g     F .text	000000dc strcmp
10011a54 g       *ABS*	00000000 __flash_rodata_start
10011a54 g       *ABS*	00000000 __DTOR_LIST__
1000dc0c g     F .text	00000088 .hidden __nedf2
100011d8 g     F .text	00000044 UsbRead
1000fc2c g     F .text	00000038 alt_irq_init
1000f958 g     F .text	00000084 alt_release_fd
100123c4 g     O .rodata	00000100 .hidden __clz_tab
10015ad4 g     O .bss	00000004 _PathLocale
100116c0 g     F .text	00000014 atexit
1000b2a8 g     F .text	00000060 _write_r
10007418 g     F .text	00000018 setlocale
10013fa8 g     O .rwdata	00000004 _impure_ptr
10015af0 g     O .bss	00000004 alt_argc
10006284 g     F .text	0000021c __sflush_r
10010afc g     F .text	00000060 _do_dtors
10007404 g     F .text	00000008 __locale_cjk_lang
10000020 g       .exceptions	00000000 alt_irq_entry
10008e94 g     F .text	00000064 __ulp
100068c4 g     F .text	00000018 __fp_unlock_all
10013fbc g     O .rwdata	00000008 alt_fs_list
10001e30 g     F .text	00000340 UsbGetReportDesc
10000020 g       *ABS*	00000000 __ram_exceptions_start
10007430 g     F .text	0000000c localeconv
10010b7c g     F .text	00000050 alt_ic_isr_register
10013fe4 g       *ABS*	00000000 _edata
10015c34 g       *ABS*	00000000 _end
10001180 g     F .text	00000058 UsbWrite
1000b53c g     F .text	00000164 __fputwc
10000230 g       *ABS*	00000000 __ram_exceptions_end
100101e8 g     F .text	000000f0 altera_avalon_jtag_uart_ioctl
10010c54 g     F .text	0000008c alt_ic_irq_disable
100099f4 g     F .text	0000007c __swrite
10013fb4 g     O .rwdata	00000004 __malloc_trim_threshold
100073f8 g     F .text	0000000c __locale_msgcharset
100116d4 g     F .text	00000038 exit
1000729c g     F .text	000000c4 _fwalk_reent
10008c98 g     F .text	000001fc __mdiff
1000c838 g     F .text	00000074 .hidden __modsi3
18000000 g       *ABS*	00000000 __alt_data_end
10000020 g     F .exceptions	00000000 alt_exception
100068a0 g     F .text	00000004 __sfp_lock_release
10000000 g       *ABS*	00000000 __alt_mem_sdram
100002f4 g     F .text	0000007c IO_write
10011a20 g     F .text	00000034 _exit
10010718 g     F .text	0000012c alt_alarm_start
1000743c g     F .text	000001bc __smakebuf_r
10002434 g     F .text	00000098 strlen
100110a4 g     F .text	0000015c open
1000dc94 g     F .text	000000dc .hidden __gedf2
10013fb8 g     O .rwdata	00000004 __wctomb
10009cac g     F .text	00000018 __sprint_r
10010b5c g     F .text	00000020 alt_icache_flush_all
10013fd8 g     O .rwdata	00000004 alt_priority_mask
10010bcc g     F .text	00000088 alt_ic_irq_enable
100047a8 g     F .text	0000001c __vfprintf_internal
1000bb98 g     F .text	0000005c _wctomb_r
1000e6d0 g     F .text	000008fc .hidden __subdf3
10008638 g     F .text	000000b0 __lo0bits
100016f0 g     F .text	00000190 UsbGetConfigDesc1
10013fdc g     O .rwdata	00000008 alt_alarm_list
10010a9c g     F .text	00000060 _do_ctors
1000121c g     F .text	000000b4 UsbSoftReset
1000baa8 g     F .text	000000c0 wcrtomb
1000f270 g     F .text	000000d8 close
10001518 g     F .text	000001d8 UsbGetDeviceDesc2
1000f5b8 g     F .text	00000084 alt_load
1000b6c4 g     F .text	00000080 fputwc
100068a4 g     F .text	00000004 __sinit_lock_acquire
10008384 g     F .text	00000148 __multadd
1000835c g     F .text	00000028 _Bfree



Disassembly of section .entry:

10000000 <__reset>:
 * Jump to the _start entry point in the .text section if reset code
 * is allowed or if optimizing for RTL simulation.
 */
#if defined(ALT_ALLOW_CODE_AT_RESET) || defined(ALT_SIM_OPTIMIZE)
    /* Jump to the _start entry point in the .text section. */
    movhi r1, %hi(_start)
10000000:	00440034 	movhi	at,4096
    ori r1, r1, %lo(_start)
10000004:	08408c14 	ori	at,at,560
    jmp r1
10000008:	0800683a 	jmp	at
	...

Disassembly of section .exceptions:

10000020 <alt_exception>:

#else /* ALT_EXCEPTION_STACK disabled */
        /* 
         * Reserve space on normal stack for registers about to be pushed.
         */
        addi  sp, sp, -76
10000020:	deffed04 	addi	sp,sp,-76
         * documentation for details).
         *
         * Leave a gap in the stack frame at 4(sp) for the muldiv handler to
         * store zero into.
         */
        stw   ra,  0(sp)
10000024:	dfc00015 	stw	ra,0(sp)
        stw   r1,   8(sp)
10000028:	d8400215 	stw	at,8(sp)
        stw   r2,  12(sp)
1000002c:	d8800315 	stw	r2,12(sp)
        stw   r3,  16(sp)
10000030:	d8c00415 	stw	r3,16(sp)
        stw   r4,  20(sp)
10000034:	d9000515 	stw	r4,20(sp)
        stw   r5,  24(sp)
10000038:	d9400615 	stw	r5,24(sp)
        stw   r6,  28(sp)
1000003c:	d9800715 	stw	r6,28(sp)
        stw   r7,  32(sp)
10000040:	d9c00815 	stw	r7,32(sp)
        rdctl r5, estatus   /* Read early to avoid usage stall */
10000044:	000b307a 	rdctl	r5,estatus
        stw   r8,  36(sp)
10000048:	da000915 	stw	r8,36(sp)
        stw   r9,  40(sp)
1000004c:	da400a15 	stw	r9,40(sp)
        stw   r10, 44(sp)
10000050:	da800b15 	stw	r10,44(sp)
        stw   r11, 48(sp)
10000054:	dac00c15 	stw	r11,48(sp)
        stw   r12, 52(sp)
10000058:	db000d15 	stw	r12,52(sp)
        stw   r13, 56(sp)
1000005c:	db400e15 	stw	r13,56(sp)
        stw   r14, 60(sp)
10000060:	db800f15 	stw	r14,60(sp)
        stw   r15, 64(sp)
10000064:	dbc01015 	stw	r15,64(sp)
        /*
         * ea-4 contains the address of the instruction being executed
         * when the exception occured. For interrupt exceptions, we will
         * will be re-issue the isntruction. Store it in 72(sp)
         */
        stw   r5,  68(sp)  /* estatus */
10000068:	d9401115 	stw	r5,68(sp)
        addi  r15, ea, -4  /* instruction that caused exception */
1000006c:	ebffff04 	addi	r15,ea,-4
        stw   r15,  72(sp)
10000070:	dbc01215 	stw	r15,72(sp)
#else
        /*
         * Test to see if the exception was a software exception or caused 
         * by an external interrupt, and vector accordingly.
         */
        rdctl r4, ipending
10000074:	0009313a 	rdctl	r4,ipending
        andi  r2, r5, 1
10000078:	2880004c 	andi	r2,r5,1
        beq   r2, zero, .Lnot_irq
1000007c:	10000326 	beq	r2,zero,1000008c <alt_exception+0x6c>
        beq   r4, zero, .Lnot_irq
10000080:	20000226 	beq	r4,zero,1000008c <alt_exception+0x6c>
        /*
         * Now that all necessary registers have been preserved, call 
         * alt_irq_handler() to process the interrupts.
         */

        call alt_irq_handler
10000084:	00000fc0 	call	100000fc <alt_irq_handler>

        .section .exceptions.irqreturn, "xa"

        br    .Lexception_exit
10000088:	00000706 	br	100000a8 <alt_exception+0x88>
         * upon completion, so we write ea (address of instruction *after*
         * the one where the exception occured) into 72(sp). The actual
         * instruction that caused the exception is written in r2, which these
         * handlers will utilize.
         */
        stw ea, 72(sp) /* EA is PC+4 so will skip over instruction causing exception */
1000008c:	df401215 	stw	ea,72(sp)
.Lunknown_16bit:
        addi.n r4, r4, 2 /* Need PC+2 to skip over instruction causing exception */
        stw r4, 72(sp)

#else /* CDX is not Enabled and all instructions are 32bits */
        ldw r2, -4(ea) /* Instruction value that caused exception */
10000090:	e8bfff17 	ldw	r2,-4(ea)
         * debugger is present) or go into an infinite loop since the
         * handling behavior is undefined; in that case we will not return here.
         */

        /* Load exception-causing address as first argument (r4) */
        addi   r4, ea, -4
10000094:	e93fff04 	addi	r4,ea,-4

        /* Call the instruction-exception entry */
        call   alt_instruction_exception_entry
10000098:	00001d00 	call	100001d0 <alt_instruction_exception_entry>
         * instruction
         *
         * Return code was 0: Skip. The instruction after the exception is
         * already stored in 72(sp).
         */
        bne   r2, r0, .Lexception_exit
1000009c:	1000021e 	bne	r2,zero,100000a8 <alt_exception+0x88>

        /*
         * Otherwise, modify 72(sp) to re-issue the instruction that caused the
         * exception.
         */
        addi  r15, ea, -4  /* instruction that caused exception */
100000a0:	ebffff04 	addi	r15,ea,-4
        stw   r15,  72(sp)
100000a4:	dbc01215 	stw	r15,72(sp)
        /* 
         * Restore the saved registers, so that all general purpose registers 
         * have been restored to their state at the time the interrupt occured.
         */

        ldw   r5,  68(sp)
100000a8:	d9401117 	ldw	r5,68(sp)
        ldw   ea,  72(sp)  /* This becomes the PC once eret is executed */
100000ac:	df401217 	ldw	ea,72(sp)
        ldw   ra,   0(sp)
100000b0:	dfc00017 	ldw	ra,0(sp)

        wrctl estatus, r5
100000b4:	2801707a 	wrctl	estatus,r5

        ldw   r1,   8(sp)
100000b8:	d8400217 	ldw	at,8(sp)
        ldw   r2,  12(sp)
100000bc:	d8800317 	ldw	r2,12(sp)
        ldw   r3,  16(sp)
100000c0:	d8c00417 	ldw	r3,16(sp)
        ldw   r4,  20(sp)
100000c4:	d9000517 	ldw	r4,20(sp)
        ldw   r5,  24(sp)
100000c8:	d9400617 	ldw	r5,24(sp)
        ldw   r6,  28(sp)
100000cc:	d9800717 	ldw	r6,28(sp)
        ldw   r7,  32(sp)
100000d0:	d9c00817 	ldw	r7,32(sp)

#if defined(ALT_EXCEPTION_STACK) && defined(ALT_STACK_CHECK)
        ldw   et, %gprel(alt_exception_old_stack_limit)(gp)
#endif

        ldw   r8,  36(sp)
100000d4:	da000917 	ldw	r8,36(sp)
        ldw   r9,  40(sp)
100000d8:	da400a17 	ldw	r9,40(sp)
        ldw   r10, 44(sp)
100000dc:	da800b17 	ldw	r10,44(sp)
        ldw   r11, 48(sp)
100000e0:	dac00c17 	ldw	r11,48(sp)
        ldw   r12, 52(sp)
100000e4:	db000d17 	ldw	r12,52(sp)
        ldw   r13, 56(sp)
100000e8:	db400e17 	ldw	r13,56(sp)
        ldw   r14, 60(sp)
100000ec:	db800f17 	ldw	r14,60(sp)
        ldw   r15, 64(sp)
100000f0:	dbc01017 	ldw	r15,64(sp)
        stw   et, %gprel(alt_stack_limit_value)(gp)
        stw   zero, %gprel(alt_exception_old_stack_limit)(gp)
#endif /* ALT_STACK_CHECK */
        ldw   sp,  76(sp)
#else /* ALT_EXCEPTION_STACK disabled */
        addi  sp, sp, 76
100000f4:	dec01304 	addi	sp,sp,76

        /*
         * Return to the interrupted instruction.
         */

        eret
100000f8:	ef80083a 	eret

100000fc <alt_irq_handler>:
 * instruction is present if the macro ALT_CI_INTERRUPT_VECTOR defined.
 */

void alt_irq_handler (void) __attribute__ ((section (".exceptions")));
void alt_irq_handler (void)
{
100000fc:	defff904 	addi	sp,sp,-28
10000100:	dfc00615 	stw	ra,24(sp)
10000104:	df000515 	stw	fp,20(sp)
10000108:	df000504 	addi	fp,sp,20
  
  /*
   * Notify the operating system that we are at interrupt level.
   */ 
  
  ALT_OS_INT_ENTER();
1000010c:	0001883a 	nop
#ifndef NIOS2_EIC_PRESENT
static ALT_INLINE alt_u32 ALT_ALWAYS_INLINE alt_irq_pending (void)
{
  alt_u32 active;

  NIOS2_READ_IPENDING (active);
10000110:	0005313a 	rdctl	r2,ipending
10000114:	e0bffe15 	stw	r2,-8(fp)

  return active;
10000118:	e0bffe17 	ldw	r2,-8(fp)
   * Consider the case where the high priority interupt is asserted during
   * the interrupt entry sequence for a lower priority interrupt to see why
   * this is the case.
   */

  active = alt_irq_pending ();
1000011c:	e0bffb15 	stw	r2,-20(fp)

  do
  {
    i = 0;
10000120:	e03ffd15 	stw	zero,-12(fp)
    mask = 1;
10000124:	00800044 	movi	r2,1
10000128:	e0bffc15 	stw	r2,-16(fp)
     * called to clear the interrupt condition.
     */

    do
    {
      if (active & mask)
1000012c:	e0fffb17 	ldw	r3,-20(fp)
10000130:	e0bffc17 	ldw	r2,-16(fp)
10000134:	1884703a 	and	r2,r3,r2
10000138:	10001426 	beq	r2,zero,1000018c <alt_irq_handler+0x90>
      { 
#ifdef ALT_ENHANCED_INTERRUPT_API_PRESENT
        alt_irq[i].handler(alt_irq[i].context); 
1000013c:	00840074 	movhi	r2,4097
10000140:	1096cd04 	addi	r2,r2,23348
10000144:	e0fffd17 	ldw	r3,-12(fp)
10000148:	180690fa 	slli	r3,r3,3
1000014c:	10c5883a 	add	r2,r2,r3
10000150:	10c00017 	ldw	r3,0(r2)
10000154:	00840074 	movhi	r2,4097
10000158:	1096cd04 	addi	r2,r2,23348
1000015c:	e13ffd17 	ldw	r4,-12(fp)
10000160:	200890fa 	slli	r4,r4,3
10000164:	1105883a 	add	r2,r2,r4
10000168:	10800104 	addi	r2,r2,4
1000016c:	10800017 	ldw	r2,0(r2)
10000170:	1009883a 	mov	r4,r2
10000174:	183ee83a 	callr	r3
#else
        alt_irq[i].handler(alt_irq[i].context, i); 
#endif
        break;
10000178:	0001883a 	nop
#ifndef NIOS2_EIC_PRESENT
static ALT_INLINE alt_u32 ALT_ALWAYS_INLINE alt_irq_pending (void)
{
  alt_u32 active;

  NIOS2_READ_IPENDING (active);
1000017c:	0005313a 	rdctl	r2,ipending
10000180:	e0bfff15 	stw	r2,-4(fp)

  return active;
10000184:	e0bfff17 	ldw	r2,-4(fp)
10000188:	00000706 	br	100001a8 <alt_irq_handler+0xac>
      }
      mask <<= 1;
1000018c:	e0bffc17 	ldw	r2,-16(fp)
10000190:	1085883a 	add	r2,r2,r2
10000194:	e0bffc15 	stw	r2,-16(fp)
      i++;
10000198:	e0bffd17 	ldw	r2,-12(fp)
1000019c:	10800044 	addi	r2,r2,1
100001a0:	e0bffd15 	stw	r2,-12(fp)

    } while (1);
100001a4:	003fe106 	br	1000012c <__alt_data_end+0xf800012c>

    active = alt_irq_pending ();
100001a8:	e0bffb15 	stw	r2,-20(fp)
    
  } while (active);
100001ac:	e0bffb17 	ldw	r2,-20(fp)
100001b0:	103fdb1e 	bne	r2,zero,10000120 <__alt_data_end+0xf8000120>

  /*
   * Notify the operating system that interrupt processing is complete.
   */ 

  ALT_OS_INT_EXIT();
100001b4:	0001883a 	nop
}
100001b8:	0001883a 	nop
100001bc:	e037883a 	mov	sp,fp
100001c0:	dfc00117 	ldw	ra,4(sp)
100001c4:	df000017 	ldw	fp,0(sp)
100001c8:	dec00204 	addi	sp,sp,8
100001cc:	f800283a 	ret

100001d0 <alt_instruction_exception_entry>:
 * that handler if it has been registered. Absent a handler, it will
 * break break or hang as discussed below.
 */
int 
alt_instruction_exception_entry (alt_u32 exception_pc)
{
100001d0:	defffb04 	addi	sp,sp,-20
100001d4:	dfc00415 	stw	ra,16(sp)
100001d8:	df000315 	stw	fp,12(sp)
100001dc:	df000304 	addi	fp,sp,12
100001e0:	e13fff15 	stw	r4,-4(fp)
  cause = ( (cause & NIOS2_EXCEPTION_REG_CAUSE_MASK) >>
              NIOS2_EXCEPTION_REG_CAUSE_OFST );

  NIOS2_READ_BADADDR(badaddr);
#else
  cause = NIOS2_EXCEPTION_CAUSE_NOT_PRESENT;
100001e4:	00bfffc4 	movi	r2,-1
100001e8:	e0bffd15 	stw	r2,-12(fp)
  badaddr = 0;
100001ec:	e03ffe15 	stw	zero,-8(fp)
#endif /* NIOS2_HAS_EXTRA_EXCEPTION_INFO */

  if(alt_instruction_exception_handler) {
100001f0:	d0a6d917 	ldw	r2,-25756(gp)
100001f4:	10000726 	beq	r2,zero,10000214 <alt_instruction_exception_entry+0x44>
     * Call handler. Its return value indicates whether the exception-causing
     * instruction should be re-issued. The code that called us,
     * alt_eceptions_entry.S, will look at this value and adjust the ea
     * register as necessary
     */
    return alt_instruction_exception_handler(cause, exception_pc, badaddr);
100001f8:	d0a6d917 	ldw	r2,-25756(gp)
100001fc:	e0fffd17 	ldw	r3,-12(fp)
10000200:	e1bffe17 	ldw	r6,-8(fp)
10000204:	e17fff17 	ldw	r5,-4(fp)
10000208:	1809883a 	mov	r4,r3
1000020c:	103ee83a 	callr	r2
10000210:	00000206 	br	1000021c <alt_instruction_exception_entry+0x4c>
   *    (a peripheral which negates its interrupt output before its
   *    interrupt handler has been executed will cause spurious interrupts)
   */
  else {
#ifdef NIOS2_HAS_DEBUG_STUB
    NIOS2_BREAK();
10000214:	003da03a 	break	0
      ;
#endif /* NIOS2_HAS_DEBUG_STUB */
  }

  /* We should not get here. Remove compiler warning. */
  return NIOS2_EXCEPTION_RETURN_REISSUE_INST;
10000218:	0005883a 	mov	r2,zero
}
1000021c:	e037883a 	mov	sp,fp
10000220:	dfc00117 	ldw	ra,4(sp)
10000224:	df000017 	ldw	fp,0(sp)
10000228:	dec00204 	addi	sp,sp,8
1000022c:	f800283a 	ret

Disassembly of section .text:

10000230 <_start>:

    /*
     * Now that the caches are initialized, set up the stack pointer and global pointer.
     * The values provided by the linker are assumed to be correctly aligned.
     */
    movhi sp, %hi(__alt_stack_pointer)
10000230:	06c60034 	movhi	sp,6144
    ori sp, sp, %lo(__alt_stack_pointer)
10000234:	dec00014 	ori	sp,sp,0
    movhi gp, %hi(_gp)
10000238:	06840074 	movhi	gp,4097
    ori gp, gp, %lo(_gp)
1000023c:	d6afe914 	ori	gp,gp,49060
 */
#ifndef ALT_SIM_OPTIMIZE
    /* Log that the BSS is about to be cleared. */
    ALT_LOG_PUTS(alt_log_msg_bss)

    movhi r2, %hi(__bss_start)
10000240:	00840074 	movhi	r2,4097
    ori r2, r2, %lo(__bss_start)
10000244:	1096b414 	ori	r2,r2,23248

    movhi r3, %hi(__bss_end)
10000248:	00c40074 	movhi	r3,4097
    ori r3, r3, %lo(__bss_end)
1000024c:	18d70d14 	ori	r3,r3,23604

    beq r2, r3, 1f
10000250:	10c00326 	beq	r2,r3,10000260 <_start+0x30>

0:
    stw zero, (r2)
10000254:	10000015 	stw	zero,0(r2)
    addi r2, r2, 4
10000258:	10800104 	addi	r2,r2,4
    bltu r2, r3, 0b
1000025c:	10fffd36 	bltu	r2,r3,10000254 <__alt_data_end+0xf8000254>
     * section aren't defined until alt_load() has been called).
     */
    mov   et, zero
#endif

    call alt_load
10000260:	000f5b80 	call	1000f5b8 <alt_load>

    /* Log that alt_main is about to be called. */
    ALT_LOG_PUTS(alt_log_msg_alt_main)

    /* Call the C entry point. It should never return. */
    call alt_main
10000264:	000f7540 	call	1000f754 <alt_main>

10000268 <alt_after_alt_main>:

    /* Wait in infinite loop in case alt_main does return. */
alt_after_alt_main:
    br alt_after_alt_main
10000268:	003fff06 	br	10000268 <__alt_data_end+0xf8000268>

1000026c <IO_init>:
//io_handler.c
#include "io_handler.h"
#include <stdio.h>

void IO_init(void)
{
1000026c:	deffff04 	addi	sp,sp,-4
10000270:	df000015 	stw	fp,0(sp)
10000274:	d839883a 	mov	fp,sp
	*otg_hpi_reset = 1;
10000278:	008c1c04 	movi	r2,12400
1000027c:	00c00044 	movi	r3,1
10000280:	10c00005 	stb	r3,0(r2)
	*otg_hpi_cs = 1;
10000284:	008c2004 	movi	r2,12416
10000288:	00c00044 	movi	r3,1
1000028c:	10c00005 	stb	r3,0(r2)
	*otg_hpi_r = 1;
10000290:	008c2804 	movi	r2,12448
10000294:	00c00044 	movi	r3,1
10000298:	10c00005 	stb	r3,0(r2)
	*otg_hpi_w = 1;
1000029c:	008c2404 	movi	r2,12432
100002a0:	00c00044 	movi	r3,1
100002a4:	10c00005 	stb	r3,0(r2)
	*otg_hpi_address = 0;
100002a8:	008c3004 	movi	r2,12480
100002ac:	10000015 	stw	zero,0(r2)
	*otg_hpi_data = 0;
100002b0:	008c2c04 	movi	r2,12464
100002b4:	10000015 	stw	zero,0(r2)
	// Reset OTG chip
	*otg_hpi_cs = 0;
100002b8:	008c2004 	movi	r2,12416
100002bc:	10000005 	stb	zero,0(r2)
	*otg_hpi_reset = 0;
100002c0:	008c1c04 	movi	r2,12400
100002c4:	10000005 	stb	zero,0(r2)
	*otg_hpi_reset = 1;
100002c8:	008c1c04 	movi	r2,12400
100002cc:	00c00044 	movi	r3,1
100002d0:	10c00005 	stb	r3,0(r2)
	*otg_hpi_cs = 1;
100002d4:	008c2004 	movi	r2,12416
100002d8:	00c00044 	movi	r3,1
100002dc:	10c00005 	stb	r3,0(r2)
}
100002e0:	0001883a 	nop
100002e4:	e037883a 	mov	sp,fp
100002e8:	df000017 	ldw	fp,0(sp)
100002ec:	dec00104 	addi	sp,sp,4
100002f0:	f800283a 	ret

100002f4 <IO_write>:

void IO_write(alt_u8 Address, alt_u16 Data)
{
100002f4:	defffd04 	addi	sp,sp,-12
100002f8:	df000215 	stw	fp,8(sp)
100002fc:	df000204 	addi	fp,sp,8
10000300:	2007883a 	mov	r3,r4
10000304:	2805883a 	mov	r2,r5
10000308:	e0fffe05 	stb	r3,-8(fp)
1000030c:	e0bfff0d 	sth	r2,-4(fp)
//*************************************************************************//
//									TASK								   //
//*************************************************************************//
//							Write this function							   //
//*************************************************************************//
	*otg_hpi_address = Address;
10000310:	008c3004 	movi	r2,12480
10000314:	e0fffe03 	ldbu	r3,-8(fp)
10000318:	10c00015 	stw	r3,0(r2)
	*otg_hpi_cs = 0;
1000031c:	008c2004 	movi	r2,12416
10000320:	10000005 	stb	zero,0(r2)
	*otg_hpi_r = 1;
10000324:	008c2804 	movi	r2,12448
10000328:	00c00044 	movi	r3,1
1000032c:	10c00005 	stb	r3,0(r2)
	*otg_hpi_data = Data;
10000330:	008c2c04 	movi	r2,12464
10000334:	e0ffff0b 	ldhu	r3,-4(fp)
10000338:	10c00015 	stw	r3,0(r2)
	*otg_hpi_w = 0;
1000033c:	008c2404 	movi	r2,12432
10000340:	10000005 	stb	zero,0(r2)
	*otg_hpi_w = 1;
10000344:	008c2404 	movi	r2,12432
10000348:	00c00044 	movi	r3,1
1000034c:	10c00005 	stb	r3,0(r2)
	*otg_hpi_cs = 1;
10000350:	008c2004 	movi	r2,12416
10000354:	00c00044 	movi	r3,1
10000358:	10c00005 	stb	r3,0(r2)
}
1000035c:	0001883a 	nop
10000360:	e037883a 	mov	sp,fp
10000364:	df000017 	ldw	fp,0(sp)
10000368:	dec00104 	addi	sp,sp,4
1000036c:	f800283a 	ret

10000370 <IO_read>:

alt_u16 IO_read(alt_u8 Address)
{
10000370:	defffd04 	addi	sp,sp,-12
10000374:	df000215 	stw	fp,8(sp)
10000378:	df000204 	addi	fp,sp,8
1000037c:	2005883a 	mov	r2,r4
10000380:	e0bfff05 	stb	r2,-4(fp)
//*************************************************************************//
//									TASK								   //
//*************************************************************************//
//							Write this function							   //
//*************************************************************************//
	*otg_hpi_address = Address;
10000384:	008c3004 	movi	r2,12480
10000388:	e0ffff03 	ldbu	r3,-4(fp)
1000038c:	10c00015 	stw	r3,0(r2)
	*otg_hpi_cs = 0;
10000390:	008c2004 	movi	r2,12416
10000394:	10000005 	stb	zero,0(r2)
	*otg_hpi_w = 1;
10000398:	008c2404 	movi	r2,12432
1000039c:	00c00044 	movi	r3,1
100003a0:	10c00005 	stb	r3,0(r2)
	*otg_hpi_r = 0;
100003a4:	008c2804 	movi	r2,12448
100003a8:	10000005 	stb	zero,0(r2)
	temp = *otg_hpi_data;
100003ac:	008c2c04 	movi	r2,12464
100003b0:	10800017 	ldw	r2,0(r2)
100003b4:	e0bffe0d 	sth	r2,-8(fp)
	*otg_hpi_r = 1;
100003b8:	008c2804 	movi	r2,12448
100003bc:	00c00044 	movi	r3,1
100003c0:	10c00005 	stb	r3,0(r2)
	*otg_hpi_cs = 1;
100003c4:	008c2004 	movi	r2,12416
100003c8:	00c00044 	movi	r3,1
100003cc:	10c00005 	stb	r3,0(r2)
//	printf("[IO_read]: address is %x\n",Address);
	return temp;
100003d0:	e0bffe0b 	ldhu	r2,-8(fp)
}
100003d4:	e037883a 	mov	sp,fp
100003d8:	df000017 	ldw	fp,0(sp)
100003dc:	dec00104 	addi	sp,sp,4
100003e0:	f800283a 	ret

100003e4 <main>:
//
//                                Main function
//
//----------------------------------------------------------------------------------------//
int main(void)
{
100003e4:	defff904 	addi	sp,sp,-28
100003e8:	dfc00615 	stw	ra,24(sp)
100003ec:	df000515 	stw	fp,20(sp)
100003f0:	df000504 	addi	fp,sp,20
	IO_init();
100003f4:	000026c0 	call	1000026c <IO_init>

	alt_u16 intStat;
	alt_u16 usb_ctl_val;
	static alt_u16 ctl_reg = 0;
	static alt_u16 no_device = 0;
	alt_u16 fs_device = 0;
100003f8:	e03ffc0d 	sth	zero,-16(fp)
	alt_u16 keycode0 = 0;
100003fc:	e03ffc8d 	sth	zero,-14(fp)
	alt_u16 keycode1 = 0;
10000400:	e03ffd0d 	sth	zero,-12(fp)
	alt_u16 keycode2 = 0;
10000404:	e03ffd8d 	sth	zero,-10(fp)
	alt_u8 toggle = 0;
10000408:	e03ffb85 	stb	zero,-18(fp)
	alt_u8 data_size;
	alt_u8 hot_plug_count;
	alt_u16 code;

	printf("USB keyboard setup...\n\n");
1000040c:	01040074 	movhi	r4,4097
10000410:	21069504 	addi	r4,r4,6740
10000414:	00024200 	call	10002420 <puts>

	//----------------------------------------SIE1 initial---------------------------------------------------//
	USB_HOT_PLUG:
	UsbSoftReset();
10000418:	000121c0 	call	1000121c <UsbSoftReset>

	// STEP 1a:
	UsbWrite (HPI_SIE1_MSG_ADR, 0);
1000041c:	000b883a 	mov	r5,zero
10000420:	01005104 	movi	r4,324
10000424:	00011800 	call	10001180 <UsbWrite>
	UsbWrite (HOST1_STAT_REG, 0xFFFF);
10000428:	017fffd4 	movui	r5,65535
1000042c:	01302414 	movui	r4,49296
10000430:	00011800 	call	10001180 <UsbWrite>

	/* Set HUSB_pEOT time */
	UsbWrite(HUSB_pEOT, 600); // adjust the according to your USB device speed
10000434:	01409604 	movi	r5,600
10000438:	01006d04 	movi	r4,436
1000043c:	00011800 	call	10001180 <UsbWrite>

	usb_ctl_val = SOFEOP1_TO_CPU_EN | RESUME1_TO_HPI_EN;// | SOFEOP1_TO_HPI_EN;
10000440:	00811004 	movi	r2,1088
10000444:	e0bffb0d 	sth	r2,-20(fp)
	UsbWrite(HPI_IRQ_ROUTING_REG, usb_ctl_val);
10000448:	e0bffb0b 	ldhu	r2,-20(fp)
1000044c:	100b883a 	mov	r5,r2
10000450:	01005084 	movi	r4,322
10000454:	00011800 	call	10001180 <UsbWrite>

	intStat = A_CHG_IRQ_EN | SOF_EOP_IRQ_EN ;
10000458:	00808404 	movi	r2,528
1000045c:	e0bffe0d 	sth	r2,-8(fp)
	UsbWrite(HOST1_IRQ_EN_REG, intStat);
10000460:	e0bffe0b 	ldhu	r2,-8(fp)
10000464:	100b883a 	mov	r5,r2
10000468:	01302314 	movui	r4,49292
1000046c:	00011800 	call	10001180 <UsbWrite>
	// STEP 1a end

	// STEP 1b begin
	UsbWrite(COMM_R0,0x0000);//reset time
10000470:	000b883a 	mov	r5,zero
10000474:	01007104 	movi	r4,452
10000478:	00011800 	call	10001180 <UsbWrite>
	UsbWrite(COMM_R1,0x0000);  //port number
1000047c:	000b883a 	mov	r5,zero
10000480:	01007184 	movi	r4,454
10000484:	00011800 	call	10001180 <UsbWrite>
	UsbWrite(COMM_R2,0x0000);  //r1
10000488:	000b883a 	mov	r5,zero
1000048c:	01007204 	movi	r4,456
10000490:	00011800 	call	10001180 <UsbWrite>
	UsbWrite(COMM_R3,0x0000);  //r1
10000494:	000b883a 	mov	r5,zero
10000498:	01007284 	movi	r4,458
1000049c:	00011800 	call	10001180 <UsbWrite>
	UsbWrite(COMM_R4,0x0000);  //r1
100004a0:	000b883a 	mov	r5,zero
100004a4:	01007304 	movi	r4,460
100004a8:	00011800 	call	10001180 <UsbWrite>
	UsbWrite(COMM_R5,0x0000);  //r1
100004ac:	000b883a 	mov	r5,zero
100004b0:	01007384 	movi	r4,462
100004b4:	00011800 	call	10001180 <UsbWrite>
	UsbWrite(COMM_R6,0x0000);  //r1
100004b8:	000b883a 	mov	r5,zero
100004bc:	01007404 	movi	r4,464
100004c0:	00011800 	call	10001180 <UsbWrite>
	UsbWrite(COMM_R7,0x0000);  //r1
100004c4:	000b883a 	mov	r5,zero
100004c8:	01007484 	movi	r4,466
100004cc:	00011800 	call	10001180 <UsbWrite>
	UsbWrite(COMM_R8,0x0000);  //r1
100004d0:	000b883a 	mov	r5,zero
100004d4:	01007504 	movi	r4,468
100004d8:	00011800 	call	10001180 <UsbWrite>
	UsbWrite(COMM_R9,0x0000);  //r1
100004dc:	000b883a 	mov	r5,zero
100004e0:	01007584 	movi	r4,470
100004e4:	00011800 	call	10001180 <UsbWrite>
	UsbWrite(COMM_R10,0x0000);  //r1
100004e8:	000b883a 	mov	r5,zero
100004ec:	01007604 	movi	r4,472
100004f0:	00011800 	call	10001180 <UsbWrite>
	UsbWrite(COMM_R11,0x0000);  //r1
100004f4:	000b883a 	mov	r5,zero
100004f8:	01007684 	movi	r4,474
100004fc:	00011800 	call	10001180 <UsbWrite>
	UsbWrite(COMM_R12,0x0000);  //r1
10000500:	000b883a 	mov	r5,zero
10000504:	01007704 	movi	r4,476
10000508:	00011800 	call	10001180 <UsbWrite>
	UsbWrite(COMM_R13,0x0000);  //r1
1000050c:	000b883a 	mov	r5,zero
10000510:	01007784 	movi	r4,478
10000514:	00011800 	call	10001180 <UsbWrite>
	UsbWrite(COMM_INT_NUM,HUSB_SIE1_INIT_INT); //HUSB_SIE1_INIT_INT
10000518:	01401c84 	movi	r5,114
1000051c:	01007084 	movi	r4,450
10000520:	00011800 	call	10001180 <UsbWrite>
	IO_write(HPI_MAILBOX,COMM_EXEC_INT);
10000524:	01738054 	movui	r5,52737
10000528:	01000044 	movi	r4,1
1000052c:	00002f40 	call	100002f4 <IO_write>

	while (!(IO_read(HPI_STATUS) & 0xFFFF) )  //read sie1 msg register
10000530:	0001883a 	nop
10000534:	010000c4 	movi	r4,3
10000538:	00003700 	call	10000370 <IO_read>
1000053c:	10bfffcc 	andi	r2,r2,65535
10000540:	103ffc26 	beq	r2,zero,10000534 <__alt_data_end+0xf8000534>
	{
	}
	while (IO_read(HPI_MAILBOX) != COMM_ACK)
10000544:	00000806 	br	10000568 <main+0x184>
	{
		printf("[ERROR]:routine mailbox data is %x\n",IO_read(HPI_MAILBOX));
10000548:	01000044 	movi	r4,1
1000054c:	00003700 	call	10000370 <IO_read>
10000550:	10bfffcc 	andi	r2,r2,65535
10000554:	100b883a 	mov	r5,r2
10000558:	01040074 	movhi	r4,4097
1000055c:	21069b04 	addi	r4,r4,6764
10000560:	00023240 	call	10002324 <printf>
		goto USB_HOT_PLUG;
10000564:	003fac06 	br	10000418 <__alt_data_end+0xf8000418>
	IO_write(HPI_MAILBOX,COMM_EXEC_INT);

	while (!(IO_read(HPI_STATUS) & 0xFFFF) )  //read sie1 msg register
	{
	}
	while (IO_read(HPI_MAILBOX) != COMM_ACK)
10000568:	01000044 	movi	r4,1
1000056c:	00003700 	call	10000370 <IO_read>
10000570:	10bfffcc 	andi	r2,r2,65535
10000574:	1083fb58 	cmpnei	r2,r2,4077
10000578:	103ff31e 	bne	r2,zero,10000548 <__alt_data_end+0xf8000548>
		printf("[ERROR]:routine mailbox data is %x\n",IO_read(HPI_MAILBOX));
		goto USB_HOT_PLUG;
	}
	// STEP 1b end

	printf("STEP 1 Complete");
1000057c:	01040074 	movhi	r4,4097
10000580:	2106a404 	addi	r4,r4,6800
10000584:	00023240 	call	10002324 <printf>
	// STEP 2 begin
	UsbWrite(COMM_INT_NUM,HUSB_RESET_INT); //husb reset
10000588:	01401d04 	movi	r5,116
1000058c:	01007084 	movi	r4,450
10000590:	00011800 	call	10001180 <UsbWrite>
	UsbWrite(COMM_R0,0x003c);//reset time
10000594:	01400f04 	movi	r5,60
10000598:	01007104 	movi	r4,452
1000059c:	00011800 	call	10001180 <UsbWrite>
	UsbWrite(COMM_R1,0x0000);  //port number
100005a0:	000b883a 	mov	r5,zero
100005a4:	01007184 	movi	r4,454
100005a8:	00011800 	call	10001180 <UsbWrite>
	UsbWrite(COMM_R2,0x0000);  //r1
100005ac:	000b883a 	mov	r5,zero
100005b0:	01007204 	movi	r4,456
100005b4:	00011800 	call	10001180 <UsbWrite>
	UsbWrite(COMM_R3,0x0000);  //r1
100005b8:	000b883a 	mov	r5,zero
100005bc:	01007284 	movi	r4,458
100005c0:	00011800 	call	10001180 <UsbWrite>
	UsbWrite(COMM_R4,0x0000);  //r1
100005c4:	000b883a 	mov	r5,zero
100005c8:	01007304 	movi	r4,460
100005cc:	00011800 	call	10001180 <UsbWrite>
	UsbWrite(COMM_R5,0x0000);  //r1
100005d0:	000b883a 	mov	r5,zero
100005d4:	01007384 	movi	r4,462
100005d8:	00011800 	call	10001180 <UsbWrite>
	UsbWrite(COMM_R6,0x0000);  //r1
100005dc:	000b883a 	mov	r5,zero
100005e0:	01007404 	movi	r4,464
100005e4:	00011800 	call	10001180 <UsbWrite>
	UsbWrite(COMM_R7,0x0000);  //r1
100005e8:	000b883a 	mov	r5,zero
100005ec:	01007484 	movi	r4,466
100005f0:	00011800 	call	10001180 <UsbWrite>
	UsbWrite(COMM_R8,0x0000);  //r1
100005f4:	000b883a 	mov	r5,zero
100005f8:	01007504 	movi	r4,468
100005fc:	00011800 	call	10001180 <UsbWrite>
	UsbWrite(COMM_R9,0x0000);  //r1
10000600:	000b883a 	mov	r5,zero
10000604:	01007584 	movi	r4,470
10000608:	00011800 	call	10001180 <UsbWrite>
	UsbWrite(COMM_R10,0x0000);  //r1
1000060c:	000b883a 	mov	r5,zero
10000610:	01007604 	movi	r4,472
10000614:	00011800 	call	10001180 <UsbWrite>
	UsbWrite(COMM_R11,0x0000);  //r1
10000618:	000b883a 	mov	r5,zero
1000061c:	01007684 	movi	r4,474
10000620:	00011800 	call	10001180 <UsbWrite>
	UsbWrite(COMM_R12,0x0000);  //r1
10000624:	000b883a 	mov	r5,zero
10000628:	01007704 	movi	r4,476
1000062c:	00011800 	call	10001180 <UsbWrite>
	UsbWrite(COMM_R13,0x0000);  //r1
10000630:	000b883a 	mov	r5,zero
10000634:	01007784 	movi	r4,478
10000638:	00011800 	call	10001180 <UsbWrite>

	IO_write(HPI_MAILBOX,COMM_EXEC_INT);
1000063c:	01738054 	movui	r5,52737
10000640:	01000044 	movi	r4,1
10000644:	00002f40 	call	100002f4 <IO_write>

	while (IO_read(HPI_MAILBOX) != COMM_ACK)
10000648:	0001883a 	nop
1000064c:	01000044 	movi	r4,1
10000650:	00003700 	call	10000370 <IO_read>
10000654:	10bfffcc 	andi	r2,r2,65535
10000658:	1083fb58 	cmpnei	r2,r2,4077
1000065c:	10000826 	beq	r2,zero,10000680 <main+0x29c>
	{
		printf("[ERROR]:routine mailbox data is %x\n",IO_read(HPI_MAILBOX));
10000660:	01000044 	movi	r4,1
10000664:	00003700 	call	10000370 <IO_read>
10000668:	10bfffcc 	andi	r2,r2,65535
1000066c:	100b883a 	mov	r5,r2
10000670:	01040074 	movhi	r4,4097
10000674:	21069b04 	addi	r4,r4,6764
10000678:	00023240 	call	10002324 <printf>
		goto USB_HOT_PLUG;
1000067c:	003f6606 	br	10000418 <__alt_data_end+0xf8000418>
	}
	// STEP 2 end

	ctl_reg = USB1_CTL_REG;
10000680:	00b02284 	movi	r2,-16246
10000684:	d0a6cb0d 	sth	r2,-25812(gp)
	no_device = (A_DP_STAT | A_DM_STAT);
10000688:	008c0004 	movi	r2,12288
1000068c:	d0a6cb8d 	sth	r2,-25810(gp)
	fs_device = A_DP_STAT;
10000690:	00880004 	movi	r2,8192
10000694:	e0bffc0d 	sth	r2,-16(fp)
	usb_ctl_val = UsbRead(ctl_reg);
10000698:	d0a6cb0b 	ldhu	r2,-25812(gp)
1000069c:	10bfffcc 	andi	r2,r2,65535
100006a0:	1009883a 	mov	r4,r2
100006a4:	00011d80 	call	100011d8 <UsbRead>
100006a8:	e0bffb0d 	sth	r2,-20(fp)

	if (!(usb_ctl_val & no_device))
100006ac:	d0a6cb8b 	ldhu	r2,-25810(gp)
100006b0:	e0fffb0b 	ldhu	r3,-20(fp)
100006b4:	1884703a 	and	r2,r3,r2
100006b8:	10bfffcc 	andi	r2,r2,65535
100006bc:	1000351e 	bne	r2,zero,10000794 <main+0x3b0>
	{
		for(hot_plug_count = 0 ; hot_plug_count < 5 ; hot_plug_count++)
100006c0:	e03ffbc5 	stb	zero,-17(fp)
100006c4:	00000f06 	br	10000704 <main+0x320>
		{
			usleep(5*1000);
100006c8:	0104e204 	movi	r4,5000
100006cc:	000fa8c0 	call	1000fa8c <usleep>
			usb_ctl_val = UsbRead(ctl_reg);
100006d0:	d0a6cb0b 	ldhu	r2,-25812(gp)
100006d4:	10bfffcc 	andi	r2,r2,65535
100006d8:	1009883a 	mov	r4,r2
100006dc:	00011d80 	call	100011d8 <UsbRead>
100006e0:	e0bffb0d 	sth	r2,-20(fp)
			if(usb_ctl_val & no_device) break;
100006e4:	d0a6cb8b 	ldhu	r2,-25810(gp)
100006e8:	e0fffb0b 	ldhu	r3,-20(fp)
100006ec:	1884703a 	and	r2,r3,r2
100006f0:	10bfffcc 	andi	r2,r2,65535
100006f4:	1000071e 	bne	r2,zero,10000714 <main+0x330>
	fs_device = A_DP_STAT;
	usb_ctl_val = UsbRead(ctl_reg);

	if (!(usb_ctl_val & no_device))
	{
		for(hot_plug_count = 0 ; hot_plug_count < 5 ; hot_plug_count++)
100006f8:	e0bffbc3 	ldbu	r2,-17(fp)
100006fc:	10800044 	addi	r2,r2,1
10000700:	e0bffbc5 	stb	r2,-17(fp)
10000704:	e0bffbc3 	ldbu	r2,-17(fp)
10000708:	10800170 	cmpltui	r2,r2,5
1000070c:	103fee1e 	bne	r2,zero,100006c8 <__alt_data_end+0xf80006c8>
10000710:	00000106 	br	10000718 <main+0x334>
		{
			usleep(5*1000);
			usb_ctl_val = UsbRead(ctl_reg);
			if(usb_ctl_val & no_device) break;
10000714:	0001883a 	nop
		}
		if(!(usb_ctl_val & no_device))
10000718:	d0a6cb8b 	ldhu	r2,-25810(gp)
1000071c:	e0fffb0b 	ldhu	r3,-20(fp)
10000720:	1884703a 	and	r2,r3,r2
10000724:	10bfffcc 	andi	r2,r2,65535
10000728:	1000261e 	bne	r2,zero,100007c4 <main+0x3e0>
		{
			printf("\n[INFO]: no device is present in SIE1!\n");
1000072c:	01040074 	movhi	r4,4097
10000730:	2106a804 	addi	r4,r4,6816
10000734:	00024200 	call	10002420 <puts>
			printf("[INFO]: please insert a USB keyboard in SIE1!\n");
10000738:	01040074 	movhi	r4,4097
1000073c:	2106b204 	addi	r4,r4,6856
10000740:	00024200 	call	10002420 <puts>
			while (!(usb_ctl_val & no_device))
10000744:	00000d06 	br	1000077c <main+0x398>
			{
				usb_ctl_val = UsbRead(ctl_reg);
10000748:	d0a6cb0b 	ldhu	r2,-25812(gp)
1000074c:	10bfffcc 	andi	r2,r2,65535
10000750:	1009883a 	mov	r4,r2
10000754:	00011d80 	call	100011d8 <UsbRead>
10000758:	e0bffb0d 	sth	r2,-20(fp)
				if(usb_ctl_val & no_device)
1000075c:	d0a6cb8b 	ldhu	r2,-25810(gp)
10000760:	e0fffb0b 	ldhu	r3,-20(fp)
10000764:	1884703a 	and	r2,r3,r2
10000768:	10bfffcc 	andi	r2,r2,65535
1000076c:	10000126 	beq	r2,zero,10000774 <main+0x390>
					goto USB_HOT_PLUG;
10000770:	003f2906 	br	10000418 <__alt_data_end+0xf8000418>

				usleep(2000);
10000774:	0101f404 	movi	r4,2000
10000778:	000fa8c0 	call	1000fa8c <usleep>
		}
		if(!(usb_ctl_val & no_device))
		{
			printf("\n[INFO]: no device is present in SIE1!\n");
			printf("[INFO]: please insert a USB keyboard in SIE1!\n");
			while (!(usb_ctl_val & no_device))
1000077c:	d0a6cb8b 	ldhu	r2,-25810(gp)
10000780:	e0fffb0b 	ldhu	r3,-20(fp)
10000784:	1884703a 	and	r2,r3,r2
10000788:	10bfffcc 	andi	r2,r2,65535
1000078c:	103fee26 	beq	r2,zero,10000748 <__alt_data_end+0xf8000748>
10000790:	00000c06 	br	100007c4 <main+0x3e0>
		}
	}
	else
	{
		/* check for low speed or full speed by reading D+ and D- lines */
		if (usb_ctl_val & fs_device)
10000794:	e0fffb0b 	ldhu	r3,-20(fp)
10000798:	e0bffc0b 	ldhu	r2,-16(fp)
1000079c:	1884703a 	and	r2,r3,r2
100007a0:	10bfffcc 	andi	r2,r2,65535
100007a4:	10000426 	beq	r2,zero,100007b8 <main+0x3d4>
		{
			printf("[INFO]: full speed device\n");
100007a8:	01040074 	movhi	r4,4097
100007ac:	2106be04 	addi	r4,r4,6904
100007b0:	00024200 	call	10002420 <puts>
100007b4:	00000306 	br	100007c4 <main+0x3e0>
		}
		else
		{
			printf("[INFO]: low speed device\n");
100007b8:	01040074 	movhi	r4,4097
100007bc:	2106c504 	addi	r4,r4,6932
100007c0:	00024200 	call	10002420 <puts>



	// STEP 3 begin
	//------------------------------------------------------set address -----------------------------------------------------------------
	UsbSetAddress();
100007c4:	00012d00 	call	100012d0 <UsbSetAddress>

	while (!(IO_read(HPI_STATUS) & HPI_STATUS_SIE1msg_FLAG) )  //read sie1 msg register
100007c8:	00000306 	br	100007d8 <main+0x3f4>
	{
		UsbSetAddress();
100007cc:	00012d00 	call	100012d0 <UsbSetAddress>
		usleep(10*1000);
100007d0:	0109c404 	movi	r4,10000
100007d4:	000fa8c0 	call	1000fa8c <usleep>

	// STEP 3 begin
	//------------------------------------------------------set address -----------------------------------------------------------------
	UsbSetAddress();

	while (!(IO_read(HPI_STATUS) & HPI_STATUS_SIE1msg_FLAG) )  //read sie1 msg register
100007d8:	010000c4 	movi	r4,3
100007dc:	00003700 	call	10000370 <IO_read>
100007e0:	10bfffcc 	andi	r2,r2,65535
100007e4:	1080040c 	andi	r2,r2,16
100007e8:	103ff826 	beq	r2,zero,100007cc <__alt_data_end+0xf80007cc>
	{
		UsbSetAddress();
		usleep(10*1000);
	}

	UsbWaitTDListDone();
100007ec:	00021700 	call	10002170 <UsbWaitTDListDone>

	IO_write(HPI_ADDR,0x0506); // i
100007f0:	01414184 	movi	r5,1286
100007f4:	01000084 	movi	r4,2
100007f8:	00002f40 	call	100002f4 <IO_write>
	printf("[ENUM PROCESS]:step 3 TD Status Byte is %x\n",IO_read(HPI_DATA));
100007fc:	0009883a 	mov	r4,zero
10000800:	00003700 	call	10000370 <IO_read>
10000804:	10bfffcc 	andi	r2,r2,65535
10000808:	100b883a 	mov	r5,r2
1000080c:	01040074 	movhi	r4,4097
10000810:	2106cc04 	addi	r4,r4,6960
10000814:	00023240 	call	10002324 <printf>

	IO_write(HPI_ADDR,0x0508); // n
10000818:	01414204 	movi	r5,1288
1000081c:	01000084 	movi	r4,2
10000820:	00002f40 	call	100002f4 <IO_write>
	usb_ctl_val = IO_read(HPI_DATA);
10000824:	0009883a 	mov	r4,zero
10000828:	00003700 	call	10000370 <IO_read>
1000082c:	e0bffb0d 	sth	r2,-20(fp)
	printf("[ENUM PROCESS]:step 3 TD Control Byte is %x\n",usb_ctl_val);
10000830:	e0bffb0b 	ldhu	r2,-20(fp)
10000834:	100b883a 	mov	r5,r2
10000838:	01040074 	movhi	r4,4097
1000083c:	2106d704 	addi	r4,r4,7004
10000840:	00023240 	call	10002324 <printf>
	while (usb_ctl_val != 0x03) // retries occurred
10000844:	e0bffb0b 	ldhu	r2,-20(fp)
10000848:	108000e0 	cmpeqi	r2,r2,3
1000084c:	1000031e 	bne	r2,zero,1000085c <main+0x478>
	{
		usb_ctl_val = UsbGetRetryCnt();
10000850:	00021f40 	call	100021f4 <UsbGetRetryCnt>
10000854:	e0bffb0d 	sth	r2,-20(fp)

		goto USB_HOT_PLUG;
10000858:	003eef06 	br	10000418 <__alt_data_end+0xf8000418>
	}

	printf("------------[ENUM PROCESS]:set address done!---------------\n");
1000085c:	01040074 	movhi	r4,4097
10000860:	2106e304 	addi	r4,r4,7052
10000864:	00024200 	call	10002420 <puts>

	// STEP 4 begin
	//-------------------------------get device descriptor-1 -----------------------------------//
	// TASK: Call the appropriate function for this step.
	UsbGetDeviceDesc1(); 	// Get Device Descriptor -1
10000868:	00013d00 	call	100013d0 <UsbGetDeviceDesc1>

	//usleep(10*1000);
	while (!(IO_read(HPI_STATUS) & HPI_STATUS_SIE1msg_FLAG) )  //read sie1 msg register
1000086c:	00000306 	br	1000087c <main+0x498>
	{
		// TASK: Call the appropriate function again if it wasn't processed successfully.
		UsbGetDeviceDesc1();
10000870:	00013d00 	call	100013d0 <UsbGetDeviceDesc1>
		usleep(10*1000);
10000874:	0109c404 	movi	r4,10000
10000878:	000fa8c0 	call	1000fa8c <usleep>
	//-------------------------------get device descriptor-1 -----------------------------------//
	// TASK: Call the appropriate function for this step.
	UsbGetDeviceDesc1(); 	// Get Device Descriptor -1

	//usleep(10*1000);
	while (!(IO_read(HPI_STATUS) & HPI_STATUS_SIE1msg_FLAG) )  //read sie1 msg register
1000087c:	010000c4 	movi	r4,3
10000880:	00003700 	call	10000370 <IO_read>
10000884:	10bfffcc 	andi	r2,r2,65535
10000888:	1080040c 	andi	r2,r2,16
1000088c:	103ff826 	beq	r2,zero,10000870 <__alt_data_end+0xf8000870>
		// TASK: Call the appropriate function again if it wasn't processed successfully.
		UsbGetDeviceDesc1();
		usleep(10*1000);
	}

	UsbWaitTDListDone();
10000890:	00021700 	call	10002170 <UsbWaitTDListDone>

	IO_write(HPI_ADDR,0x0506);
10000894:	01414184 	movi	r5,1286
10000898:	01000084 	movi	r4,2
1000089c:	00002f40 	call	100002f4 <IO_write>
	printf("[ENUM PROCESS]:step 4 TD Status Byte is %x\n",IO_read(HPI_DATA));
100008a0:	0009883a 	mov	r4,zero
100008a4:	00003700 	call	10000370 <IO_read>
100008a8:	10bfffcc 	andi	r2,r2,65535
100008ac:	100b883a 	mov	r5,r2
100008b0:	01040074 	movhi	r4,4097
100008b4:	2106f204 	addi	r4,r4,7112
100008b8:	00023240 	call	10002324 <printf>

	IO_write(HPI_ADDR,0x0508);
100008bc:	01414204 	movi	r5,1288
100008c0:	01000084 	movi	r4,2
100008c4:	00002f40 	call	100002f4 <IO_write>
	usb_ctl_val = IO_read(HPI_DATA);
100008c8:	0009883a 	mov	r4,zero
100008cc:	00003700 	call	10000370 <IO_read>
100008d0:	e0bffb0d 	sth	r2,-20(fp)
	printf("[ENUM PROCESS]:step 4 TD Control Byte is %x\n",usb_ctl_val);
100008d4:	e0bffb0b 	ldhu	r2,-20(fp)
100008d8:	100b883a 	mov	r5,r2
100008dc:	01040074 	movhi	r4,4097
100008e0:	2106fd04 	addi	r4,r4,7156
100008e4:	00023240 	call	10002324 <printf>
	if (usb_ctl_val != 0x03) goto USB_HOT_PLUG;
100008e8:	e0bffb0b 	ldhu	r2,-20(fp)
100008ec:	108000e0 	cmpeqi	r2,r2,3
100008f0:	1000011e 	bne	r2,zero,100008f8 <main+0x514>
100008f4:	003ec806 	br	10000418 <__alt_data_end+0xf8000418>
//	while (usb_ctl_val != 0x03)
//	{
//		usb_ctl_val = UsbGetRetryCnt();
//	}

	printf("---------------[ENUM PROCESS]:get device descriptor-1 done!-----------------\n");
100008f8:	01040074 	movhi	r4,4097
100008fc:	21070904 	addi	r4,r4,7204
10000900:	00024200 	call	10002420 <puts>


	//--------------------------------get device descriptor-2---------------------------------------------//
	//get device descriptor
	// TASK: Call the appropriate function for this step.
	UsbGetDeviceDesc2(); 	// Get Device Descriptor -2
10000904:	00015180 	call	10001518 <UsbGetDeviceDesc2>

	//if no message
	while (!(IO_read(HPI_STATUS) & HPI_STATUS_SIE1msg_FLAG) )  //read sie1 msg register
10000908:	00000306 	br	10000918 <main+0x534>
	{
		//resend the get device descriptor
		//get device descriptor
		// TASK: Call the appropriate function again if it wasn't processed successfully.
		UsbGetDeviceDesc2();
1000090c:	00015180 	call	10001518 <UsbGetDeviceDesc2>
		usleep(10*1000);
10000910:	0109c404 	movi	r4,10000
10000914:	000fa8c0 	call	1000fa8c <usleep>
	//get device descriptor
	// TASK: Call the appropriate function for this step.
	UsbGetDeviceDesc2(); 	// Get Device Descriptor -2

	//if no message
	while (!(IO_read(HPI_STATUS) & HPI_STATUS_SIE1msg_FLAG) )  //read sie1 msg register
10000918:	010000c4 	movi	r4,3
1000091c:	00003700 	call	10000370 <IO_read>
10000920:	10bfffcc 	andi	r2,r2,65535
10000924:	1080040c 	andi	r2,r2,16
10000928:	103ff826 	beq	r2,zero,1000090c <__alt_data_end+0xf800090c>
		// TASK: Call the appropriate function again if it wasn't processed successfully.
		UsbGetDeviceDesc2();
		usleep(10*1000);
	}

	UsbWaitTDListDone();
1000092c:	00021700 	call	10002170 <UsbWaitTDListDone>

	IO_write(HPI_ADDR,0x0506);
10000930:	01414184 	movi	r5,1286
10000934:	01000084 	movi	r4,2
10000938:	00002f40 	call	100002f4 <IO_write>
	printf("[ENUM PROCESS]:step 4 TD Status Byte is %x\n",IO_read(HPI_DATA));
1000093c:	0009883a 	mov	r4,zero
10000940:	00003700 	call	10000370 <IO_read>
10000944:	10bfffcc 	andi	r2,r2,65535
10000948:	100b883a 	mov	r5,r2
1000094c:	01040074 	movhi	r4,4097
10000950:	2106f204 	addi	r4,r4,7112
10000954:	00023240 	call	10002324 <printf>

	IO_write(HPI_ADDR,0x0508);
10000958:	01414204 	movi	r5,1288
1000095c:	01000084 	movi	r4,2
10000960:	00002f40 	call	100002f4 <IO_write>
	usb_ctl_val = IO_read(HPI_DATA);
10000964:	0009883a 	mov	r4,zero
10000968:	00003700 	call	10000370 <IO_read>
1000096c:	e0bffb0d 	sth	r2,-20(fp)
	printf("[ENUM PROCESS]:step 4 TD Control Byte is %x\n",usb_ctl_val);
10000970:	e0bffb0b 	ldhu	r2,-20(fp)
10000974:	100b883a 	mov	r5,r2
10000978:	01040074 	movhi	r4,4097
1000097c:	2106fd04 	addi	r4,r4,7156
10000980:	00023240 	call	10002324 <printf>
	while (usb_ctl_val != 0x03)
10000984:	00000206 	br	10000990 <main+0x5ac>
	{
		usb_ctl_val = UsbGetRetryCnt();
10000988:	00021f40 	call	100021f4 <UsbGetRetryCnt>
1000098c:	e0bffb0d 	sth	r2,-20(fp)
	printf("[ENUM PROCESS]:step 4 TD Status Byte is %x\n",IO_read(HPI_DATA));

	IO_write(HPI_ADDR,0x0508);
	usb_ctl_val = IO_read(HPI_DATA);
	printf("[ENUM PROCESS]:step 4 TD Control Byte is %x\n",usb_ctl_val);
	while (usb_ctl_val != 0x03)
10000990:	e0bffb0b 	ldhu	r2,-20(fp)
10000994:	108000d8 	cmpnei	r2,r2,3
10000998:	103ffb1e 	bne	r2,zero,10000988 <__alt_data_end+0xf8000988>
	{
		usb_ctl_val = UsbGetRetryCnt();
	}

	printf("------------[ENUM PROCESS]:get device descriptor-2 done!--------------\n");
1000099c:	01040074 	movhi	r4,4097
100009a0:	21071d04 	addi	r4,r4,7284
100009a4:	00024200 	call	10002420 <puts>


	// STEP 5 begin
	//-----------------------------------get configuration descriptor -1 ----------------------------------//
	// TASK: Call the appropriate function for this step.
	UsbGetConfigDesc1(); 	// Get Configuration Descriptor -1
100009a8:	00016f00 	call	100016f0 <UsbGetConfigDesc1>

	//if no message
	while (!(IO_read(HPI_STATUS) & HPI_STATUS_SIE1msg_FLAG) )  //read sie1 msg register
100009ac:	00000306 	br	100009bc <main+0x5d8>
	{
		//resend the get device descriptor
		//get device descriptor

		// TASK: Call the appropriate function again if it wasn't processed successfully.
		UsbGetConfigDesc1();
100009b0:	00016f00 	call	100016f0 <UsbGetConfigDesc1>
		usleep(10*1000);
100009b4:	0109c404 	movi	r4,10000
100009b8:	000fa8c0 	call	1000fa8c <usleep>
	//-----------------------------------get configuration descriptor -1 ----------------------------------//
	// TASK: Call the appropriate function for this step.
	UsbGetConfigDesc1(); 	// Get Configuration Descriptor -1

	//if no message
	while (!(IO_read(HPI_STATUS) & HPI_STATUS_SIE1msg_FLAG) )  //read sie1 msg register
100009bc:	010000c4 	movi	r4,3
100009c0:	00003700 	call	10000370 <IO_read>
100009c4:	10bfffcc 	andi	r2,r2,65535
100009c8:	1080040c 	andi	r2,r2,16
100009cc:	103ff826 	beq	r2,zero,100009b0 <__alt_data_end+0xf80009b0>
		// TASK: Call the appropriate function again if it wasn't processed successfully.
		UsbGetConfigDesc1();
		usleep(10*1000);
	}

	UsbWaitTDListDone();
100009d0:	00021700 	call	10002170 <UsbWaitTDListDone>

	IO_write(HPI_ADDR,0x0506);
100009d4:	01414184 	movi	r5,1286
100009d8:	01000084 	movi	r4,2
100009dc:	00002f40 	call	100002f4 <IO_write>
	printf("[ENUM PROCESS]:step 5 TD Status Byte is %x\n",IO_read(HPI_DATA));
100009e0:	0009883a 	mov	r4,zero
100009e4:	00003700 	call	10000370 <IO_read>
100009e8:	10bfffcc 	andi	r2,r2,65535
100009ec:	100b883a 	mov	r5,r2
100009f0:	01040074 	movhi	r4,4097
100009f4:	21072f04 	addi	r4,r4,7356
100009f8:	00023240 	call	10002324 <printf>

	IO_write(HPI_ADDR,0x0508);
100009fc:	01414204 	movi	r5,1288
10000a00:	01000084 	movi	r4,2
10000a04:	00002f40 	call	100002f4 <IO_write>
	usb_ctl_val = IO_read(HPI_DATA);
10000a08:	0009883a 	mov	r4,zero
10000a0c:	00003700 	call	10000370 <IO_read>
10000a10:	e0bffb0d 	sth	r2,-20(fp)
	printf("[ENUM PROCESS]:step 5 TD Control Byte is %x\n",usb_ctl_val);
10000a14:	e0bffb0b 	ldhu	r2,-20(fp)
10000a18:	100b883a 	mov	r5,r2
10000a1c:	01040074 	movhi	r4,4097
10000a20:	21073a04 	addi	r4,r4,7400
10000a24:	00023240 	call	10002324 <printf>
	while (usb_ctl_val != 0x03)
10000a28:	00000206 	br	10000a34 <main+0x650>
	{
		usb_ctl_val = UsbGetRetryCnt();
10000a2c:	00021f40 	call	100021f4 <UsbGetRetryCnt>
10000a30:	e0bffb0d 	sth	r2,-20(fp)
	printf("[ENUM PROCESS]:step 5 TD Status Byte is %x\n",IO_read(HPI_DATA));

	IO_write(HPI_ADDR,0x0508);
	usb_ctl_val = IO_read(HPI_DATA);
	printf("[ENUM PROCESS]:step 5 TD Control Byte is %x\n",usb_ctl_val);
	while (usb_ctl_val != 0x03)
10000a34:	e0bffb0b 	ldhu	r2,-20(fp)
10000a38:	108000d8 	cmpnei	r2,r2,3
10000a3c:	103ffb1e 	bne	r2,zero,10000a2c <__alt_data_end+0xf8000a2c>
	{
		usb_ctl_val = UsbGetRetryCnt();
	}
	printf("------------[ENUM PROCESS]:get configuration descriptor-1 pass------------\n");
10000a40:	01040074 	movhi	r4,4097
10000a44:	21074604 	addi	r4,r4,7448
10000a48:	00024200 	call	10002420 <puts>

	// STEP 6 begin
	//-----------------------------------get configuration descriptor-2------------------------------------//
	//get device descriptor
	// TASK: Call the appropriate function for this step.
	UsbGetConfigDesc2(); 	// Get Configuration Descriptor -2
10000a4c:	00018800 	call	10001880 <UsbGetConfigDesc2>

	usleep(100*1000);
10000a50:	010000b4 	movhi	r4,2
10000a54:	2121a804 	addi	r4,r4,-31072
10000a58:	000fa8c0 	call	1000fa8c <usleep>
	//if no message
	while (!(IO_read(HPI_STATUS) & HPI_STATUS_SIE1msg_FLAG) )  //read sie1 msg register
10000a5c:	00000306 	br	10000a6c <main+0x688>
	{
		// TASK: Call the appropriate function again if it wasn't processed successfully.
		UsbGetConfigDesc2();
10000a60:	00018800 	call	10001880 <UsbGetConfigDesc2>
		usleep(10*1000);
10000a64:	0109c404 	movi	r4,10000
10000a68:	000fa8c0 	call	1000fa8c <usleep>
	// TASK: Call the appropriate function for this step.
	UsbGetConfigDesc2(); 	// Get Configuration Descriptor -2

	usleep(100*1000);
	//if no message
	while (!(IO_read(HPI_STATUS) & HPI_STATUS_SIE1msg_FLAG) )  //read sie1 msg register
10000a6c:	010000c4 	movi	r4,3
10000a70:	00003700 	call	10000370 <IO_read>
10000a74:	10bfffcc 	andi	r2,r2,65535
10000a78:	1080040c 	andi	r2,r2,16
10000a7c:	103ff826 	beq	r2,zero,10000a60 <__alt_data_end+0xf8000a60>
		// TASK: Call the appropriate function again if it wasn't processed successfully.
		UsbGetConfigDesc2();
		usleep(10*1000);
	}

	UsbWaitTDListDone();
10000a80:	00021700 	call	10002170 <UsbWaitTDListDone>

	IO_write(HPI_ADDR,0x0506);
10000a84:	01414184 	movi	r5,1286
10000a88:	01000084 	movi	r4,2
10000a8c:	00002f40 	call	100002f4 <IO_write>
	printf("[ENUM PROCESS]:step 6 TD Status Byte is %x\n",IO_read(HPI_DATA));
10000a90:	0009883a 	mov	r4,zero
10000a94:	00003700 	call	10000370 <IO_read>
10000a98:	10bfffcc 	andi	r2,r2,65535
10000a9c:	100b883a 	mov	r5,r2
10000aa0:	01040074 	movhi	r4,4097
10000aa4:	21075904 	addi	r4,r4,7524
10000aa8:	00023240 	call	10002324 <printf>

	IO_write(HPI_ADDR,0x0508);
10000aac:	01414204 	movi	r5,1288
10000ab0:	01000084 	movi	r4,2
10000ab4:	00002f40 	call	100002f4 <IO_write>
	usb_ctl_val = IO_read(HPI_DATA);
10000ab8:	0009883a 	mov	r4,zero
10000abc:	00003700 	call	10000370 <IO_read>
10000ac0:	e0bffb0d 	sth	r2,-20(fp)
	printf("[ENUM PROCESS]:step 6 TD Control Byte is %x\n",usb_ctl_val);
10000ac4:	e0bffb0b 	ldhu	r2,-20(fp)
10000ac8:	100b883a 	mov	r5,r2
10000acc:	01040074 	movhi	r4,4097
10000ad0:	21076404 	addi	r4,r4,7568
10000ad4:	00023240 	call	10002324 <printf>
	while (usb_ctl_val != 0x03)
10000ad8:	00000206 	br	10000ae4 <main+0x700>
	{
		usb_ctl_val = UsbGetRetryCnt();
10000adc:	00021f40 	call	100021f4 <UsbGetRetryCnt>
10000ae0:	e0bffb0d 	sth	r2,-20(fp)
	printf("[ENUM PROCESS]:step 6 TD Status Byte is %x\n",IO_read(HPI_DATA));

	IO_write(HPI_ADDR,0x0508);
	usb_ctl_val = IO_read(HPI_DATA);
	printf("[ENUM PROCESS]:step 6 TD Control Byte is %x\n",usb_ctl_val);
	while (usb_ctl_val != 0x03)
10000ae4:	e0bffb0b 	ldhu	r2,-20(fp)
10000ae8:	108000d8 	cmpnei	r2,r2,3
10000aec:	103ffb1e 	bne	r2,zero,10000adc <__alt_data_end+0xf8000adc>
	{
		usb_ctl_val = UsbGetRetryCnt();
	}


	printf("-----------[ENUM PROCESS]:get configuration descriptor-2 done!------------\n");
10000af0:	01040074 	movhi	r4,4097
10000af4:	21077004 	addi	r4,r4,7616
10000af8:	00024200 	call	10002420 <puts>


	// ---------------------------------get device info---------------------------------------------//

	// TASK: Write the address to read from the memory for byte 7 of the interface descriptor to HPI_ADDR.
	IO_write(HPI_ADDR,0x056c);
10000afc:	01415b04 	movi	r5,1388
10000b00:	01000084 	movi	r4,2
10000b04:	00002f40 	call	100002f4 <IO_write>
	code = IO_read(HPI_DATA);
10000b08:	0009883a 	mov	r4,zero
10000b0c:	00003700 	call	10000370 <IO_read>
10000b10:	e0bffe8d 	sth	r2,-6(fp)
	code = code & 0x003;
10000b14:	e0bffe8b 	ldhu	r2,-6(fp)
10000b18:	108000cc 	andi	r2,r2,3
10000b1c:	e0bffe8d 	sth	r2,-6(fp)
	printf("\ncode = %x\n", code);
10000b20:	e0bffe8b 	ldhu	r2,-6(fp)
10000b24:	100b883a 	mov	r5,r2
10000b28:	01040074 	movhi	r4,4097
10000b2c:	21078304 	addi	r4,r4,7692
10000b30:	00023240 	call	10002324 <printf>

	if (code == 0x01)
10000b34:	e0bffe8b 	ldhu	r2,-6(fp)
10000b38:	10800058 	cmpnei	r2,r2,1
10000b3c:	1000041e 	bne	r2,zero,10000b50 <main+0x76c>
	{
		printf("\n[INFO]:check TD rec data7 \n[INFO]:Keyboard Detected!!!\n\n");
10000b40:	01040074 	movhi	r4,4097
10000b44:	21078604 	addi	r4,r4,7704
10000b48:	00024200 	call	10002420 <puts>
10000b4c:	00000306 	br	10000b5c <main+0x778>
	}
	else
	{
		printf("\n[INFO]:Keyboard Not Detected!!! \n\n");
10000b50:	01040074 	movhi	r4,4097
10000b54:	21079504 	addi	r4,r4,7764
10000b58:	00024200 	call	10002420 <puts>
	}

	// TASK: Write the address to read from the memory for the endpoint descriptor to HPI_ADDR.

	IO_write(HPI_ADDR,0x0576);
10000b5c:	01415d84 	movi	r5,1398
10000b60:	01000084 	movi	r4,2
10000b64:	00002f40 	call	100002f4 <IO_write>
	IO_write(HPI_DATA,0x073F);
10000b68:	0141cfc4 	movi	r5,1855
10000b6c:	0009883a 	mov	r4,zero
10000b70:	00002f40 	call	100002f4 <IO_write>
	IO_write(HPI_DATA,0x8105);
10000b74:	01604154 	movui	r5,33029
10000b78:	0009883a 	mov	r4,zero
10000b7c:	00002f40 	call	100002f4 <IO_write>
	IO_write(HPI_DATA,0x0003);
10000b80:	014000c4 	movi	r5,3
10000b84:	0009883a 	mov	r4,zero
10000b88:	00002f40 	call	100002f4 <IO_write>
	IO_write(HPI_DATA,0x0008);
10000b8c:	01400204 	movi	r5,8
10000b90:	0009883a 	mov	r4,zero
10000b94:	00002f40 	call	100002f4 <IO_write>
	IO_write(HPI_DATA,0xAC0A);
10000b98:	016b0294 	movui	r5,44042
10000b9c:	0009883a 	mov	r4,zero
10000ba0:	00002f40 	call	100002f4 <IO_write>
	UsbWrite(HUSB_SIE1_pCurrentTDPtr,0x0576); //HUSB_SIE1_pCurrentTDPtr
10000ba4:	01415d84 	movi	r5,1398
10000ba8:	01006c04 	movi	r4,432
10000bac:	00011800 	call	10001180 <UsbWrite>

	//data_size = (IO_read(HPI_DATA)>>8)&0x0ff;
	//data_size = 0x08;//(IO_read(HPI_DATA))&0x0ff;
	//UsbPrintMem();
	IO_write(HPI_ADDR,0x057c);
10000bb0:	01415f04 	movi	r5,1404
10000bb4:	01000084 	movi	r4,2
10000bb8:	00002f40 	call	100002f4 <IO_write>
	data_size = (IO_read(HPI_DATA))&0x0ff;
10000bbc:	0009883a 	mov	r4,zero
10000bc0:	00003700 	call	10000370 <IO_read>
10000bc4:	e0bfff05 	stb	r2,-4(fp)
	printf("[ENUM PROCESS]:data packet size is %d\n",data_size);
10000bc8:	e0bfff03 	ldbu	r2,-4(fp)
10000bcc:	100b883a 	mov	r5,r2
10000bd0:	01040074 	movhi	r4,4097
10000bd4:	21079e04 	addi	r4,r4,7800
10000bd8:	00023240 	call	10002324 <printf>
	// STEP 7 begin
	//------------------------------------set configuration -----------------------------------------//
	// TASK: Call the appropriate function for this step.
	UsbSetConfig();		// Set Configuration
10000bdc:	0001ae80 	call	10001ae8 <UsbSetConfig>

	while (!(IO_read(HPI_STATUS) & HPI_STATUS_SIE1msg_FLAG) )  //read sie1 msg register
10000be0:	00000306 	br	10000bf0 <main+0x80c>
	{
		// TASK: Call the appropriate function again if it wasn't processed successfully.
		UsbSetConfig();		// Set Configuration
10000be4:	0001ae80 	call	10001ae8 <UsbSetConfig>
		usleep(10*1000);
10000be8:	0109c404 	movi	r4,10000
10000bec:	000fa8c0 	call	1000fa8c <usleep>
	// STEP 7 begin
	//------------------------------------set configuration -----------------------------------------//
	// TASK: Call the appropriate function for this step.
	UsbSetConfig();		// Set Configuration

	while (!(IO_read(HPI_STATUS) & HPI_STATUS_SIE1msg_FLAG) )  //read sie1 msg register
10000bf0:	010000c4 	movi	r4,3
10000bf4:	00003700 	call	10000370 <IO_read>
10000bf8:	10bfffcc 	andi	r2,r2,65535
10000bfc:	1080040c 	andi	r2,r2,16
10000c00:	103ff826 	beq	r2,zero,10000be4 <__alt_data_end+0xf8000be4>
		// TASK: Call the appropriate function again if it wasn't processed successfully.
		UsbSetConfig();		// Set Configuration
		usleep(10*1000);
	}

	UsbWaitTDListDone();
10000c04:	00021700 	call	10002170 <UsbWaitTDListDone>

	IO_write(HPI_ADDR,0x0506);
10000c08:	01414184 	movi	r5,1286
10000c0c:	01000084 	movi	r4,2
10000c10:	00002f40 	call	100002f4 <IO_write>
	printf("[ENUM PROCESS]:step 7 TD Status Byte is %x\n",IO_read(HPI_DATA));
10000c14:	0009883a 	mov	r4,zero
10000c18:	00003700 	call	10000370 <IO_read>
10000c1c:	10bfffcc 	andi	r2,r2,65535
10000c20:	100b883a 	mov	r5,r2
10000c24:	01040074 	movhi	r4,4097
10000c28:	2107a804 	addi	r4,r4,7840
10000c2c:	00023240 	call	10002324 <printf>

	IO_write(HPI_ADDR,0x0508);
10000c30:	01414204 	movi	r5,1288
10000c34:	01000084 	movi	r4,2
10000c38:	00002f40 	call	100002f4 <IO_write>
	usb_ctl_val = IO_read(HPI_DATA);
10000c3c:	0009883a 	mov	r4,zero
10000c40:	00003700 	call	10000370 <IO_read>
10000c44:	e0bffb0d 	sth	r2,-20(fp)
	printf("[ENUM PROCESS]:step 7 TD Control Byte is %x\n",usb_ctl_val);
10000c48:	e0bffb0b 	ldhu	r2,-20(fp)
10000c4c:	100b883a 	mov	r5,r2
10000c50:	01040074 	movhi	r4,4097
10000c54:	2107b304 	addi	r4,r4,7884
10000c58:	00023240 	call	10002324 <printf>
	while (usb_ctl_val != 0x03)
10000c5c:	00000206 	br	10000c68 <main+0x884>
	{
		usb_ctl_val = UsbGetRetryCnt();
10000c60:	00021f40 	call	100021f4 <UsbGetRetryCnt>
10000c64:	e0bffb0d 	sth	r2,-20(fp)
	printf("[ENUM PROCESS]:step 7 TD Status Byte is %x\n",IO_read(HPI_DATA));

	IO_write(HPI_ADDR,0x0508);
	usb_ctl_val = IO_read(HPI_DATA);
	printf("[ENUM PROCESS]:step 7 TD Control Byte is %x\n",usb_ctl_val);
	while (usb_ctl_val != 0x03)
10000c68:	e0bffb0b 	ldhu	r2,-20(fp)
10000c6c:	108000d8 	cmpnei	r2,r2,3
10000c70:	103ffb1e 	bne	r2,zero,10000c60 <__alt_data_end+0xf8000c60>
	{
		usb_ctl_val = UsbGetRetryCnt();
	}

	printf("------------[ENUM PROCESS]:set configuration done!-------------------\n");
10000c74:	01040074 	movhi	r4,4097
10000c78:	2107bf04 	addi	r4,r4,7932
10000c7c:	00024200 	call	10002420 <puts>

	//----------------------------------------------class request out ------------------------------------------//
	// TASK: Call the appropriate function for this step.
	UsbClassRequest();
10000c80:	0001be80 	call	10001be8 <UsbClassRequest>

	while (!(IO_read(HPI_STATUS) & HPI_STATUS_SIE1msg_FLAG) )  //read sie1 msg register
10000c84:	00000306 	br	10000c94 <main+0x8b0>
	{
		// TASK: Call the appropriate function again if it wasn't processed successfully.
		UsbClassRequest();
10000c88:	0001be80 	call	10001be8 <UsbClassRequest>
		usleep(10*1000);
10000c8c:	0109c404 	movi	r4,10000
10000c90:	000fa8c0 	call	1000fa8c <usleep>

	//----------------------------------------------class request out ------------------------------------------//
	// TASK: Call the appropriate function for this step.
	UsbClassRequest();

	while (!(IO_read(HPI_STATUS) & HPI_STATUS_SIE1msg_FLAG) )  //read sie1 msg register
10000c94:	010000c4 	movi	r4,3
10000c98:	00003700 	call	10000370 <IO_read>
10000c9c:	10bfffcc 	andi	r2,r2,65535
10000ca0:	1080040c 	andi	r2,r2,16
10000ca4:	103ff826 	beq	r2,zero,10000c88 <__alt_data_end+0xf8000c88>
		// TASK: Call the appropriate function again if it wasn't processed successfully.
		UsbClassRequest();
		usleep(10*1000);
	}

	UsbWaitTDListDone();
10000ca8:	00021700 	call	10002170 <UsbWaitTDListDone>

	IO_write(HPI_ADDR,0x0506);
10000cac:	01414184 	movi	r5,1286
10000cb0:	01000084 	movi	r4,2
10000cb4:	00002f40 	call	100002f4 <IO_write>
	printf("[ENUM PROCESS]:step 8 TD Status Byte is %x\n",IO_read(HPI_DATA));
10000cb8:	0009883a 	mov	r4,zero
10000cbc:	00003700 	call	10000370 <IO_read>
10000cc0:	10bfffcc 	andi	r2,r2,65535
10000cc4:	100b883a 	mov	r5,r2
10000cc8:	01040074 	movhi	r4,4097
10000ccc:	2107d104 	addi	r4,r4,8004
10000cd0:	00023240 	call	10002324 <printf>

	IO_write(HPI_ADDR,0x0508);
10000cd4:	01414204 	movi	r5,1288
10000cd8:	01000084 	movi	r4,2
10000cdc:	00002f40 	call	100002f4 <IO_write>
	usb_ctl_val = IO_read(HPI_DATA);
10000ce0:	0009883a 	mov	r4,zero
10000ce4:	00003700 	call	10000370 <IO_read>
10000ce8:	e0bffb0d 	sth	r2,-20(fp)
	printf("[ENUM PROCESS]:step 8 TD Control Byte is %x\n",usb_ctl_val);
10000cec:	e0bffb0b 	ldhu	r2,-20(fp)
10000cf0:	100b883a 	mov	r5,r2
10000cf4:	01040074 	movhi	r4,4097
10000cf8:	2107dc04 	addi	r4,r4,8048
10000cfc:	00023240 	call	10002324 <printf>
	while (usb_ctl_val != 0x03)
10000d00:	00000206 	br	10000d0c <main+0x928>
	{
		usb_ctl_val = UsbGetRetryCnt();
10000d04:	00021f40 	call	100021f4 <UsbGetRetryCnt>
10000d08:	e0bffb0d 	sth	r2,-20(fp)
	printf("[ENUM PROCESS]:step 8 TD Status Byte is %x\n",IO_read(HPI_DATA));

	IO_write(HPI_ADDR,0x0508);
	usb_ctl_val = IO_read(HPI_DATA);
	printf("[ENUM PROCESS]:step 8 TD Control Byte is %x\n",usb_ctl_val);
	while (usb_ctl_val != 0x03)
10000d0c:	e0bffb0b 	ldhu	r2,-20(fp)
10000d10:	108000d8 	cmpnei	r2,r2,3
10000d14:	103ffb1e 	bne	r2,zero,10000d04 <__alt_data_end+0xf8000d04>
	{
		usb_ctl_val = UsbGetRetryCnt();
	}


	printf("------------[ENUM PROCESS]:class request out done!-------------------\n");
10000d18:	01040074 	movhi	r4,4097
10000d1c:	2107e804 	addi	r4,r4,8096
10000d20:	00024200 	call	10002420 <puts>

	// STEP 8 begin
	//----------------------------------get descriptor(class 0x21 = HID) request out --------------------------------//
	// TASK: Call the appropriate function for this step.
	UsbGetHidDesc();
10000d24:	0001ce80 	call	10001ce8 <UsbGetHidDesc>

	while (!(IO_read(HPI_STATUS) & HPI_STATUS_SIE1msg_FLAG) )  //read sie1 msg register
10000d28:	00000306 	br	10000d38 <main+0x954>
	{
		// TASK: Call the appropriate function again if it wasn't processed successfully.
		UsbGetHidDesc();
10000d2c:	0001ce80 	call	10001ce8 <UsbGetHidDesc>
		usleep(10*1000);
10000d30:	0109c404 	movi	r4,10000
10000d34:	000fa8c0 	call	1000fa8c <usleep>
	// STEP 8 begin
	//----------------------------------get descriptor(class 0x21 = HID) request out --------------------------------//
	// TASK: Call the appropriate function for this step.
	UsbGetHidDesc();

	while (!(IO_read(HPI_STATUS) & HPI_STATUS_SIE1msg_FLAG) )  //read sie1 msg register
10000d38:	010000c4 	movi	r4,3
10000d3c:	00003700 	call	10000370 <IO_read>
10000d40:	10bfffcc 	andi	r2,r2,65535
10000d44:	1080040c 	andi	r2,r2,16
10000d48:	103ff826 	beq	r2,zero,10000d2c <__alt_data_end+0xf8000d2c>
		// TASK: Call the appropriate function again if it wasn't processed successfully.
		UsbGetHidDesc();
		usleep(10*1000);
	}

	UsbWaitTDListDone();
10000d4c:	00021700 	call	10002170 <UsbWaitTDListDone>

	IO_write(HPI_ADDR,0x0506);
10000d50:	01414184 	movi	r5,1286
10000d54:	01000084 	movi	r4,2
10000d58:	00002f40 	call	100002f4 <IO_write>
	printf("[ENUM PROCESS]:step 8 TD Status Byte is %x\n",IO_read(HPI_DATA));
10000d5c:	0009883a 	mov	r4,zero
10000d60:	00003700 	call	10000370 <IO_read>
10000d64:	10bfffcc 	andi	r2,r2,65535
10000d68:	100b883a 	mov	r5,r2
10000d6c:	01040074 	movhi	r4,4097
10000d70:	2107d104 	addi	r4,r4,8004
10000d74:	00023240 	call	10002324 <printf>

	IO_write(HPI_ADDR,0x0508);
10000d78:	01414204 	movi	r5,1288
10000d7c:	01000084 	movi	r4,2
10000d80:	00002f40 	call	100002f4 <IO_write>
	usb_ctl_val = IO_read(HPI_DATA);
10000d84:	0009883a 	mov	r4,zero
10000d88:	00003700 	call	10000370 <IO_read>
10000d8c:	e0bffb0d 	sth	r2,-20(fp)
	printf("[ENUM PROCESS]:step 8 TD Control Byte is %x\n",usb_ctl_val);
10000d90:	e0bffb0b 	ldhu	r2,-20(fp)
10000d94:	100b883a 	mov	r5,r2
10000d98:	01040074 	movhi	r4,4097
10000d9c:	2107dc04 	addi	r4,r4,8048
10000da0:	00023240 	call	10002324 <printf>
	while (usb_ctl_val != 0x03)
10000da4:	00000206 	br	10000db0 <main+0x9cc>
	{
		usb_ctl_val = UsbGetRetryCnt();
10000da8:	00021f40 	call	100021f4 <UsbGetRetryCnt>
10000dac:	e0bffb0d 	sth	r2,-20(fp)
	printf("[ENUM PROCESS]:step 8 TD Status Byte is %x\n",IO_read(HPI_DATA));

	IO_write(HPI_ADDR,0x0508);
	usb_ctl_val = IO_read(HPI_DATA);
	printf("[ENUM PROCESS]:step 8 TD Control Byte is %x\n",usb_ctl_val);
	while (usb_ctl_val != 0x03)
10000db0:	e0bffb0b 	ldhu	r2,-20(fp)
10000db4:	108000d8 	cmpnei	r2,r2,3
10000db8:	103ffb1e 	bne	r2,zero,10000da8 <__alt_data_end+0xf8000da8>
	{
		usb_ctl_val = UsbGetRetryCnt();
	}

	printf("------------[ENUM PROCESS]:get descriptor (class 0x21) done!-------------------\n");
10000dbc:	01040074 	movhi	r4,4097
10000dc0:	2107fa04 	addi	r4,r4,8168
10000dc4:	00024200 	call	10002420 <puts>

	// STEP 9 begin
	//-------------------------------get descriptor (class 0x22 = report)-------------------------------------------//
	// TASK: Call the appropriate function for this step.
	UsbGetReportDesc();
10000dc8:	0001e300 	call	10001e30 <UsbGetReportDesc>
	//if no message
	while (!(IO_read(HPI_STATUS) & HPI_STATUS_SIE1msg_FLAG) )  //read sie1 msg register
10000dcc:	00000306 	br	10000ddc <main+0x9f8>
	{
		// TASK: Call the appropriate function again if it wasn't processed successfully.
		UsbGetReportDesc();
10000dd0:	0001e300 	call	10001e30 <UsbGetReportDesc>
		usleep(10*1000);
10000dd4:	0109c404 	movi	r4,10000
10000dd8:	000fa8c0 	call	1000fa8c <usleep>
	// STEP 9 begin
	//-------------------------------get descriptor (class 0x22 = report)-------------------------------------------//
	// TASK: Call the appropriate function for this step.
	UsbGetReportDesc();
	//if no message
	while (!(IO_read(HPI_STATUS) & HPI_STATUS_SIE1msg_FLAG) )  //read sie1 msg register
10000ddc:	010000c4 	movi	r4,3
10000de0:	00003700 	call	10000370 <IO_read>
10000de4:	10bfffcc 	andi	r2,r2,65535
10000de8:	1080040c 	andi	r2,r2,16
10000dec:	103ff826 	beq	r2,zero,10000dd0 <__alt_data_end+0xf8000dd0>
		// TASK: Call the appropriate function again if it wasn't processed successfully.
		UsbGetReportDesc();
		usleep(10*1000);
	}

	UsbWaitTDListDone();
10000df0:	00021700 	call	10002170 <UsbWaitTDListDone>

	IO_write(HPI_ADDR,0x0506);
10000df4:	01414184 	movi	r5,1286
10000df8:	01000084 	movi	r4,2
10000dfc:	00002f40 	call	100002f4 <IO_write>
	printf("[ENUM PROCESS]: step 9 TD Status Byte is %x\n",IO_read(HPI_DATA));
10000e00:	0009883a 	mov	r4,zero
10000e04:	00003700 	call	10000370 <IO_read>
10000e08:	10bfffcc 	andi	r2,r2,65535
10000e0c:	100b883a 	mov	r5,r2
10000e10:	01040074 	movhi	r4,4097
10000e14:	21080e04 	addi	r4,r4,8248
10000e18:	00023240 	call	10002324 <printf>

	IO_write(HPI_ADDR,0x0508);
10000e1c:	01414204 	movi	r5,1288
10000e20:	01000084 	movi	r4,2
10000e24:	00002f40 	call	100002f4 <IO_write>
	usb_ctl_val = IO_read(HPI_DATA);
10000e28:	0009883a 	mov	r4,zero
10000e2c:	00003700 	call	10000370 <IO_read>
10000e30:	e0bffb0d 	sth	r2,-20(fp)
	printf("[ENUM PROCESS]: step 9 TD Control Byte is %x\n",usb_ctl_val);
10000e34:	e0bffb0b 	ldhu	r2,-20(fp)
10000e38:	100b883a 	mov	r5,r2
10000e3c:	01040074 	movhi	r4,4097
10000e40:	21081a04 	addi	r4,r4,8296
10000e44:	00023240 	call	10002324 <printf>
	while (usb_ctl_val != 0x03)
10000e48:	00000206 	br	10000e54 <main+0xa70>
	{
		usb_ctl_val = UsbGetRetryCnt();
10000e4c:	00021f40 	call	100021f4 <UsbGetRetryCnt>
10000e50:	e0bffb0d 	sth	r2,-20(fp)
	printf("[ENUM PROCESS]: step 9 TD Status Byte is %x\n",IO_read(HPI_DATA));

	IO_write(HPI_ADDR,0x0508);
	usb_ctl_val = IO_read(HPI_DATA);
	printf("[ENUM PROCESS]: step 9 TD Control Byte is %x\n",usb_ctl_val);
	while (usb_ctl_val != 0x03)
10000e54:	e0bffb0b 	ldhu	r2,-20(fp)
10000e58:	108000d8 	cmpnei	r2,r2,3
10000e5c:	103ffb1e 	bne	r2,zero,10000e4c <__alt_data_end+0xf8000e4c>
	{
		usb_ctl_val = UsbGetRetryCnt();
	}

	printf("---------------[ENUM PROCESS]:get descriptor (class 0x22) done!----------------\n");
10000e60:	01040074 	movhi	r4,4097
10000e64:	21082604 	addi	r4,r4,8344
10000e68:	00024200 	call	10002420 <puts>
	printf("------------------------ Start reading keycode value --------------------------\n");
10000e6c:	01040074 	movhi	r4,4097
10000e70:	21083a04 	addi	r4,r4,8424
10000e74:	00024200 	call	10002420 <puts>



	//-----------------------------------get keycode value------------------------------------------------//
	usleep(10000);
10000e78:	0109c404 	movi	r4,10000
10000e7c:	000fa8c0 	call	1000fa8c <usleep>
	while(1)
	{
		toggle++;
10000e80:	e0bffb83 	ldbu	r2,-18(fp)
10000e84:	10800044 	addi	r2,r2,1
10000e88:	e0bffb85 	stb	r2,-18(fp)
		IO_write(HPI_ADDR,0x0500); //the start address
10000e8c:	01414004 	movi	r5,1280
10000e90:	01000084 	movi	r4,2
10000e94:	00002f40 	call	100002f4 <IO_write>
		//data phase IN-1
		IO_write(HPI_DATA,0x051c); //500
10000e98:	01414704 	movi	r5,1308
10000e9c:	0009883a 	mov	r4,zero
10000ea0:	00002f40 	call	100002f4 <IO_write>

		IO_write(HPI_DATA,0x000f & data_size);//2 data length
10000ea4:	e0bfff03 	ldbu	r2,-4(fp)
10000ea8:	108003cc 	andi	r2,r2,15
10000eac:	100b883a 	mov	r5,r2
10000eb0:	0009883a 	mov	r4,zero
10000eb4:	00002f40 	call	100002f4 <IO_write>

		IO_write(HPI_DATA,0x0291);//4 //endpoint 1
10000eb8:	0140a444 	movi	r5,657
10000ebc:	0009883a 	mov	r4,zero
10000ec0:	00002f40 	call	100002f4 <IO_write>
		if(toggle%2)
10000ec4:	e0bffb83 	ldbu	r2,-18(fp)
10000ec8:	1080004c 	andi	r2,r2,1
10000ecc:	10803fcc 	andi	r2,r2,255
10000ed0:	10000426 	beq	r2,zero,10000ee4 <main+0xb00>
		{
			IO_write(HPI_DATA,0x0001);//6 //data 1
10000ed4:	01400044 	movi	r5,1
10000ed8:	0009883a 	mov	r4,zero
10000edc:	00002f40 	call	100002f4 <IO_write>
10000ee0:	00000306 	br	10000ef0 <main+0xb0c>
		}
		else
		{
			IO_write(HPI_DATA,0x0041);//6 //data 1
10000ee4:	01401044 	movi	r5,65
10000ee8:	0009883a 	mov	r4,zero
10000eec:	00002f40 	call	100002f4 <IO_write>
		}
		IO_write(HPI_DATA,0x0013);//8
10000ef0:	014004c4 	movi	r5,19
10000ef4:	0009883a 	mov	r4,zero
10000ef8:	00002f40 	call	100002f4 <IO_write>
		IO_write(HPI_DATA,0x0000);//a
10000efc:	000b883a 	mov	r5,zero
10000f00:	0009883a 	mov	r4,zero
10000f04:	00002f40 	call	100002f4 <IO_write>
		UsbWrite(HUSB_SIE1_pCurrentTDPtr,0x0500); //HUSB_SIE1_pCurrentTDPtr
10000f08:	01414004 	movi	r5,1280
10000f0c:	01006c04 	movi	r4,432
10000f10:	00011800 	call	10001180 <UsbWrite>

		while (!(IO_read(HPI_STATUS) & HPI_STATUS_SIE1msg_FLAG) )  //read sie1 msg register
10000f14:	00002406 	br	10000fa8 <main+0xbc4>
		{
			IO_write(HPI_ADDR,0x0500); //the start address
10000f18:	01414004 	movi	r5,1280
10000f1c:	01000084 	movi	r4,2
10000f20:	00002f40 	call	100002f4 <IO_write>
			//data phase IN-1
			IO_write(HPI_DATA,0x051c); //500
10000f24:	01414704 	movi	r5,1308
10000f28:	0009883a 	mov	r4,zero
10000f2c:	00002f40 	call	100002f4 <IO_write>

			IO_write(HPI_DATA,0x000f & data_size);//2 data length
10000f30:	e0bfff03 	ldbu	r2,-4(fp)
10000f34:	108003cc 	andi	r2,r2,15
10000f38:	100b883a 	mov	r5,r2
10000f3c:	0009883a 	mov	r4,zero
10000f40:	00002f40 	call	100002f4 <IO_write>

			IO_write(HPI_DATA,0x0291);//4 //endpoint 1
10000f44:	0140a444 	movi	r5,657
10000f48:	0009883a 	mov	r4,zero
10000f4c:	00002f40 	call	100002f4 <IO_write>
			if(toggle%2)
10000f50:	e0bffb83 	ldbu	r2,-18(fp)
10000f54:	1080004c 	andi	r2,r2,1
10000f58:	10803fcc 	andi	r2,r2,255
10000f5c:	10000426 	beq	r2,zero,10000f70 <main+0xb8c>
			{
				IO_write(HPI_DATA,0x0001);//6 //data 1
10000f60:	01400044 	movi	r5,1
10000f64:	0009883a 	mov	r4,zero
10000f68:	00002f40 	call	100002f4 <IO_write>
10000f6c:	00000306 	br	10000f7c <main+0xb98>
			}
			else
			{
				IO_write(HPI_DATA,0x0041);//6 //data 1
10000f70:	01401044 	movi	r5,65
10000f74:	0009883a 	mov	r4,zero
10000f78:	00002f40 	call	100002f4 <IO_write>
			}
			IO_write(HPI_DATA,0x0013);//8
10000f7c:	014004c4 	movi	r5,19
10000f80:	0009883a 	mov	r4,zero
10000f84:	00002f40 	call	100002f4 <IO_write>
			IO_write(HPI_DATA,0x0000);//
10000f88:	000b883a 	mov	r5,zero
10000f8c:	0009883a 	mov	r4,zero
10000f90:	00002f40 	call	100002f4 <IO_write>
			UsbWrite(HUSB_SIE1_pCurrentTDPtr,0x0500); //HUSB_SIE1_pCurrentTDPtr
10000f94:	01414004 	movi	r5,1280
10000f98:	01006c04 	movi	r4,432
10000f9c:	00011800 	call	10001180 <UsbWrite>
			usleep(10*1000);
10000fa0:	0109c404 	movi	r4,10000
10000fa4:	000fa8c0 	call	1000fa8c <usleep>
		}
		IO_write(HPI_DATA,0x0013);//8
		IO_write(HPI_DATA,0x0000);//a
		UsbWrite(HUSB_SIE1_pCurrentTDPtr,0x0500); //HUSB_SIE1_pCurrentTDPtr

		while (!(IO_read(HPI_STATUS) & HPI_STATUS_SIE1msg_FLAG) )  //read sie1 msg register
10000fa8:	010000c4 	movi	r4,3
10000fac:	00003700 	call	10000370 <IO_read>
10000fb0:	10bfffcc 	andi	r2,r2,65535
10000fb4:	1080040c 	andi	r2,r2,16
10000fb8:	103fd726 	beq	r2,zero,10000f18 <__alt_data_end+0xf8000f18>
			IO_write(HPI_DATA,0x0000);//
			UsbWrite(HUSB_SIE1_pCurrentTDPtr,0x0500); //HUSB_SIE1_pCurrentTDPtr
			usleep(10*1000);
		}//end while

		usb_ctl_val = UsbWaitTDListDone();
10000fbc:	00021700 	call	10002170 <UsbWaitTDListDone>
10000fc0:	e0bffb0d 	sth	r2,-20(fp)

		// The first two keycodes are stored in 0x051E. Other keycodes are in
		// subsequent addresses.
		keycode0 = UsbRead(0x051e);
10000fc4:	01014784 	movi	r4,1310
10000fc8:	00011d80 	call	100011d8 <UsbRead>
10000fcc:	e0bffc8d 	sth	r2,-14(fp)
		keycode1 = UsbRead(0x0520);
10000fd0:	01014804 	movi	r4,1312
10000fd4:	00011d80 	call	100011d8 <UsbRead>
10000fd8:	e0bffd0d 	sth	r2,-12(fp)
		keycode2 = UsbRead(0x0522);
10000fdc:	01014884 	movi	r4,1314
10000fe0:	00011d80 	call	100011d8 <UsbRead>
10000fe4:	e0bffd8d 	sth	r2,-10(fp)
//		printf("\nfirst 6 values are %04x, %04x, %04x\n",keycode0, keycode1, keycode2);
		// We only need the first keycode, which is at the lower byte of keycode.
		// Send the keycode to hardware via PIO.

		// A = 4; D = 7; W = 26; S = 22
		*keyA = keycode0 & 0xff;
10000fe8:	008c1804 	movi	r2,12384
10000fec:	e0fffc8b 	ldhu	r3,-14(fp)
10000ff0:	10c00005 	stb	r3,0(r2)
		*keyB = keycode0 >> 8;
10000ff4:	008c1404 	movi	r2,12368
10000ff8:	e0fffc8b 	ldhu	r3,-14(fp)
10000ffc:	1806d23a 	srli	r3,r3,8
10001000:	10c00005 	stb	r3,0(r2)
		*keyC = keycode1 & 0xff;
10001004:	008c1004 	movi	r2,12352
10001008:	e0fffd0b 	ldhu	r3,-12(fp)
1000100c:	10c00005 	stb	r3,0(r2)
		*keyD = keycode1 >> 8;
10001010:	008c0c04 	movi	r2,12336
10001014:	e0fffd0b 	ldhu	r3,-12(fp)
10001018:	1806d23a 	srli	r3,r3,8
1000101c:	10c00005 	stb	r3,0(r2)
		*keyE = keycode2 & 0xff;
10001020:	008c0804 	movi	r2,12320
10001024:	e0fffd8b 	ldhu	r3,-10(fp)
10001028:	10c00005 	stb	r3,0(r2)
		*keyF = keycode2 >> 8;
1000102c:	008c0404 	movi	r2,12304
10001030:	e0fffd8b 	ldhu	r3,-10(fp)
10001034:	1806d23a 	srli	r3,r3,8
10001038:	10c00005 	stb	r3,0(r2)

		usleep(200);//usleep(5000);
1000103c:	01003204 	movi	r4,200
10001040:	000fa8c0 	call	1000fa8c <usleep>
		usb_ctl_val = UsbRead(ctl_reg);
10001044:	d0a6cb0b 	ldhu	r2,-25812(gp)
10001048:	10bfffcc 	andi	r2,r2,65535
1000104c:	1009883a 	mov	r4,r2
10001050:	00011d80 	call	100011d8 <UsbRead>
10001054:	e0bffb0d 	sth	r2,-20(fp)

		if(!(usb_ctl_val & no_device))
10001058:	d0a6cb8b 	ldhu	r2,-25810(gp)
1000105c:	e0fffb0b 	ldhu	r3,-20(fp)
10001060:	1884703a 	and	r2,r3,r2
10001064:	10bfffcc 	andi	r2,r2,65535
10001068:	10003f1e 	bne	r2,zero,10001168 <main+0xd84>
		{
			//USB hot plug routine
			for(hot_plug_count = 0 ; hot_plug_count < 7 ; hot_plug_count++)
1000106c:	e03ffbc5 	stb	zero,-17(fp)
10001070:	00000f06 	br	100010b0 <main+0xccc>
			{
				usleep(5*1000);
10001074:	0104e204 	movi	r4,5000
10001078:	000fa8c0 	call	1000fa8c <usleep>
				usb_ctl_val = UsbRead(ctl_reg);
1000107c:	d0a6cb0b 	ldhu	r2,-25812(gp)
10001080:	10bfffcc 	andi	r2,r2,65535
10001084:	1009883a 	mov	r4,r2
10001088:	00011d80 	call	100011d8 <UsbRead>
1000108c:	e0bffb0d 	sth	r2,-20(fp)
				if(usb_ctl_val & no_device) break;
10001090:	d0a6cb8b 	ldhu	r2,-25810(gp)
10001094:	e0fffb0b 	ldhu	r3,-20(fp)
10001098:	1884703a 	and	r2,r3,r2
1000109c:	10bfffcc 	andi	r2,r2,65535
100010a0:	1000071e 	bne	r2,zero,100010c0 <main+0xcdc>
		usb_ctl_val = UsbRead(ctl_reg);

		if(!(usb_ctl_val & no_device))
		{
			//USB hot plug routine
			for(hot_plug_count = 0 ; hot_plug_count < 7 ; hot_plug_count++)
100010a4:	e0bffbc3 	ldbu	r2,-17(fp)
100010a8:	10800044 	addi	r2,r2,1
100010ac:	e0bffbc5 	stb	r2,-17(fp)
100010b0:	e0bffbc3 	ldbu	r2,-17(fp)
100010b4:	108001f0 	cmpltui	r2,r2,7
100010b8:	103fee1e 	bne	r2,zero,10001074 <__alt_data_end+0xf8001074>
100010bc:	00000106 	br	100010c4 <main+0xce0>
			{
				usleep(5*1000);
				usb_ctl_val = UsbRead(ctl_reg);
				if(usb_ctl_val & no_device) break;
100010c0:	0001883a 	nop
			}
			if(!(usb_ctl_val & no_device))
100010c4:	d0a6cb8b 	ldhu	r2,-25810(gp)
100010c8:	e0fffb0b 	ldhu	r3,-20(fp)
100010cc:	1884703a 	and	r2,r3,r2
100010d0:	10bfffcc 	andi	r2,r2,65535
100010d4:	1000241e 	bne	r2,zero,10001168 <main+0xd84>
			{
				printf("\n[INFO]: the keyboard has been removed!!! \n");
100010d8:	01040074 	movhi	r4,4097
100010dc:	21084e04 	addi	r4,r4,8504
100010e0:	00024200 	call	10002420 <puts>
				printf("[INFO]: please insert again!!! \n");
100010e4:	01040074 	movhi	r4,4097
100010e8:	21085904 	addi	r4,r4,8548
100010ec:	00024200 	call	10002420 <puts>
			}
		}

		while (!(usb_ctl_val & no_device))
100010f0:	00001d06 	br	10001168 <main+0xd84>
		{

			usb_ctl_val = UsbRead(ctl_reg);
100010f4:	d0a6cb0b 	ldhu	r2,-25812(gp)
100010f8:	10bfffcc 	andi	r2,r2,65535
100010fc:	1009883a 	mov	r4,r2
10001100:	00011d80 	call	100011d8 <UsbRead>
10001104:	e0bffb0d 	sth	r2,-20(fp)
			usleep(5*1000);
10001108:	0104e204 	movi	r4,5000
1000110c:	000fa8c0 	call	1000fa8c <usleep>
			usb_ctl_val = UsbRead(ctl_reg);
10001110:	d0a6cb0b 	ldhu	r2,-25812(gp)
10001114:	10bfffcc 	andi	r2,r2,65535
10001118:	1009883a 	mov	r4,r2
1000111c:	00011d80 	call	100011d8 <UsbRead>
10001120:	e0bffb0d 	sth	r2,-20(fp)
			usleep(5*1000);
10001124:	0104e204 	movi	r4,5000
10001128:	000fa8c0 	call	1000fa8c <usleep>
			usb_ctl_val = UsbRead(ctl_reg);
1000112c:	d0a6cb0b 	ldhu	r2,-25812(gp)
10001130:	10bfffcc 	andi	r2,r2,65535
10001134:	1009883a 	mov	r4,r2
10001138:	00011d80 	call	100011d8 <UsbRead>
1000113c:	e0bffb0d 	sth	r2,-20(fp)
			usleep(5*1000);
10001140:	0104e204 	movi	r4,5000
10001144:	000fa8c0 	call	1000fa8c <usleep>

			if(usb_ctl_val & no_device)
10001148:	d0a6cb8b 	ldhu	r2,-25810(gp)
1000114c:	e0fffb0b 	ldhu	r3,-20(fp)
10001150:	1884703a 	and	r2,r3,r2
10001154:	10bfffcc 	andi	r2,r2,65535
10001158:	10000126 	beq	r2,zero,10001160 <main+0xd7c>
				goto USB_HOT_PLUG;
1000115c:	003cae06 	br	10000418 <__alt_data_end+0xf8000418>

			usleep(200);
10001160:	01003204 	movi	r4,200
10001164:	000fa8c0 	call	1000fa8c <usleep>
				printf("\n[INFO]: the keyboard has been removed!!! \n");
				printf("[INFO]: please insert again!!! \n");
			}
		}

		while (!(usb_ctl_val & no_device))
10001168:	d0a6cb8b 	ldhu	r2,-25810(gp)
1000116c:	e0fffb0b 	ldhu	r3,-20(fp)
10001170:	1884703a 	and	r2,r3,r2
10001174:	10bfffcc 	andi	r2,r2,65535
10001178:	103fde26 	beq	r2,zero,100010f4 <__alt_data_end+0xf80010f4>
				goto USB_HOT_PLUG;

			usleep(200);
		}

	}//end while
1000117c:	003f4006 	br	10000e80 <__alt_data_end+0xf8000e80>

10001180 <UsbWrite>:
 *
 * @note     None
 *
 ******************************************************************************/
void UsbWrite(alt_u16 Address, alt_u16 Data)
{
10001180:	defffc04 	addi	sp,sp,-16
10001184:	dfc00315 	stw	ra,12(sp)
10001188:	df000215 	stw	fp,8(sp)
1000118c:	df000204 	addi	fp,sp,8
10001190:	2007883a 	mov	r3,r4
10001194:	2805883a 	mov	r2,r5
10001198:	e0fffe0d 	sth	r3,-8(fp)
1000119c:	e0bfff0d 	sth	r2,-4(fp)
//*************************************************************************//
//									TASK								   //
//*************************************************************************//
//							Write this function							   //
//*************************************************************************//
	IO_write(2,Address);
100011a0:	e0bffe0b 	ldhu	r2,-8(fp)
100011a4:	100b883a 	mov	r5,r2
100011a8:	01000084 	movi	r4,2
100011ac:	00002f40 	call	100002f4 <IO_write>
	IO_write(0,Data);
100011b0:	e0bfff0b 	ldhu	r2,-4(fp)
100011b4:	100b883a 	mov	r5,r2
100011b8:	0009883a 	mov	r4,zero
100011bc:	00002f40 	call	100002f4 <IO_write>
}
100011c0:	0001883a 	nop
100011c4:	e037883a 	mov	sp,fp
100011c8:	dfc00117 	ldw	ra,4(sp)
100011cc:	df000017 	ldw	fp,0(sp)
100011d0:	dec00204 	addi	sp,sp,8
100011d4:	f800283a 	ret

100011d8 <UsbRead>:
 *
 * @note     None
 *
 ******************************************************************************/
alt_u16 UsbRead(alt_u16 Address)
{
100011d8:	defffd04 	addi	sp,sp,-12
100011dc:	dfc00215 	stw	ra,8(sp)
100011e0:	df000115 	stw	fp,4(sp)
100011e4:	df000104 	addi	fp,sp,4
100011e8:	2005883a 	mov	r2,r4
100011ec:	e0bfff0d 	sth	r2,-4(fp)
//*************************************************************************//
//									TASK								   //
//*************************************************************************//
//							Write this function							   //
//*************************************************************************//
	IO_write(2,Address);
100011f0:	e0bfff0b 	ldhu	r2,-4(fp)
100011f4:	100b883a 	mov	r5,r2
100011f8:	01000084 	movi	r4,2
100011fc:	00002f40 	call	100002f4 <IO_write>
	return IO_read(0);
10001200:	0009883a 	mov	r4,zero
10001204:	00003700 	call	10000370 <IO_read>
}
10001208:	e037883a 	mov	sp,fp
1000120c:	dfc00117 	ldw	ra,4(sp)
10001210:	df000017 	ldw	fp,0(sp)
10001214:	dec00204 	addi	sp,sp,8
10001218:	f800283a 	ret

1000121c <UsbSoftReset>:
 *
 * @note     None
 *
 ******************************************************************************/
void UsbSoftReset()
{
1000121c:	defffe04 	addi	sp,sp,-8
10001220:	dfc00115 	stw	ra,4(sp)
10001224:	df000015 	stw	fp,0(sp)
10001228:	d839883a 	mov	fp,sp
	//XIo_Out16(USB_MAILBOX, COMM_RESET);
	IO_write(HPI_MAILBOX,COMM_RESET); //COMM_JUMP2CODE
1000122c:	017e9414 	movui	r5,64080
10001230:	01000044 	movi	r4,1
10001234:	00002f40 	call	100002f4 <IO_write>
	usleep(100000);
10001238:	010000b4 	movhi	r4,2
1000123c:	2121a804 	addi	r4,r4,-31072
10001240:	000fa8c0 	call	1000fa8c <usleep>
	printf("[USB INIT]:reset finished!\n");
10001244:	01040074 	movhi	r4,4097
10001248:	21086104 	addi	r4,r4,8580
1000124c:	00024200 	call	10002420 <puts>

	usleep(500000);
10001250:	01000234 	movhi	r4,8
10001254:	21284804 	addi	r4,r4,-24288
10001258:	000fa8c0 	call	1000fa8c <usleep>
	printf("[USB INIT]:Clear up the interrupt\r\n");
1000125c:	01040074 	movhi	r4,4097
10001260:	21086804 	addi	r4,r4,8608
10001264:	00024200 	call	10002420 <puts>
	IO_read(HPI_MAILBOX);
10001268:	01000044 	movi	r4,1
1000126c:	00003700 	call	10000370 <IO_read>
	IO_read(HPI_STATUS);
10001270:	010000c4 	movi	r4,3
10001274:	00003700 	call	10000370 <IO_read>

	// Had to add the write due to a bug in BIOS where they overwrite
	// the mailbox after initialization with garbage.  The read clears
	// any pending interrupts.
	UsbRead (HPI_SIE1_MSG_ADR);
10001278:	01005104 	movi	r4,324
1000127c:	00011d80 	call	100011d8 <UsbRead>
	UsbWrite (HPI_SIE1_MSG_ADR, 0);
10001280:	000b883a 	mov	r5,zero
10001284:	01005104 	movi	r4,324
10001288:	00011800 	call	10001180 <UsbWrite>
	UsbRead (HPI_SIE2_MSG_ADR);
1000128c:	01005204 	movi	r4,328
10001290:	00011d80 	call	100011d8 <UsbRead>
	UsbWrite (HPI_SIE2_MSG_ADR, 0);
10001294:	000b883a 	mov	r5,zero
10001298:	01005204 	movi	r4,328
1000129c:	00011800 	call	10001180 <UsbWrite>


	UsbWrite (HOST1_STAT_REG, 0xFFFF);
100012a0:	017fffd4 	movui	r5,65535
100012a4:	01302414 	movui	r4,49296
100012a8:	00011800 	call	10001180 <UsbWrite>
	UsbWrite (HOST2_STAT_REG, 0xFFFF);
100012ac:	017fffd4 	movui	r5,65535
100012b0:	01302c14 	movui	r4,49328
100012b4:	00011800 	call	10001180 <UsbWrite>
}
100012b8:	0001883a 	nop
100012bc:	e037883a 	mov	sp,fp
100012c0:	dfc00117 	ldw	ra,4(sp)
100012c4:	df000017 	ldw	fp,0(sp)
100012c8:	dec00204 	addi	sp,sp,8
100012cc:	f800283a 	ret

100012d0 <UsbSetAddress>:


void UsbSetAddress()
{
100012d0:	defffe04 	addi	sp,sp,-8
100012d4:	dfc00115 	stw	ra,4(sp)
100012d8:	df000015 	stw	fp,0(sp)
100012dc:	d839883a 	mov	fp,sp
	//the starting address
	IO_write(HPI_ADDR,0x0500); //the start address
100012e0:	01414004 	movi	r5,1280
100012e4:	01000084 	movi	r4,2
100012e8:	00002f40 	call	100002f4 <IO_write>
	// TD #1: 6 writes
	IO_write(HPI_DATA,0x050C);
100012ec:	01414304 	movi	r5,1292
100012f0:	0009883a 	mov	r4,zero
100012f4:	00002f40 	call	100002f4 <IO_write>
	IO_write(HPI_DATA,0x0008); //4 port number
100012f8:	01400204 	movi	r5,8
100012fc:	0009883a 	mov	r4,zero
10001300:	00002f40 	call	100002f4 <IO_write>
	// TASK: Complete with 4 more IOWR functions
	IO_write(HPI_DATA,0x00D0);
10001304:	01403404 	movi	r5,208
10001308:	0009883a 	mov	r4,zero
1000130c:	00002f40 	call	100002f4 <IO_write>
	IO_write(HPI_DATA,0x0001);
10001310:	01400044 	movi	r5,1
10001314:	0009883a 	mov	r4,zero
10001318:	00002f40 	call	100002f4 <IO_write>
	IO_write(HPI_DATA,0x0013);
1000131c:	014004c4 	movi	r5,19
10001320:	0009883a 	mov	r4,zero
10001324:	00002f40 	call	100002f4 <IO_write>
	IO_write(HPI_DATA,0x0514);
10001328:	01414504 	movi	r5,1300
1000132c:	0009883a 	mov	r4,zero
10001330:	00002f40 	call	100002f4 <IO_write>
	// TD #2: 4 writes
	// TASK: Complete with 4 IOWR functions
	IO_write(HPI_DATA,0x0500);
10001334:	01414004 	movi	r5,1280
10001338:	0009883a 	mov	r4,zero
1000133c:	00002f40 	call	100002f4 <IO_write>
	IO_write(HPI_DATA,0x0002);
10001340:	01400084 	movi	r5,2
10001344:	0009883a 	mov	r4,zero
10001348:	00002f40 	call	100002f4 <IO_write>
	IO_write(HPI_DATA,0x0000);
1000134c:	000b883a 	mov	r5,zero
10001350:	0009883a 	mov	r4,zero
10001354:	00002f40 	call	100002f4 <IO_write>
	IO_write(HPI_DATA,0x0000);
10001358:	000b883a 	mov	r5,zero
1000135c:	0009883a 	mov	r4,zero
10001360:	00002f40 	call	100002f4 <IO_write>
	// TD #3: 6 writes
	// TASK: Complete with 6 IOWR functions
	IO_write(HPI_DATA,0x0000); //
10001364:	000b883a 	mov	r5,zero
10001368:	0009883a 	mov	r4,zero
1000136c:	00002f40 	call	100002f4 <IO_write>
	IO_write(HPI_DATA,0x0000);//
10001370:	000b883a 	mov	r5,zero
10001374:	0009883a 	mov	r4,zero
10001378:	00002f40 	call	100002f4 <IO_write>
	IO_write(HPI_DATA,0x0090);//
1000137c:	01402404 	movi	r5,144
10001380:	0009883a 	mov	r4,zero
10001384:	00002f40 	call	100002f4 <IO_write>
	IO_write(HPI_DATA,0x0041);
10001388:	01401044 	movi	r5,65
1000138c:	0009883a 	mov	r4,zero
10001390:	00002f40 	call	100002f4 <IO_write>
	IO_write(HPI_DATA,0x0013);
10001394:	014004c4 	movi	r5,19
10001398:	0009883a 	mov	r4,zero
1000139c:	00002f40 	call	100002f4 <IO_write>
	IO_write(HPI_DATA,0x0000);
100013a0:	000b883a 	mov	r5,zero
100013a4:	0009883a 	mov	r4,zero
100013a8:	00002f40 	call	100002f4 <IO_write>

	UsbWrite(HUSB_SIE1_pCurrentTDPtr,0x0500); //HUSB_SIE1_pCurrentTDPtr
100013ac:	01414004 	movi	r5,1280
100013b0:	01006c04 	movi	r4,432
100013b4:	00011800 	call	10001180 <UsbWrite>
}
100013b8:	0001883a 	nop
100013bc:	e037883a 	mov	sp,fp
100013c0:	dfc00117 	ldw	ra,4(sp)
100013c4:	df000017 	ldw	fp,0(sp)
100013c8:	dec00204 	addi	sp,sp,8
100013cc:	f800283a 	ret

100013d0 <UsbGetDeviceDesc1>:


void UsbGetDeviceDesc1()
{
100013d0:	defffe04 	addi	sp,sp,-8
100013d4:	dfc00115 	stw	ra,4(sp)
100013d8:	df000015 	stw	fp,0(sp)
100013dc:	d839883a 	mov	fp,sp
	//the starting address
	IO_write(HPI_ADDR,0x0500); //the start address
100013e0:	01414004 	movi	r5,1280
100013e4:	01000084 	movi	r4,2
100013e8:	00002f40 	call	100002f4 <IO_write>
	IO_write(HPI_DATA,0x050C);
100013ec:	01414304 	movi	r5,1292
100013f0:	0009883a 	mov	r4,zero
100013f4:	00002f40 	call	100002f4 <IO_write>
	IO_write(HPI_DATA,0x0008); //4 port number
100013f8:	01400204 	movi	r5,8
100013fc:	0009883a 	mov	r4,zero
10001400:	00002f40 	call	100002f4 <IO_write>
	IO_write(HPI_DATA,0x02D0); //device address
10001404:	0140b404 	movi	r5,720
10001408:	0009883a 	mov	r4,zero
1000140c:	00002f40 	call	100002f4 <IO_write>
	IO_write(HPI_DATA,0x0001);
10001410:	01400044 	movi	r5,1
10001414:	0009883a 	mov	r4,zero
10001418:	00002f40 	call	100002f4 <IO_write>
	IO_write(HPI_DATA,0x0013);
1000141c:	014004c4 	movi	r5,19
10001420:	0009883a 	mov	r4,zero
10001424:	00002f40 	call	100002f4 <IO_write>
	IO_write(HPI_DATA,0x0514);
10001428:	01414504 	movi	r5,1300
1000142c:	0009883a 	mov	r4,zero
10001430:	00002f40 	call	100002f4 <IO_write>

	//td content 4 bytes
	IO_write(HPI_DATA,0x0680);//c
10001434:	0141a004 	movi	r5,1664
10001438:	0009883a 	mov	r4,zero
1000143c:	00002f40 	call	100002f4 <IO_write>
	IO_write(HPI_DATA,0x0100); //device 0x01
10001440:	01404004 	movi	r5,256
10001444:	0009883a 	mov	r4,zero
10001448:	00002f40 	call	100002f4 <IO_write>
	IO_write(HPI_DATA,0x0000);
1000144c:	000b883a 	mov	r5,zero
10001450:	0009883a 	mov	r4,zero
10001454:	00002f40 	call	100002f4 <IO_write>
	IO_write(HPI_DATA,0x0008);
10001458:	01400204 	movi	r5,8
1000145c:	0009883a 	mov	r4,zero
10001460:	00002f40 	call	100002f4 <IO_write>

	//data phase IN
	IO_write(HPI_DATA,0x052C); //
10001464:	01414b04 	movi	r5,1324
10001468:	0009883a 	mov	r4,zero
1000146c:	00002f40 	call	100002f4 <IO_write>
	IO_write(HPI_DATA,0x0008);//
10001470:	01400204 	movi	r5,8
10001474:	0009883a 	mov	r4,zero
10001478:	00002f40 	call	100002f4 <IO_write>
	IO_write(HPI_DATA,0x0290);//
1000147c:	0140a404 	movi	r5,656
10001480:	0009883a 	mov	r4,zero
10001484:	00002f40 	call	100002f4 <IO_write>
	IO_write(HPI_DATA,0x0041);
10001488:	01401044 	movi	r5,65
1000148c:	0009883a 	mov	r4,zero
10001490:	00002f40 	call	100002f4 <IO_write>
	IO_write(HPI_DATA,0x0013);
10001494:	014004c4 	movi	r5,19
10001498:	0009883a 	mov	r4,zero
1000149c:	00002f40 	call	100002f4 <IO_write>
	IO_write(HPI_DATA,0x0520);
100014a0:	01414804 	movi	r5,1312
100014a4:	0009883a 	mov	r4,zero
100014a8:	00002f40 	call	100002f4 <IO_write>

	//    //status phase
	IO_write(HPI_DATA,0x0000); //don't care
100014ac:	000b883a 	mov	r5,zero
100014b0:	0009883a 	mov	r4,zero
100014b4:	00002f40 	call	100002f4 <IO_write>
	IO_write(HPI_DATA,0x0000);//port number
100014b8:	000b883a 	mov	r5,zero
100014bc:	0009883a 	mov	r4,zero
100014c0:	00002f40 	call	100002f4 <IO_write>
	IO_write(HPI_DATA,0x0210);//device address
100014c4:	01408404 	movi	r5,528
100014c8:	0009883a 	mov	r4,zero
100014cc:	00002f40 	call	100002f4 <IO_write>
	IO_write(HPI_DATA,0x0041);
100014d0:	01401044 	movi	r5,65
100014d4:	0009883a 	mov	r4,zero
100014d8:	00002f40 	call	100002f4 <IO_write>
	IO_write(HPI_DATA,0x0013);
100014dc:	014004c4 	movi	r5,19
100014e0:	0009883a 	mov	r4,zero
100014e4:	00002f40 	call	100002f4 <IO_write>
	IO_write(HPI_DATA,0x0000);
100014e8:	000b883a 	mov	r5,zero
100014ec:	0009883a 	mov	r4,zero
100014f0:	00002f40 	call	100002f4 <IO_write>

	UsbWrite(HUSB_SIE1_pCurrentTDPtr,0x0500); //HUSB_SIE1_pCurrentTDPtr
100014f4:	01414004 	movi	r5,1280
100014f8:	01006c04 	movi	r4,432
100014fc:	00011800 	call	10001180 <UsbWrite>
}
10001500:	0001883a 	nop
10001504:	e037883a 	mov	sp,fp
10001508:	dfc00117 	ldw	ra,4(sp)
1000150c:	df000017 	ldw	fp,0(sp)
10001510:	dec00204 	addi	sp,sp,8
10001514:	f800283a 	ret

10001518 <UsbGetDeviceDesc2>:

void UsbGetDeviceDesc2()
{
10001518:	defffe04 	addi	sp,sp,-8
1000151c:	dfc00115 	stw	ra,4(sp)
10001520:	df000015 	stw	fp,0(sp)
10001524:	d839883a 	mov	fp,sp
	//the starting address
	IO_write(HPI_ADDR,0x0500); //the start address
10001528:	01414004 	movi	r5,1280
1000152c:	01000084 	movi	r4,2
10001530:	00002f40 	call	100002f4 <IO_write>
	IO_write(HPI_DATA,0x050C);
10001534:	01414304 	movi	r5,1292
10001538:	0009883a 	mov	r4,zero
1000153c:	00002f40 	call	100002f4 <IO_write>
	IO_write(HPI_DATA,0x0008); //4 port number
10001540:	01400204 	movi	r5,8
10001544:	0009883a 	mov	r4,zero
10001548:	00002f40 	call	100002f4 <IO_write>
	IO_write(HPI_DATA,0x02D0); //device address
1000154c:	0140b404 	movi	r5,720
10001550:	0009883a 	mov	r4,zero
10001554:	00002f40 	call	100002f4 <IO_write>
	IO_write(HPI_DATA,0x0001);
10001558:	01400044 	movi	r5,1
1000155c:	0009883a 	mov	r4,zero
10001560:	00002f40 	call	100002f4 <IO_write>
	IO_write(HPI_DATA,0x0013);
10001564:	014004c4 	movi	r5,19
10001568:	0009883a 	mov	r4,zero
1000156c:	00002f40 	call	100002f4 <IO_write>
	IO_write(HPI_DATA,0x0514);
10001570:	01414504 	movi	r5,1300
10001574:	0009883a 	mov	r4,zero
10001578:	00002f40 	call	100002f4 <IO_write>

	//td content 4 bytes
	IO_write(HPI_DATA,0x0680);//c
1000157c:	0141a004 	movi	r5,1664
10001580:	0009883a 	mov	r4,zero
10001584:	00002f40 	call	100002f4 <IO_write>
	IO_write(HPI_DATA,0x0100);//e //device 0x01
10001588:	01404004 	movi	r5,256
1000158c:	0009883a 	mov	r4,zero
10001590:	00002f40 	call	100002f4 <IO_write>
	IO_write(HPI_DATA,0x0000);//0
10001594:	000b883a 	mov	r5,zero
10001598:	0009883a 	mov	r4,zero
1000159c:	00002f40 	call	100002f4 <IO_write>
	IO_write(HPI_DATA,0x0012);//2
100015a0:	01400484 	movi	r5,18
100015a4:	0009883a 	mov	r4,zero
100015a8:	00002f40 	call	100002f4 <IO_write>

	//data phase IN-1
	IO_write(HPI_DATA,0x0544); //514
100015ac:	01415104 	movi	r5,1348
100015b0:	0009883a 	mov	r4,zero
100015b4:	00002f40 	call	100002f4 <IO_write>
	IO_write(HPI_DATA,0x0008);//6
100015b8:	01400204 	movi	r5,8
100015bc:	0009883a 	mov	r4,zero
100015c0:	00002f40 	call	100002f4 <IO_write>
	IO_write(HPI_DATA,0x0290);//8
100015c4:	0140a404 	movi	r5,656
100015c8:	0009883a 	mov	r4,zero
100015cc:	00002f40 	call	100002f4 <IO_write>
	IO_write(HPI_DATA,0x0041);//a
100015d0:	01401044 	movi	r5,65
100015d4:	0009883a 	mov	r4,zero
100015d8:	00002f40 	call	100002f4 <IO_write>
	IO_write(HPI_DATA,0x0013);//c
100015dc:	014004c4 	movi	r5,19
100015e0:	0009883a 	mov	r4,zero
100015e4:	00002f40 	call	100002f4 <IO_write>
	IO_write(HPI_DATA,0x0520);//e
100015e8:	01414804 	movi	r5,1312
100015ec:	0009883a 	mov	r4,zero
100015f0:	00002f40 	call	100002f4 <IO_write>

	//data phase IN-2
	IO_write(HPI_DATA,0x054c); //520
100015f4:	01415304 	movi	r5,1356
100015f8:	0009883a 	mov	r4,zero
100015fc:	00002f40 	call	100002f4 <IO_write>
	IO_write(HPI_DATA,0x0008);//2
10001600:	01400204 	movi	r5,8
10001604:	0009883a 	mov	r4,zero
10001608:	00002f40 	call	100002f4 <IO_write>
	IO_write(HPI_DATA,0x0290);//4
1000160c:	0140a404 	movi	r5,656
10001610:	0009883a 	mov	r4,zero
10001614:	00002f40 	call	100002f4 <IO_write>
	IO_write(HPI_DATA,0x0001);//6
10001618:	01400044 	movi	r5,1
1000161c:	0009883a 	mov	r4,zero
10001620:	00002f40 	call	100002f4 <IO_write>
	IO_write(HPI_DATA,0x0013);//8
10001624:	014004c4 	movi	r5,19
10001628:	0009883a 	mov	r4,zero
1000162c:	00002f40 	call	100002f4 <IO_write>
	IO_write(HPI_DATA,0x052c);//a
10001630:	01414b04 	movi	r5,1324
10001634:	0009883a 	mov	r4,zero
10001638:	00002f40 	call	100002f4 <IO_write>

	//data phase IN-3
	IO_write(HPI_DATA,0x0554); //c
1000163c:	01415504 	movi	r5,1364
10001640:	0009883a 	mov	r4,zero
10001644:	00002f40 	call	100002f4 <IO_write>
	IO_write(HPI_DATA,0x0002);//e
10001648:	01400084 	movi	r5,2
1000164c:	0009883a 	mov	r4,zero
10001650:	00002f40 	call	100002f4 <IO_write>
	IO_write(HPI_DATA,0x0290);//530
10001654:	0140a404 	movi	r5,656
10001658:	0009883a 	mov	r4,zero
1000165c:	00002f40 	call	100002f4 <IO_write>
	IO_write(HPI_DATA,0x0041);//2
10001660:	01401044 	movi	r5,65
10001664:	0009883a 	mov	r4,zero
10001668:	00002f40 	call	100002f4 <IO_write>
	IO_write(HPI_DATA,0x0013);//4
1000166c:	014004c4 	movi	r5,19
10001670:	0009883a 	mov	r4,zero
10001674:	00002f40 	call	100002f4 <IO_write>
	IO_write(HPI_DATA,0x0538);//6
10001678:	01414e04 	movi	r5,1336
1000167c:	0009883a 	mov	r4,zero
10001680:	00002f40 	call	100002f4 <IO_write>

	//status phase
	IO_write(HPI_DATA,0x0000); //538
10001684:	000b883a 	mov	r5,zero
10001688:	0009883a 	mov	r4,zero
1000168c:	00002f40 	call	100002f4 <IO_write>
	IO_write(HPI_DATA,0x0000);//a
10001690:	000b883a 	mov	r5,zero
10001694:	0009883a 	mov	r4,zero
10001698:	00002f40 	call	100002f4 <IO_write>
	IO_write(HPI_DATA,0x0210);//c
1000169c:	01408404 	movi	r5,528
100016a0:	0009883a 	mov	r4,zero
100016a4:	00002f40 	call	100002f4 <IO_write>
	IO_write(HPI_DATA,0x0041);//e
100016a8:	01401044 	movi	r5,65
100016ac:	0009883a 	mov	r4,zero
100016b0:	00002f40 	call	100002f4 <IO_write>
	IO_write(HPI_DATA,0x0013);//540
100016b4:	014004c4 	movi	r5,19
100016b8:	0009883a 	mov	r4,zero
100016bc:	00002f40 	call	100002f4 <IO_write>
	IO_write(HPI_DATA,0x0000);//2
100016c0:	000b883a 	mov	r5,zero
100016c4:	0009883a 	mov	r4,zero
100016c8:	00002f40 	call	100002f4 <IO_write>

	UsbWrite(HUSB_SIE1_pCurrentTDPtr,0x0500); //HUSB_SIE1_pCurrentTDPtr
100016cc:	01414004 	movi	r5,1280
100016d0:	01006c04 	movi	r4,432
100016d4:	00011800 	call	10001180 <UsbWrite>
}
100016d8:	0001883a 	nop
100016dc:	e037883a 	mov	sp,fp
100016e0:	dfc00117 	ldw	ra,4(sp)
100016e4:	df000017 	ldw	fp,0(sp)
100016e8:	dec00204 	addi	sp,sp,8
100016ec:	f800283a 	ret

100016f0 <UsbGetConfigDesc1>:


void UsbGetConfigDesc1()
{
100016f0:	defffe04 	addi	sp,sp,-8
100016f4:	dfc00115 	stw	ra,4(sp)
100016f8:	df000015 	stw	fp,0(sp)
100016fc:	d839883a 	mov	fp,sp
	//the starting address
	IO_write(HPI_ADDR,0x0500); //the start address
10001700:	01414004 	movi	r5,1280
10001704:	01000084 	movi	r4,2
10001708:	00002f40 	call	100002f4 <IO_write>
	IO_write(HPI_DATA,0x050C);
1000170c:	01414304 	movi	r5,1292
10001710:	0009883a 	mov	r4,zero
10001714:	00002f40 	call	100002f4 <IO_write>
	IO_write(HPI_DATA,0x0008); //4 port number
10001718:	01400204 	movi	r5,8
1000171c:	0009883a 	mov	r4,zero
10001720:	00002f40 	call	100002f4 <IO_write>
	IO_write(HPI_DATA,0x02D0); //device address
10001724:	0140b404 	movi	r5,720
10001728:	0009883a 	mov	r4,zero
1000172c:	00002f40 	call	100002f4 <IO_write>
	IO_write(HPI_DATA,0x0001);
10001730:	01400044 	movi	r5,1
10001734:	0009883a 	mov	r4,zero
10001738:	00002f40 	call	100002f4 <IO_write>
	IO_write(HPI_DATA,0x0013);
1000173c:	014004c4 	movi	r5,19
10001740:	0009883a 	mov	r4,zero
10001744:	00002f40 	call	100002f4 <IO_write>
	IO_write(HPI_DATA,0x0514);
10001748:	01414504 	movi	r5,1300
1000174c:	0009883a 	mov	r4,zero
10001750:	00002f40 	call	100002f4 <IO_write>

	//td content 4 bytes
	IO_write(HPI_DATA,0x0680);//c
10001754:	0141a004 	movi	r5,1664
10001758:	0009883a 	mov	r4,zero
1000175c:	00002f40 	call	100002f4 <IO_write>
	IO_write(HPI_DATA,0x0200);//e //config 0x02
10001760:	01408004 	movi	r5,512
10001764:	0009883a 	mov	r4,zero
10001768:	00002f40 	call	100002f4 <IO_write>
	IO_write(HPI_DATA,0x0000);//0
1000176c:	000b883a 	mov	r5,zero
10001770:	0009883a 	mov	r4,zero
10001774:	00002f40 	call	100002f4 <IO_write>
	IO_write(HPI_DATA,0x0009);//2
10001778:	01400244 	movi	r5,9
1000177c:	0009883a 	mov	r4,zero
10001780:	00002f40 	call	100002f4 <IO_write>

	//data phase IN-1
	IO_write(HPI_DATA,0x0544); //514
10001784:	01415104 	movi	r5,1348
10001788:	0009883a 	mov	r4,zero
1000178c:	00002f40 	call	100002f4 <IO_write>
	IO_write(HPI_DATA,0x0008);//6
10001790:	01400204 	movi	r5,8
10001794:	0009883a 	mov	r4,zero
10001798:	00002f40 	call	100002f4 <IO_write>
	IO_write(HPI_DATA,0x0290);//8
1000179c:	0140a404 	movi	r5,656
100017a0:	0009883a 	mov	r4,zero
100017a4:	00002f40 	call	100002f4 <IO_write>
	IO_write(HPI_DATA,0x0041);//a
100017a8:	01401044 	movi	r5,65
100017ac:	0009883a 	mov	r4,zero
100017b0:	00002f40 	call	100002f4 <IO_write>
	IO_write(HPI_DATA,0x0013);//c
100017b4:	014004c4 	movi	r5,19
100017b8:	0009883a 	mov	r4,zero
100017bc:	00002f40 	call	100002f4 <IO_write>
	IO_write(HPI_DATA,0x0520);//e
100017c0:	01414804 	movi	r5,1312
100017c4:	0009883a 	mov	r4,zero
100017c8:	00002f40 	call	100002f4 <IO_write>

	//data phase IN-2
	IO_write(HPI_DATA,0x054c); //520
100017cc:	01415304 	movi	r5,1356
100017d0:	0009883a 	mov	r4,zero
100017d4:	00002f40 	call	100002f4 <IO_write>
	IO_write(HPI_DATA,0x0001);//2
100017d8:	01400044 	movi	r5,1
100017dc:	0009883a 	mov	r4,zero
100017e0:	00002f40 	call	100002f4 <IO_write>
	IO_write(HPI_DATA,0x0290);//4
100017e4:	0140a404 	movi	r5,656
100017e8:	0009883a 	mov	r4,zero
100017ec:	00002f40 	call	100002f4 <IO_write>
	IO_write(HPI_DATA,0x0001);//6 //data0
100017f0:	01400044 	movi	r5,1
100017f4:	0009883a 	mov	r4,zero
100017f8:	00002f40 	call	100002f4 <IO_write>
	IO_write(HPI_DATA,0x0013);//8
100017fc:	014004c4 	movi	r5,19
10001800:	0009883a 	mov	r4,zero
10001804:	00002f40 	call	100002f4 <IO_write>
	IO_write(HPI_DATA,0x052c);//a
10001808:	01414b04 	movi	r5,1324
1000180c:	0009883a 	mov	r4,zero
10001810:	00002f40 	call	100002f4 <IO_write>

	//status phase
	IO_write(HPI_DATA,0x0000); //52c
10001814:	000b883a 	mov	r5,zero
10001818:	0009883a 	mov	r4,zero
1000181c:	00002f40 	call	100002f4 <IO_write>
	IO_write(HPI_DATA,0x0000);//e
10001820:	000b883a 	mov	r5,zero
10001824:	0009883a 	mov	r4,zero
10001828:	00002f40 	call	100002f4 <IO_write>
	IO_write(HPI_DATA,0x0210);//530
1000182c:	01408404 	movi	r5,528
10001830:	0009883a 	mov	r4,zero
10001834:	00002f40 	call	100002f4 <IO_write>
	IO_write(HPI_DATA,0x0041);//2
10001838:	01401044 	movi	r5,65
1000183c:	0009883a 	mov	r4,zero
10001840:	00002f40 	call	100002f4 <IO_write>
	IO_write(HPI_DATA,0x0013);//4
10001844:	014004c4 	movi	r5,19
10001848:	0009883a 	mov	r4,zero
1000184c:	00002f40 	call	100002f4 <IO_write>
	IO_write(HPI_DATA,0x0000);//6
10001850:	000b883a 	mov	r5,zero
10001854:	0009883a 	mov	r4,zero
10001858:	00002f40 	call	100002f4 <IO_write>

	UsbWrite(HUSB_SIE1_pCurrentTDPtr,0x0500); //HUSB_SIE1_pCurrentTDPtr
1000185c:	01414004 	movi	r5,1280
10001860:	01006c04 	movi	r4,432
10001864:	00011800 	call	10001180 <UsbWrite>
}
10001868:	0001883a 	nop
1000186c:	e037883a 	mov	sp,fp
10001870:	dfc00117 	ldw	ra,4(sp)
10001874:	df000017 	ldw	fp,0(sp)
10001878:	dec00204 	addi	sp,sp,8
1000187c:	f800283a 	ret

10001880 <UsbGetConfigDesc2>:


void UsbGetConfigDesc2()
{
10001880:	defffe04 	addi	sp,sp,-8
10001884:	dfc00115 	stw	ra,4(sp)
10001888:	df000015 	stw	fp,0(sp)
1000188c:	d839883a 	mov	fp,sp
	//the starting address
	IO_write(HPI_ADDR,0x0500); //the start address
10001890:	01414004 	movi	r5,1280
10001894:	01000084 	movi	r4,2
10001898:	00002f40 	call	100002f4 <IO_write>
	IO_write(HPI_DATA,0x050C);
1000189c:	01414304 	movi	r5,1292
100018a0:	0009883a 	mov	r4,zero
100018a4:	00002f40 	call	100002f4 <IO_write>
	IO_write(HPI_DATA,0x0008); //4 port number
100018a8:	01400204 	movi	r5,8
100018ac:	0009883a 	mov	r4,zero
100018b0:	00002f40 	call	100002f4 <IO_write>
	IO_write(HPI_DATA,0x02D0); //device address
100018b4:	0140b404 	movi	r5,720
100018b8:	0009883a 	mov	r4,zero
100018bc:	00002f40 	call	100002f4 <IO_write>
	IO_write(HPI_DATA,0x0001);
100018c0:	01400044 	movi	r5,1
100018c4:	0009883a 	mov	r4,zero
100018c8:	00002f40 	call	100002f4 <IO_write>
	IO_write(HPI_DATA,0x0013);
100018cc:	014004c4 	movi	r5,19
100018d0:	0009883a 	mov	r4,zero
100018d4:	00002f40 	call	100002f4 <IO_write>
	IO_write(HPI_DATA,0x0514);
100018d8:	01414504 	movi	r5,1300
100018dc:	0009883a 	mov	r4,zero
100018e0:	00002f40 	call	100002f4 <IO_write>

	//td content 4 bytes
	IO_write(HPI_DATA,0x0680);//c
100018e4:	0141a004 	movi	r5,1664
100018e8:	0009883a 	mov	r4,zero
100018ec:	00002f40 	call	100002f4 <IO_write>
	IO_write(HPI_DATA,0x0200);//e //config 0x02
100018f0:	01408004 	movi	r5,512
100018f4:	0009883a 	mov	r4,zero
100018f8:	00002f40 	call	100002f4 <IO_write>
	IO_write(HPI_DATA,0x0000);//0
100018fc:	000b883a 	mov	r5,zero
10001900:	0009883a 	mov	r4,zero
10001904:	00002f40 	call	100002f4 <IO_write>
	IO_write(HPI_DATA,0x00FF);//2
10001908:	01403fc4 	movi	r5,255
1000190c:	0009883a 	mov	r4,zero
10001910:	00002f40 	call	100002f4 <IO_write>

	//data phase IN-1
	IO_write(HPI_DATA,0x055c); //514
10001914:	01415704 	movi	r5,1372
10001918:	0009883a 	mov	r4,zero
1000191c:	00002f40 	call	100002f4 <IO_write>
	IO_write(HPI_DATA,0x0008);//6
10001920:	01400204 	movi	r5,8
10001924:	0009883a 	mov	r4,zero
10001928:	00002f40 	call	100002f4 <IO_write>
	IO_write(HPI_DATA,0x0290);//8
1000192c:	0140a404 	movi	r5,656
10001930:	0009883a 	mov	r4,zero
10001934:	00002f40 	call	100002f4 <IO_write>
	IO_write(HPI_DATA,0x0041);//a
10001938:	01401044 	movi	r5,65
1000193c:	0009883a 	mov	r4,zero
10001940:	00002f40 	call	100002f4 <IO_write>
	IO_write(HPI_DATA,0x0013);//c
10001944:	014004c4 	movi	r5,19
10001948:	0009883a 	mov	r4,zero
1000194c:	00002f40 	call	100002f4 <IO_write>
	IO_write(HPI_DATA,0x0520);//e
10001950:	01414804 	movi	r5,1312
10001954:	0009883a 	mov	r4,zero
10001958:	00002f40 	call	100002f4 <IO_write>

	//data phase IN-2
	IO_write(HPI_DATA,0x0564); //520
1000195c:	01415904 	movi	r5,1380
10001960:	0009883a 	mov	r4,zero
10001964:	00002f40 	call	100002f4 <IO_write>
	IO_write(HPI_DATA,0x0008);//2
10001968:	01400204 	movi	r5,8
1000196c:	0009883a 	mov	r4,zero
10001970:	00002f40 	call	100002f4 <IO_write>
	IO_write(HPI_DATA,0x0290);//4
10001974:	0140a404 	movi	r5,656
10001978:	0009883a 	mov	r4,zero
1000197c:	00002f40 	call	100002f4 <IO_write>
	IO_write(HPI_DATA,0x0001);//6 //data0
10001980:	01400044 	movi	r5,1
10001984:	0009883a 	mov	r4,zero
10001988:	00002f40 	call	100002f4 <IO_write>
	IO_write(HPI_DATA,0x0013);//8
1000198c:	014004c4 	movi	r5,19
10001990:	0009883a 	mov	r4,zero
10001994:	00002f40 	call	100002f4 <IO_write>
	IO_write(HPI_DATA,0x052c);//a
10001998:	01414b04 	movi	r5,1324
1000199c:	0009883a 	mov	r4,zero
100019a0:	00002f40 	call	100002f4 <IO_write>

	//data phase IN-3
	IO_write(HPI_DATA,0x056c); //52c
100019a4:	01415b04 	movi	r5,1388
100019a8:	0009883a 	mov	r4,zero
100019ac:	00002f40 	call	100002f4 <IO_write>
	IO_write(HPI_DATA,0x0008);//e
100019b0:	01400204 	movi	r5,8
100019b4:	0009883a 	mov	r4,zero
100019b8:	00002f40 	call	100002f4 <IO_write>
	IO_write(HPI_DATA,0x0290);//530
100019bc:	0140a404 	movi	r5,656
100019c0:	0009883a 	mov	r4,zero
100019c4:	00002f40 	call	100002f4 <IO_write>
	IO_write(HPI_DATA,0x0041);//2
100019c8:	01401044 	movi	r5,65
100019cc:	0009883a 	mov	r4,zero
100019d0:	00002f40 	call	100002f4 <IO_write>
	IO_write(HPI_DATA,0x0013);//4
100019d4:	014004c4 	movi	r5,19
100019d8:	0009883a 	mov	r4,zero
100019dc:	00002f40 	call	100002f4 <IO_write>
	IO_write(HPI_DATA,0x0538);//6
100019e0:	01414e04 	movi	r5,1336
100019e4:	0009883a 	mov	r4,zero
100019e8:	00002f40 	call	100002f4 <IO_write>

	//data phase IN-4
	IO_write(HPI_DATA,0x0574); //538
100019ec:	01415d04 	movi	r5,1396
100019f0:	0009883a 	mov	r4,zero
100019f4:	00002f40 	call	100002f4 <IO_write>
	IO_write(HPI_DATA,0x0008);//a
100019f8:	01400204 	movi	r5,8
100019fc:	0009883a 	mov	r4,zero
10001a00:	00002f40 	call	100002f4 <IO_write>
	IO_write(HPI_DATA,0x0290);//c
10001a04:	0140a404 	movi	r5,656
10001a08:	0009883a 	mov	r4,zero
10001a0c:	00002f40 	call	100002f4 <IO_write>
	IO_write(HPI_DATA,0x0001);//e //data0
10001a10:	01400044 	movi	r5,1
10001a14:	0009883a 	mov	r4,zero
10001a18:	00002f40 	call	100002f4 <IO_write>
	IO_write(HPI_DATA,0x0013);//540
10001a1c:	014004c4 	movi	r5,19
10001a20:	0009883a 	mov	r4,zero
10001a24:	00002f40 	call	100002f4 <IO_write>
	IO_write(HPI_DATA,0x0544);//2
10001a28:	01415104 	movi	r5,1348
10001a2c:	0009883a 	mov	r4,zero
10001a30:	00002f40 	call	100002f4 <IO_write>

	//data phase IN-5
	IO_write(HPI_DATA,0x057c); //544
10001a34:	01415f04 	movi	r5,1404
10001a38:	0009883a 	mov	r4,zero
10001a3c:	00002f40 	call	100002f4 <IO_write>
	IO_write(HPI_DATA,0x0002);//6
10001a40:	01400084 	movi	r5,2
10001a44:	0009883a 	mov	r4,zero
10001a48:	00002f40 	call	100002f4 <IO_write>
	IO_write(HPI_DATA,0x0290);//8
10001a4c:	0140a404 	movi	r5,656
10001a50:	0009883a 	mov	r4,zero
10001a54:	00002f40 	call	100002f4 <IO_write>
	IO_write(HPI_DATA,0x0041);//a //data1
10001a58:	01401044 	movi	r5,65
10001a5c:	0009883a 	mov	r4,zero
10001a60:	00002f40 	call	100002f4 <IO_write>
	IO_write(HPI_DATA,0x0013);//c
10001a64:	014004c4 	movi	r5,19
10001a68:	0009883a 	mov	r4,zero
10001a6c:	00002f40 	call	100002f4 <IO_write>
	IO_write(HPI_DATA,0x0550);//e
10001a70:	01415404 	movi	r5,1360
10001a74:	0009883a 	mov	r4,zero
10001a78:	00002f40 	call	100002f4 <IO_write>

	//status phase
	IO_write(HPI_DATA,0x0000); //550
10001a7c:	000b883a 	mov	r5,zero
10001a80:	0009883a 	mov	r4,zero
10001a84:	00002f40 	call	100002f4 <IO_write>
	IO_write(HPI_DATA,0x0000);//2
10001a88:	000b883a 	mov	r5,zero
10001a8c:	0009883a 	mov	r4,zero
10001a90:	00002f40 	call	100002f4 <IO_write>
	IO_write(HPI_DATA,0x0210);//4
10001a94:	01408404 	movi	r5,528
10001a98:	0009883a 	mov	r4,zero
10001a9c:	00002f40 	call	100002f4 <IO_write>
	IO_write(HPI_DATA,0x0041);//6
10001aa0:	01401044 	movi	r5,65
10001aa4:	0009883a 	mov	r4,zero
10001aa8:	00002f40 	call	100002f4 <IO_write>
	IO_write(HPI_DATA,0x0013);//8
10001aac:	014004c4 	movi	r5,19
10001ab0:	0009883a 	mov	r4,zero
10001ab4:	00002f40 	call	100002f4 <IO_write>
	IO_write(HPI_DATA,0x0000);//a
10001ab8:	000b883a 	mov	r5,zero
10001abc:	0009883a 	mov	r4,zero
10001ac0:	00002f40 	call	100002f4 <IO_write>

	UsbWrite(HUSB_SIE1_pCurrentTDPtr,0x0500); //HUSB_SIE1_pCurrentTDPtr
10001ac4:	01414004 	movi	r5,1280
10001ac8:	01006c04 	movi	r4,432
10001acc:	00011800 	call	10001180 <UsbWrite>
}
10001ad0:	0001883a 	nop
10001ad4:	e037883a 	mov	sp,fp
10001ad8:	dfc00117 	ldw	ra,4(sp)
10001adc:	df000017 	ldw	fp,0(sp)
10001ae0:	dec00204 	addi	sp,sp,8
10001ae4:	f800283a 	ret

10001ae8 <UsbSetConfig>:

void UsbSetConfig()
{
10001ae8:	defffe04 	addi	sp,sp,-8
10001aec:	dfc00115 	stw	ra,4(sp)
10001af0:	df000015 	stw	fp,0(sp)
10001af4:	d839883a 	mov	fp,sp
	//the starting address
	IO_write(HPI_ADDR,0x0500); //the start address
10001af8:	01414004 	movi	r5,1280
10001afc:	01000084 	movi	r4,2
10001b00:	00002f40 	call	100002f4 <IO_write>
	IO_write(HPI_DATA,0x050C);
10001b04:	01414304 	movi	r5,1292
10001b08:	0009883a 	mov	r4,zero
10001b0c:	00002f40 	call	100002f4 <IO_write>
	IO_write(HPI_DATA,0x0008); //4 port number
10001b10:	01400204 	movi	r5,8
10001b14:	0009883a 	mov	r4,zero
10001b18:	00002f40 	call	100002f4 <IO_write>
	IO_write(HPI_DATA,0x02D0); //port address
10001b1c:	0140b404 	movi	r5,720
10001b20:	0009883a 	mov	r4,zero
10001b24:	00002f40 	call	100002f4 <IO_write>
	IO_write(HPI_DATA,0x0001);
10001b28:	01400044 	movi	r5,1
10001b2c:	0009883a 	mov	r4,zero
10001b30:	00002f40 	call	100002f4 <IO_write>
	IO_write(HPI_DATA,0x0013);
10001b34:	014004c4 	movi	r5,19
10001b38:	0009883a 	mov	r4,zero
10001b3c:	00002f40 	call	100002f4 <IO_write>
	IO_write(HPI_DATA,0x0514);
10001b40:	01414504 	movi	r5,1300
10001b44:	0009883a 	mov	r4,zero
10001b48:	00002f40 	call	100002f4 <IO_write>

	//td content 4 bytes
	IO_write(HPI_DATA,0x0900);
10001b4c:	01424004 	movi	r5,2304
10001b50:	0009883a 	mov	r4,zero
10001b54:	00002f40 	call	100002f4 <IO_write>
	IO_write(HPI_DATA,0x0001);//device address
10001b58:	01400044 	movi	r5,1
10001b5c:	0009883a 	mov	r4,zero
10001b60:	00002f40 	call	100002f4 <IO_write>
	IO_write(HPI_DATA,0x0000);
10001b64:	000b883a 	mov	r5,zero
10001b68:	0009883a 	mov	r4,zero
10001b6c:	00002f40 	call	100002f4 <IO_write>
	IO_write(HPI_DATA,0x0000);
10001b70:	000b883a 	mov	r5,zero
10001b74:	0009883a 	mov	r4,zero
10001b78:	00002f40 	call	100002f4 <IO_write>
	//in packet
	IO_write(HPI_DATA,0x0000); //don't care
10001b7c:	000b883a 	mov	r5,zero
10001b80:	0009883a 	mov	r4,zero
10001b84:	00002f40 	call	100002f4 <IO_write>
	IO_write(HPI_DATA,0x0000);//port number
10001b88:	000b883a 	mov	r5,zero
10001b8c:	0009883a 	mov	r4,zero
10001b90:	00002f40 	call	100002f4 <IO_write>
	IO_write(HPI_DATA,0x0290);//device address
10001b94:	0140a404 	movi	r5,656
10001b98:	0009883a 	mov	r4,zero
10001b9c:	00002f40 	call	100002f4 <IO_write>
	IO_write(HPI_DATA,0x0041); //data 1
10001ba0:	01401044 	movi	r5,65
10001ba4:	0009883a 	mov	r4,zero
10001ba8:	00002f40 	call	100002f4 <IO_write>
	IO_write(HPI_DATA,0x0013);
10001bac:	014004c4 	movi	r5,19
10001bb0:	0009883a 	mov	r4,zero
10001bb4:	00002f40 	call	100002f4 <IO_write>
	IO_write(HPI_DATA,0x0000);
10001bb8:	000b883a 	mov	r5,zero
10001bbc:	0009883a 	mov	r4,zero
10001bc0:	00002f40 	call	100002f4 <IO_write>

	UsbWrite(HUSB_SIE1_pCurrentTDPtr,0x0500); //HUSB_SIE1_pCurrentTDPtr
10001bc4:	01414004 	movi	r5,1280
10001bc8:	01006c04 	movi	r4,432
10001bcc:	00011800 	call	10001180 <UsbWrite>

}
10001bd0:	0001883a 	nop
10001bd4:	e037883a 	mov	sp,fp
10001bd8:	dfc00117 	ldw	ra,4(sp)
10001bdc:	df000017 	ldw	fp,0(sp)
10001be0:	dec00204 	addi	sp,sp,8
10001be4:	f800283a 	ret

10001be8 <UsbClassRequest>:

void UsbClassRequest()
{
10001be8:	defffe04 	addi	sp,sp,-8
10001bec:	dfc00115 	stw	ra,4(sp)
10001bf0:	df000015 	stw	fp,0(sp)
10001bf4:	d839883a 	mov	fp,sp
	//the starting address
	IO_write(HPI_ADDR,0x0500); //the start address
10001bf8:	01414004 	movi	r5,1280
10001bfc:	01000084 	movi	r4,2
10001c00:	00002f40 	call	100002f4 <IO_write>
	IO_write(HPI_DATA,0x050C);
10001c04:	01414304 	movi	r5,1292
10001c08:	0009883a 	mov	r4,zero
10001c0c:	00002f40 	call	100002f4 <IO_write>
	IO_write(HPI_DATA,0x0008); //4 port number
10001c10:	01400204 	movi	r5,8
10001c14:	0009883a 	mov	r4,zero
10001c18:	00002f40 	call	100002f4 <IO_write>
	IO_write(HPI_DATA,0x02D0); //port address
10001c1c:	0140b404 	movi	r5,720
10001c20:	0009883a 	mov	r4,zero
10001c24:	00002f40 	call	100002f4 <IO_write>
	IO_write(HPI_DATA,0x0001);
10001c28:	01400044 	movi	r5,1
10001c2c:	0009883a 	mov	r4,zero
10001c30:	00002f40 	call	100002f4 <IO_write>
	IO_write(HPI_DATA,0x0013);
10001c34:	014004c4 	movi	r5,19
10001c38:	0009883a 	mov	r4,zero
10001c3c:	00002f40 	call	100002f4 <IO_write>
	IO_write(HPI_DATA,0x0514);
10001c40:	01414504 	movi	r5,1300
10001c44:	0009883a 	mov	r4,zero
10001c48:	00002f40 	call	100002f4 <IO_write>

	//td content 4 bytes
	IO_write(HPI_DATA,0x0A21);
10001c4c:	01428844 	movi	r5,2593
10001c50:	0009883a 	mov	r4,zero
10001c54:	00002f40 	call	100002f4 <IO_write>
	IO_write(HPI_DATA,0x0000);//device address
10001c58:	000b883a 	mov	r5,zero
10001c5c:	0009883a 	mov	r4,zero
10001c60:	00002f40 	call	100002f4 <IO_write>
	IO_write(HPI_DATA,0x0000);
10001c64:	000b883a 	mov	r5,zero
10001c68:	0009883a 	mov	r4,zero
10001c6c:	00002f40 	call	100002f4 <IO_write>
	IO_write(HPI_DATA,0x0000);
10001c70:	000b883a 	mov	r5,zero
10001c74:	0009883a 	mov	r4,zero
10001c78:	00002f40 	call	100002f4 <IO_write>
	//in packet
	IO_write(HPI_DATA,0x0000); //don't care
10001c7c:	000b883a 	mov	r5,zero
10001c80:	0009883a 	mov	r4,zero
10001c84:	00002f40 	call	100002f4 <IO_write>
	IO_write(HPI_DATA,0x0000);//port number /data length
10001c88:	000b883a 	mov	r5,zero
10001c8c:	0009883a 	mov	r4,zero
10001c90:	00002f40 	call	100002f4 <IO_write>
	IO_write(HPI_DATA,0x0290);//device address
10001c94:	0140a404 	movi	r5,656
10001c98:	0009883a 	mov	r4,zero
10001c9c:	00002f40 	call	100002f4 <IO_write>
	IO_write(HPI_DATA,0x0041); //data 1
10001ca0:	01401044 	movi	r5,65
10001ca4:	0009883a 	mov	r4,zero
10001ca8:	00002f40 	call	100002f4 <IO_write>
	IO_write(HPI_DATA,0x0013);
10001cac:	014004c4 	movi	r5,19
10001cb0:	0009883a 	mov	r4,zero
10001cb4:	00002f40 	call	100002f4 <IO_write>
	IO_write(HPI_DATA,0x0000);
10001cb8:	000b883a 	mov	r5,zero
10001cbc:	0009883a 	mov	r4,zero
10001cc0:	00002f40 	call	100002f4 <IO_write>

	UsbWrite(HUSB_SIE1_pCurrentTDPtr,0x0500); //HUSB_SIE1_pCurrentTDPtr
10001cc4:	01414004 	movi	r5,1280
10001cc8:	01006c04 	movi	r4,432
10001ccc:	00011800 	call	10001180 <UsbWrite>
}
10001cd0:	0001883a 	nop
10001cd4:	e037883a 	mov	sp,fp
10001cd8:	dfc00117 	ldw	ra,4(sp)
10001cdc:	df000017 	ldw	fp,0(sp)
10001ce0:	dec00204 	addi	sp,sp,8
10001ce4:	f800283a 	ret

10001ce8 <UsbGetHidDesc>:


void UsbGetHidDesc()
{
10001ce8:	defffe04 	addi	sp,sp,-8
10001cec:	dfc00115 	stw	ra,4(sp)
10001cf0:	df000015 	stw	fp,0(sp)
10001cf4:	d839883a 	mov	fp,sp
	//the starting address
	IO_write(HPI_ADDR,0x0500); //the start address
10001cf8:	01414004 	movi	r5,1280
10001cfc:	01000084 	movi	r4,2
10001d00:	00002f40 	call	100002f4 <IO_write>
	IO_write(HPI_DATA,0x050C);
10001d04:	01414304 	movi	r5,1292
10001d08:	0009883a 	mov	r4,zero
10001d0c:	00002f40 	call	100002f4 <IO_write>
	IO_write(HPI_DATA,0x0008); //4 port number
10001d10:	01400204 	movi	r5,8
10001d14:	0009883a 	mov	r4,zero
10001d18:	00002f40 	call	100002f4 <IO_write>
	IO_write(HPI_DATA,0x02D0); //port address
10001d1c:	0140b404 	movi	r5,720
10001d20:	0009883a 	mov	r4,zero
10001d24:	00002f40 	call	100002f4 <IO_write>
	IO_write(HPI_DATA,0x0001);
10001d28:	01400044 	movi	r5,1
10001d2c:	0009883a 	mov	r4,zero
10001d30:	00002f40 	call	100002f4 <IO_write>
	IO_write(HPI_DATA,0x0013);
10001d34:	014004c4 	movi	r5,19
10001d38:	0009883a 	mov	r4,zero
10001d3c:	00002f40 	call	100002f4 <IO_write>
	IO_write(HPI_DATA,0x0514);
10001d40:	01414504 	movi	r5,1300
10001d44:	0009883a 	mov	r4,zero
10001d48:	00002f40 	call	100002f4 <IO_write>

	//td content 4 bytes
	IO_write(HPI_DATA,0x0681);//c
10001d4c:	0141a044 	movi	r5,1665
10001d50:	0009883a 	mov	r4,zero
10001d54:	00002f40 	call	100002f4 <IO_write>
	IO_write(HPI_DATA,0x2100);//e //HID 0x21
10001d58:	01484004 	movi	r5,8448
10001d5c:	0009883a 	mov	r4,zero
10001d60:	00002f40 	call	100002f4 <IO_write>
	IO_write(HPI_DATA,0x0000);//0
10001d64:	000b883a 	mov	r5,zero
10001d68:	0009883a 	mov	r4,zero
10001d6c:	00002f40 	call	100002f4 <IO_write>
	IO_write(HPI_DATA,0x007B);//2
10001d70:	01401ec4 	movi	r5,123
10001d74:	0009883a 	mov	r4,zero
10001d78:	00002f40 	call	100002f4 <IO_write>

	//data phase IN-1
	IO_write(HPI_DATA,0x0544); //514
10001d7c:	01415104 	movi	r5,1348
10001d80:	0009883a 	mov	r4,zero
10001d84:	00002f40 	call	100002f4 <IO_write>
	IO_write(HPI_DATA,0x0008);//6
10001d88:	01400204 	movi	r5,8
10001d8c:	0009883a 	mov	r4,zero
10001d90:	00002f40 	call	100002f4 <IO_write>
	IO_write(HPI_DATA,0x0290);//8
10001d94:	0140a404 	movi	r5,656
10001d98:	0009883a 	mov	r4,zero
10001d9c:	00002f40 	call	100002f4 <IO_write>
	IO_write(HPI_DATA,0x0041);//a
10001da0:	01401044 	movi	r5,65
10001da4:	0009883a 	mov	r4,zero
10001da8:	00002f40 	call	100002f4 <IO_write>
	IO_write(HPI_DATA,0x0013);//c
10001dac:	014004c4 	movi	r5,19
10001db0:	0009883a 	mov	r4,zero
10001db4:	00002f40 	call	100002f4 <IO_write>
	IO_write(HPI_DATA,0x0520);//e
10001db8:	01414804 	movi	r5,1312
10001dbc:	0009883a 	mov	r4,zero
10001dc0:	00002f40 	call	100002f4 <IO_write>

	//status phase
	IO_write(HPI_DATA,0x0000); //52c
10001dc4:	000b883a 	mov	r5,zero
10001dc8:	0009883a 	mov	r4,zero
10001dcc:	00002f40 	call	100002f4 <IO_write>
	IO_write(HPI_DATA,0x0000);//e
10001dd0:	000b883a 	mov	r5,zero
10001dd4:	0009883a 	mov	r4,zero
10001dd8:	00002f40 	call	100002f4 <IO_write>
	IO_write(HPI_DATA,0x0210);//530
10001ddc:	01408404 	movi	r5,528
10001de0:	0009883a 	mov	r4,zero
10001de4:	00002f40 	call	100002f4 <IO_write>
	IO_write(HPI_DATA,0x0041);//2
10001de8:	01401044 	movi	r5,65
10001dec:	0009883a 	mov	r4,zero
10001df0:	00002f40 	call	100002f4 <IO_write>
	IO_write(HPI_DATA,0x0013);//4
10001df4:	014004c4 	movi	r5,19
10001df8:	0009883a 	mov	r4,zero
10001dfc:	00002f40 	call	100002f4 <IO_write>
	IO_write(HPI_DATA,0x0000);//6
10001e00:	000b883a 	mov	r5,zero
10001e04:	0009883a 	mov	r4,zero
10001e08:	00002f40 	call	100002f4 <IO_write>

	UsbWrite(HUSB_SIE1_pCurrentTDPtr,0x0500); //HUSB_SIE1_pCurrentTDPtr
10001e0c:	01414004 	movi	r5,1280
10001e10:	01006c04 	movi	r4,432
10001e14:	00011800 	call	10001180 <UsbWrite>

}
10001e18:	0001883a 	nop
10001e1c:	e037883a 	mov	sp,fp
10001e20:	dfc00117 	ldw	ra,4(sp)
10001e24:	df000017 	ldw	fp,0(sp)
10001e28:	dec00204 	addi	sp,sp,8
10001e2c:	f800283a 	ret

10001e30 <UsbGetReportDesc>:


void UsbGetReportDesc()
{
10001e30:	defffe04 	addi	sp,sp,-8
10001e34:	dfc00115 	stw	ra,4(sp)
10001e38:	df000015 	stw	fp,0(sp)
10001e3c:	d839883a 	mov	fp,sp
	//the starting address
	IO_write(HPI_ADDR,0x0500); //the start address
10001e40:	01414004 	movi	r5,1280
10001e44:	01000084 	movi	r4,2
10001e48:	00002f40 	call	100002f4 <IO_write>
	IO_write(HPI_DATA,0x050C);
10001e4c:	01414304 	movi	r5,1292
10001e50:	0009883a 	mov	r4,zero
10001e54:	00002f40 	call	100002f4 <IO_write>
	IO_write(HPI_DATA,0x0008); //4 port number
10001e58:	01400204 	movi	r5,8
10001e5c:	0009883a 	mov	r4,zero
10001e60:	00002f40 	call	100002f4 <IO_write>
	IO_write(HPI_DATA,0x02D0); //device address
10001e64:	0140b404 	movi	r5,720
10001e68:	0009883a 	mov	r4,zero
10001e6c:	00002f40 	call	100002f4 <IO_write>
	IO_write(HPI_DATA,0x0001);
10001e70:	01400044 	movi	r5,1
10001e74:	0009883a 	mov	r4,zero
10001e78:	00002f40 	call	100002f4 <IO_write>
	IO_write(HPI_DATA,0x0013);
10001e7c:	014004c4 	movi	r5,19
10001e80:	0009883a 	mov	r4,zero
10001e84:	00002f40 	call	100002f4 <IO_write>
	IO_write(HPI_DATA,0x0514);
10001e88:	01414504 	movi	r5,1300
10001e8c:	0009883a 	mov	r4,zero
10001e90:	00002f40 	call	100002f4 <IO_write>

	//td content 4 bytes
	IO_write(HPI_DATA,0x0681);//c
10001e94:	0141a044 	movi	r5,1665
10001e98:	0009883a 	mov	r4,zero
10001e9c:	00002f40 	call	100002f4 <IO_write>
	IO_write(HPI_DATA,0x2200);//e //report 0x22
10001ea0:	01488004 	movi	r5,8704
10001ea4:	0009883a 	mov	r4,zero
10001ea8:	00002f40 	call	100002f4 <IO_write>
	IO_write(HPI_DATA,0x0000);//0
10001eac:	000b883a 	mov	r5,zero
10001eb0:	0009883a 	mov	r4,zero
10001eb4:	00002f40 	call	100002f4 <IO_write>
	IO_write(HPI_DATA,0x007B);//2
10001eb8:	01401ec4 	movi	r5,123
10001ebc:	0009883a 	mov	r4,zero
10001ec0:	00002f40 	call	100002f4 <IO_write>

	//data phase IN-1
	IO_write(HPI_DATA,0x0580); //514
10001ec4:	01416004 	movi	r5,1408
10001ec8:	0009883a 	mov	r4,zero
10001ecc:	00002f40 	call	100002f4 <IO_write>
	IO_write(HPI_DATA,0x0008);//6
10001ed0:	01400204 	movi	r5,8
10001ed4:	0009883a 	mov	r4,zero
10001ed8:	00002f40 	call	100002f4 <IO_write>
	IO_write(HPI_DATA,0x0290);//8
10001edc:	0140a404 	movi	r5,656
10001ee0:	0009883a 	mov	r4,zero
10001ee4:	00002f40 	call	100002f4 <IO_write>
	IO_write(HPI_DATA,0x0041);//a
10001ee8:	01401044 	movi	r5,65
10001eec:	0009883a 	mov	r4,zero
10001ef0:	00002f40 	call	100002f4 <IO_write>
	IO_write(HPI_DATA,0x0013);//c
10001ef4:	014004c4 	movi	r5,19
10001ef8:	0009883a 	mov	r4,zero
10001efc:	00002f40 	call	100002f4 <IO_write>
	IO_write(HPI_DATA,0x0520);//e
10001f00:	01414804 	movi	r5,1312
10001f04:	0009883a 	mov	r4,zero
10001f08:	00002f40 	call	100002f4 <IO_write>

	//data phase IN-2
	IO_write(HPI_DATA,0x0588); //520
10001f0c:	01416204 	movi	r5,1416
10001f10:	0009883a 	mov	r4,zero
10001f14:	00002f40 	call	100002f4 <IO_write>
	IO_write(HPI_DATA,0x0008);//2
10001f18:	01400204 	movi	r5,8
10001f1c:	0009883a 	mov	r4,zero
10001f20:	00002f40 	call	100002f4 <IO_write>
	IO_write(HPI_DATA,0x0290);//4
10001f24:	0140a404 	movi	r5,656
10001f28:	0009883a 	mov	r4,zero
10001f2c:	00002f40 	call	100002f4 <IO_write>
	IO_write(HPI_DATA,0x0001);//6 //data0
10001f30:	01400044 	movi	r5,1
10001f34:	0009883a 	mov	r4,zero
10001f38:	00002f40 	call	100002f4 <IO_write>
	IO_write(HPI_DATA,0x0013);//8
10001f3c:	014004c4 	movi	r5,19
10001f40:	0009883a 	mov	r4,zero
10001f44:	00002f40 	call	100002f4 <IO_write>
	IO_write(HPI_DATA,0x052c);//a
10001f48:	01414b04 	movi	r5,1324
10001f4c:	0009883a 	mov	r4,zero
10001f50:	00002f40 	call	100002f4 <IO_write>

	//data phase IN-3
	IO_write(HPI_DATA,0x0590); //52c
10001f54:	01416404 	movi	r5,1424
10001f58:	0009883a 	mov	r4,zero
10001f5c:	00002f40 	call	100002f4 <IO_write>
	IO_write(HPI_DATA,0x0008);//e
10001f60:	01400204 	movi	r5,8
10001f64:	0009883a 	mov	r4,zero
10001f68:	00002f40 	call	100002f4 <IO_write>
	IO_write(HPI_DATA,0x0290);//530
10001f6c:	0140a404 	movi	r5,656
10001f70:	0009883a 	mov	r4,zero
10001f74:	00002f40 	call	100002f4 <IO_write>
	IO_write(HPI_DATA,0x0041);//2
10001f78:	01401044 	movi	r5,65
10001f7c:	0009883a 	mov	r4,zero
10001f80:	00002f40 	call	100002f4 <IO_write>
	IO_write(HPI_DATA,0x0013);//4
10001f84:	014004c4 	movi	r5,19
10001f88:	0009883a 	mov	r4,zero
10001f8c:	00002f40 	call	100002f4 <IO_write>
	IO_write(HPI_DATA,0x0538);//6
10001f90:	01414e04 	movi	r5,1336
10001f94:	0009883a 	mov	r4,zero
10001f98:	00002f40 	call	100002f4 <IO_write>

	//data phase IN-4
	IO_write(HPI_DATA,0x0598); //538
10001f9c:	01416604 	movi	r5,1432
10001fa0:	0009883a 	mov	r4,zero
10001fa4:	00002f40 	call	100002f4 <IO_write>
	IO_write(HPI_DATA,0x0008);//a
10001fa8:	01400204 	movi	r5,8
10001fac:	0009883a 	mov	r4,zero
10001fb0:	00002f40 	call	100002f4 <IO_write>
	IO_write(HPI_DATA,0x0290);//c
10001fb4:	0140a404 	movi	r5,656
10001fb8:	0009883a 	mov	r4,zero
10001fbc:	00002f40 	call	100002f4 <IO_write>
	IO_write(HPI_DATA,0x0001);//e //data0
10001fc0:	01400044 	movi	r5,1
10001fc4:	0009883a 	mov	r4,zero
10001fc8:	00002f40 	call	100002f4 <IO_write>
	IO_write(HPI_DATA,0x0013);//540
10001fcc:	014004c4 	movi	r5,19
10001fd0:	0009883a 	mov	r4,zero
10001fd4:	00002f40 	call	100002f4 <IO_write>
	IO_write(HPI_DATA,0x0544);//2
10001fd8:	01415104 	movi	r5,1348
10001fdc:	0009883a 	mov	r4,zero
10001fe0:	00002f40 	call	100002f4 <IO_write>

	//data phase IN-5
	IO_write(HPI_DATA,0x05a0); //544
10001fe4:	01416804 	movi	r5,1440
10001fe8:	0009883a 	mov	r4,zero
10001fec:	00002f40 	call	100002f4 <IO_write>
	IO_write(HPI_DATA,0x0008);//6
10001ff0:	01400204 	movi	r5,8
10001ff4:	0009883a 	mov	r4,zero
10001ff8:	00002f40 	call	100002f4 <IO_write>
	IO_write(HPI_DATA,0x0290);//8
10001ffc:	0140a404 	movi	r5,656
10002000:	0009883a 	mov	r4,zero
10002004:	00002f40 	call	100002f4 <IO_write>
	IO_write(HPI_DATA,0x0041);//a //data1
10002008:	01401044 	movi	r5,65
1000200c:	0009883a 	mov	r4,zero
10002010:	00002f40 	call	100002f4 <IO_write>
	IO_write(HPI_DATA,0x0013);//c
10002014:	014004c4 	movi	r5,19
10002018:	0009883a 	mov	r4,zero
1000201c:	00002f40 	call	100002f4 <IO_write>
	IO_write(HPI_DATA,0x0550);//e
10002020:	01415404 	movi	r5,1360
10002024:	0009883a 	mov	r4,zero
10002028:	00002f40 	call	100002f4 <IO_write>

	//data phase IN-6
	IO_write(HPI_DATA,0x05a8); //550
1000202c:	01416a04 	movi	r5,1448
10002030:	0009883a 	mov	r4,zero
10002034:	00002f40 	call	100002f4 <IO_write>
	IO_write(HPI_DATA,0x0008);//2
10002038:	01400204 	movi	r5,8
1000203c:	0009883a 	mov	r4,zero
10002040:	00002f40 	call	100002f4 <IO_write>
	IO_write(HPI_DATA,0x0290);//4
10002044:	0140a404 	movi	r5,656
10002048:	0009883a 	mov	r4,zero
1000204c:	00002f40 	call	100002f4 <IO_write>
	IO_write(HPI_DATA,0x0001);//6 //data0
10002050:	01400044 	movi	r5,1
10002054:	0009883a 	mov	r4,zero
10002058:	00002f40 	call	100002f4 <IO_write>
	IO_write(HPI_DATA,0x0013);//8
1000205c:	014004c4 	movi	r5,19
10002060:	0009883a 	mov	r4,zero
10002064:	00002f40 	call	100002f4 <IO_write>
	IO_write(HPI_DATA,0x055c);//a
10002068:	01415704 	movi	r5,1372
1000206c:	0009883a 	mov	r4,zero
10002070:	00002f40 	call	100002f4 <IO_write>

	//data phase IN-7
	IO_write(HPI_DATA,0x05b0); //c
10002074:	01416c04 	movi	r5,1456
10002078:	0009883a 	mov	r4,zero
1000207c:	00002f40 	call	100002f4 <IO_write>
	IO_write(HPI_DATA,0x0008);//e
10002080:	01400204 	movi	r5,8
10002084:	0009883a 	mov	r4,zero
10002088:	00002f40 	call	100002f4 <IO_write>
	IO_write(HPI_DATA,0x0290);//560
1000208c:	0140a404 	movi	r5,656
10002090:	0009883a 	mov	r4,zero
10002094:	00002f40 	call	100002f4 <IO_write>
	IO_write(HPI_DATA,0x0041);//2 //data1
10002098:	01401044 	movi	r5,65
1000209c:	0009883a 	mov	r4,zero
100020a0:	00002f40 	call	100002f4 <IO_write>
	IO_write(HPI_DATA,0x0013);//4
100020a4:	014004c4 	movi	r5,19
100020a8:	0009883a 	mov	r4,zero
100020ac:	00002f40 	call	100002f4 <IO_write>
	IO_write(HPI_DATA,0x0568);//6
100020b0:	01415a04 	movi	r5,1384
100020b4:	0009883a 	mov	r4,zero
100020b8:	00002f40 	call	100002f4 <IO_write>

	//data phase IN-8
	IO_write(HPI_DATA,0x05b8); //8
100020bc:	01416e04 	movi	r5,1464
100020c0:	0009883a 	mov	r4,zero
100020c4:	00002f40 	call	100002f4 <IO_write>
	IO_write(HPI_DATA,0x0003);//a
100020c8:	014000c4 	movi	r5,3
100020cc:	0009883a 	mov	r4,zero
100020d0:	00002f40 	call	100002f4 <IO_write>
	IO_write(HPI_DATA,0x0290);//c
100020d4:	0140a404 	movi	r5,656
100020d8:	0009883a 	mov	r4,zero
100020dc:	00002f40 	call	100002f4 <IO_write>
	IO_write(HPI_DATA,0x0001);//e //data0
100020e0:	01400044 	movi	r5,1
100020e4:	0009883a 	mov	r4,zero
100020e8:	00002f40 	call	100002f4 <IO_write>
	IO_write(HPI_DATA,0x0013);//570
100020ec:	014004c4 	movi	r5,19
100020f0:	0009883a 	mov	r4,zero
100020f4:	00002f40 	call	100002f4 <IO_write>
	IO_write(HPI_DATA,0x0574);//2
100020f8:	01415d04 	movi	r5,1396
100020fc:	0009883a 	mov	r4,zero
10002100:	00002f40 	call	100002f4 <IO_write>

	//status phase
	IO_write(HPI_DATA,0x0000); //574
10002104:	000b883a 	mov	r5,zero
10002108:	0009883a 	mov	r4,zero
1000210c:	00002f40 	call	100002f4 <IO_write>
	IO_write(HPI_DATA,0x0000);//6
10002110:	000b883a 	mov	r5,zero
10002114:	0009883a 	mov	r4,zero
10002118:	00002f40 	call	100002f4 <IO_write>
	IO_write(HPI_DATA,0x0210);//8
1000211c:	01408404 	movi	r5,528
10002120:	0009883a 	mov	r4,zero
10002124:	00002f40 	call	100002f4 <IO_write>
	IO_write(HPI_DATA,0x0041);//a
10002128:	01401044 	movi	r5,65
1000212c:	0009883a 	mov	r4,zero
10002130:	00002f40 	call	100002f4 <IO_write>
	IO_write(HPI_DATA,0x0013);//c
10002134:	014004c4 	movi	r5,19
10002138:	0009883a 	mov	r4,zero
1000213c:	00002f40 	call	100002f4 <IO_write>
	IO_write(HPI_DATA,0x0000);//e
10002140:	000b883a 	mov	r5,zero
10002144:	0009883a 	mov	r4,zero
10002148:	00002f40 	call	100002f4 <IO_write>

	UsbWrite(HUSB_SIE1_pCurrentTDPtr,0x0500); //HUSB_SIE1_pCurrentTDPtr
1000214c:	01414004 	movi	r5,1280
10002150:	01006c04 	movi	r4,432
10002154:	00011800 	call	10001180 <UsbWrite>

}
10002158:	0001883a 	nop
1000215c:	e037883a 	mov	sp,fp
10002160:	dfc00117 	ldw	ra,4(sp)
10002164:	df000017 	ldw	fp,0(sp)
10002168:	dec00204 	addi	sp,sp,8
1000216c:	f800283a 	ret

10002170 <UsbWaitTDListDone>:


alt_u16 UsbWaitTDListDone()
{
10002170:	defffd04 	addi	sp,sp,-12
10002174:	dfc00215 	stw	ra,8(sp)
10002178:	df000115 	stw	fp,4(sp)
1000217c:	df000104 	addi	fp,sp,4
	alt_u16 usb_ctl_val;

	usb_ctl_val = UsbRead(HPI_SIE1_MSG_ADR); // STEP 3 j
10002180:	01005104 	movi	r4,324
10002184:	00011d80 	call	100011d8 <UsbRead>
10002188:	e0bfff0d 	sth	r2,-4(fp)
	UsbWrite(HPI_SIE1_MSG_ADR, 0);
1000218c:	000b883a 	mov	r5,zero
10002190:	01005104 	movi	r4,324
10002194:	00011800 	call	10001180 <UsbWrite>
	while (usb_ctl_val != HUSB_TDListDone)  // k, read sie1 msg register
10002198:	00000d06 	br	100021d0 <UsbWaitTDListDone+0x60>
	{
		if(usb_ctl_val == 0x0000)
1000219c:	e0bfff0b 	ldhu	r2,-4(fp)
100021a0:	10000526 	beq	r2,zero,100021b8 <UsbWaitTDListDone+0x48>
		{
		}
		else
		{
			printf("[SIE1 MSG]:SIE1 msg reg is %x\n",usb_ctl_val);
100021a4:	e0bfff0b 	ldhu	r2,-4(fp)
100021a8:	100b883a 	mov	r5,r2
100021ac:	01040074 	movhi	r4,4097
100021b0:	21087104 	addi	r4,r4,8644
100021b4:	00023240 	call	10002324 <printf>
		}
		usb_ctl_val = UsbRead(HPI_SIE1_MSG_ADR);
100021b8:	01005104 	movi	r4,324
100021bc:	00011d80 	call	100011d8 <UsbRead>
100021c0:	e0bfff0d 	sth	r2,-4(fp)
		UsbWrite(HPI_SIE1_MSG_ADR, 0);
100021c4:	000b883a 	mov	r5,zero
100021c8:	01005104 	movi	r4,324
100021cc:	00011800 	call	10001180 <UsbWrite>
{
	alt_u16 usb_ctl_val;

	usb_ctl_val = UsbRead(HPI_SIE1_MSG_ADR); // STEP 3 j
	UsbWrite(HPI_SIE1_MSG_ADR, 0);
	while (usb_ctl_val != HUSB_TDListDone)  // k, read sie1 msg register
100021d0:	e0bfff0b 	ldhu	r2,-4(fp)
100021d4:	10840018 	cmpnei	r2,r2,4096
100021d8:	103ff01e 	bne	r2,zero,1000219c <__alt_data_end+0xf800219c>
		}
		usb_ctl_val = UsbRead(HPI_SIE1_MSG_ADR);
		UsbWrite(HPI_SIE1_MSG_ADR, 0);
	}

	return usb_ctl_val;
100021dc:	e0bfff0b 	ldhu	r2,-4(fp)
}
100021e0:	e037883a 	mov	sp,fp
100021e4:	dfc00117 	ldw	ra,4(sp)
100021e8:	df000017 	ldw	fp,0(sp)
100021ec:	dec00204 	addi	sp,sp,8
100021f0:	f800283a 	ret

100021f4 <UsbGetRetryCnt>:


alt_u16 UsbGetRetryCnt()
{
100021f4:	defffd04 	addi	sp,sp,-12
100021f8:	dfc00215 	stw	ra,8(sp)
100021fc:	df000115 	stw	fp,4(sp)
10002200:	df000104 	addi	fp,sp,4
	alt_u16 usb_ctl_val;

	IO_read(HPI_STATUS);
10002204:	010000c4 	movi	r4,3
10002208:	00003700 	call	10000370 <IO_read>
	if(UsbRead(HPI_SIE1_MSG_ADR) == HUSB_TDListDone)
1000220c:	01005104 	movi	r4,324
10002210:	00011d80 	call	100011d8 <UsbRead>
10002214:	10bfffcc 	andi	r2,r2,65535
10002218:	10840018 	cmpnei	r2,r2,4096
1000221c:	1000091e 	bne	r2,zero,10002244 <UsbGetRetryCnt+0x50>
	{
		UsbWrite(HPI_SIE1_MSG_ADR, 0);
10002220:	000b883a 	mov	r5,zero
10002224:	01005104 	movi	r4,324
10002228:	00011800 	call	10001180 <UsbWrite>

		while (!(IO_read(HPI_STATUS) & HPI_STATUS_SIE1msg_FLAG) )  //read sie1 msg register
1000222c:	0001883a 	nop
10002230:	010000c4 	movi	r4,3
10002234:	00003700 	call	10000370 <IO_read>
10002238:	10bfffcc 	andi	r2,r2,65535
1000223c:	1080040c 	andi	r2,r2,16
10002240:	103ffb26 	beq	r2,zero,10002230 <__alt_data_end+0xf8002230>
		{
		}
	}
	//usleep(1000);
	IO_write(HPI_ADDR,0x0508);
10002244:	01414204 	movi	r5,1288
10002248:	01000084 	movi	r4,2
1000224c:	00002f40 	call	100002f4 <IO_write>
	usb_ctl_val = IO_read(HPI_DATA);
10002250:	0009883a 	mov	r4,zero
10002254:	00003700 	call	10000370 <IO_read>
10002258:	e0bfff0d 	sth	r2,-4(fp)

	return usb_ctl_val;
1000225c:	e0bfff0b 	ldhu	r2,-4(fp)
}
10002260:	e037883a 	mov	sp,fp
10002264:	dfc00117 	ldw	ra,4(sp)
10002268:	df000017 	ldw	fp,0(sp)
1000226c:	dec00204 	addi	sp,sp,8
10002270:	f800283a 	ret

10002274 <UsbPrintMem>:


void UsbPrintMem()
{
10002274:	defffc04 	addi	sp,sp,-16
10002278:	dfc00315 	stw	ra,12(sp)
1000227c:	df000215 	stw	fp,8(sp)
10002280:	df000204 	addi	fp,sp,8
	int i, code;
	IO_write(HPI_ADDR,0x0500); //the start address
10002284:	01414004 	movi	r5,1280
10002288:	01000084 	movi	r4,2
1000228c:	00002f40 	call	100002f4 <IO_write>
	for (i = 0; i <= 200; i += 2)
10002290:	e03ffe15 	stw	zero,-8(fp)
10002294:	00000e06 	br	100022d0 <UsbPrintMem+0x5c>
	{
		code = IO_read(HPI_DATA);
10002298:	0009883a 	mov	r4,zero
1000229c:	00003700 	call	10000370 <IO_read>
100022a0:	10bfffcc 	andi	r2,r2,65535
100022a4:	e0bfff15 	stw	r2,-4(fp)
		printf("\naddr %x = %04x\n", 0x0500+i, code);
100022a8:	e0bffe17 	ldw	r2,-8(fp)
100022ac:	10814004 	addi	r2,r2,1280
100022b0:	e1bfff17 	ldw	r6,-4(fp)
100022b4:	100b883a 	mov	r5,r2
100022b8:	01040074 	movhi	r4,4097
100022bc:	21087904 	addi	r4,r4,8676
100022c0:	00023240 	call	10002324 <printf>

void UsbPrintMem()
{
	int i, code;
	IO_write(HPI_ADDR,0x0500); //the start address
	for (i = 0; i <= 200; i += 2)
100022c4:	e0bffe17 	ldw	r2,-8(fp)
100022c8:	10800084 	addi	r2,r2,2
100022cc:	e0bffe15 	stw	r2,-8(fp)
100022d0:	e0bffe17 	ldw	r2,-8(fp)
100022d4:	10803250 	cmplti	r2,r2,201
100022d8:	103fef1e 	bne	r2,zero,10002298 <__alt_data_end+0xf8002298>
	{
		code = IO_read(HPI_DATA);
		printf("\naddr %x = %04x\n", 0x0500+i, code);
	}
}
100022dc:	0001883a 	nop
100022e0:	e037883a 	mov	sp,fp
100022e4:	dfc00117 	ldw	ra,4(sp)
100022e8:	df000017 	ldw	fp,0(sp)
100022ec:	dec00204 	addi	sp,sp,8
100022f0:	f800283a 	ret

100022f4 <_printf_r>:
100022f4:	defffd04 	addi	sp,sp,-12
100022f8:	2805883a 	mov	r2,r5
100022fc:	dfc00015 	stw	ra,0(sp)
10002300:	d9800115 	stw	r6,4(sp)
10002304:	d9c00215 	stw	r7,8(sp)
10002308:	21400217 	ldw	r5,8(r4)
1000230c:	d9c00104 	addi	r7,sp,4
10002310:	100d883a 	mov	r6,r2
10002314:	00024cc0 	call	100024cc <___vfprintf_internal_r>
10002318:	dfc00017 	ldw	ra,0(sp)
1000231c:	dec00304 	addi	sp,sp,12
10002320:	f800283a 	ret

10002324 <printf>:
10002324:	defffc04 	addi	sp,sp,-16
10002328:	dfc00015 	stw	ra,0(sp)
1000232c:	d9400115 	stw	r5,4(sp)
10002330:	d9800215 	stw	r6,8(sp)
10002334:	d9c00315 	stw	r7,12(sp)
10002338:	00840074 	movhi	r2,4097
1000233c:	108fea04 	addi	r2,r2,16296
10002340:	10800017 	ldw	r2,0(r2)
10002344:	200b883a 	mov	r5,r4
10002348:	d9800104 	addi	r6,sp,4
1000234c:	11000217 	ldw	r4,8(r2)
10002350:	00047a80 	call	100047a8 <__vfprintf_internal>
10002354:	dfc00017 	ldw	ra,0(sp)
10002358:	dec00404 	addi	sp,sp,16
1000235c:	f800283a 	ret

10002360 <_puts_r>:
10002360:	defff604 	addi	sp,sp,-40
10002364:	dc000715 	stw	r16,28(sp)
10002368:	2021883a 	mov	r16,r4
1000236c:	2809883a 	mov	r4,r5
10002370:	dc400815 	stw	r17,32(sp)
10002374:	dfc00915 	stw	ra,36(sp)
10002378:	2823883a 	mov	r17,r5
1000237c:	00024340 	call	10002434 <strlen>
10002380:	10c00044 	addi	r3,r2,1
10002384:	d8800115 	stw	r2,4(sp)
10002388:	00840074 	movhi	r2,4097
1000238c:	10887e04 	addi	r2,r2,8696
10002390:	d8800215 	stw	r2,8(sp)
10002394:	00800044 	movi	r2,1
10002398:	d8800315 	stw	r2,12(sp)
1000239c:	00800084 	movi	r2,2
100023a0:	dc400015 	stw	r17,0(sp)
100023a4:	d8c00615 	stw	r3,24(sp)
100023a8:	dec00415 	stw	sp,16(sp)
100023ac:	d8800515 	stw	r2,20(sp)
100023b0:	80000226 	beq	r16,zero,100023bc <_puts_r+0x5c>
100023b4:	80800e17 	ldw	r2,56(r16)
100023b8:	10001426 	beq	r2,zero,1000240c <_puts_r+0xac>
100023bc:	81400217 	ldw	r5,8(r16)
100023c0:	2880030b 	ldhu	r2,12(r5)
100023c4:	10c8000c 	andi	r3,r2,8192
100023c8:	1800061e 	bne	r3,zero,100023e4 <_puts_r+0x84>
100023cc:	29001917 	ldw	r4,100(r5)
100023d0:	00f7ffc4 	movi	r3,-8193
100023d4:	10880014 	ori	r2,r2,8192
100023d8:	20c6703a 	and	r3,r4,r3
100023dc:	2880030d 	sth	r2,12(r5)
100023e0:	28c01915 	stw	r3,100(r5)
100023e4:	d9800404 	addi	r6,sp,16
100023e8:	8009883a 	mov	r4,r16
100023ec:	0006d100 	call	10006d10 <__sfvwrite_r>
100023f0:	1000091e 	bne	r2,zero,10002418 <_puts_r+0xb8>
100023f4:	00800284 	movi	r2,10
100023f8:	dfc00917 	ldw	ra,36(sp)
100023fc:	dc400817 	ldw	r17,32(sp)
10002400:	dc000717 	ldw	r16,28(sp)
10002404:	dec00a04 	addi	sp,sp,40
10002408:	f800283a 	ret
1000240c:	8009883a 	mov	r4,r16
10002410:	000688c0 	call	1000688c <__sinit>
10002414:	003fe906 	br	100023bc <__alt_data_end+0xf80023bc>
10002418:	00bfffc4 	movi	r2,-1
1000241c:	003ff606 	br	100023f8 <__alt_data_end+0xf80023f8>

10002420 <puts>:
10002420:	00840074 	movhi	r2,4097
10002424:	108fea04 	addi	r2,r2,16296
10002428:	200b883a 	mov	r5,r4
1000242c:	11000017 	ldw	r4,0(r2)
10002430:	00023601 	jmpi	10002360 <_puts_r>

10002434 <strlen>:
10002434:	208000cc 	andi	r2,r4,3
10002438:	10002026 	beq	r2,zero,100024bc <strlen+0x88>
1000243c:	20800007 	ldb	r2,0(r4)
10002440:	10002026 	beq	r2,zero,100024c4 <strlen+0x90>
10002444:	2005883a 	mov	r2,r4
10002448:	00000206 	br	10002454 <strlen+0x20>
1000244c:	10c00007 	ldb	r3,0(r2)
10002450:	18001826 	beq	r3,zero,100024b4 <strlen+0x80>
10002454:	10800044 	addi	r2,r2,1
10002458:	10c000cc 	andi	r3,r2,3
1000245c:	183ffb1e 	bne	r3,zero,1000244c <__alt_data_end+0xf800244c>
10002460:	10c00017 	ldw	r3,0(r2)
10002464:	01ffbff4 	movhi	r7,65279
10002468:	39ffbfc4 	addi	r7,r7,-257
1000246c:	00ca303a 	nor	r5,zero,r3
10002470:	01a02074 	movhi	r6,32897
10002474:	19c7883a 	add	r3,r3,r7
10002478:	31a02004 	addi	r6,r6,-32640
1000247c:	1946703a 	and	r3,r3,r5
10002480:	1986703a 	and	r3,r3,r6
10002484:	1800091e 	bne	r3,zero,100024ac <strlen+0x78>
10002488:	10800104 	addi	r2,r2,4
1000248c:	10c00017 	ldw	r3,0(r2)
10002490:	19cb883a 	add	r5,r3,r7
10002494:	00c6303a 	nor	r3,zero,r3
10002498:	28c6703a 	and	r3,r5,r3
1000249c:	1986703a 	and	r3,r3,r6
100024a0:	183ff926 	beq	r3,zero,10002488 <__alt_data_end+0xf8002488>
100024a4:	00000106 	br	100024ac <strlen+0x78>
100024a8:	10800044 	addi	r2,r2,1
100024ac:	10c00007 	ldb	r3,0(r2)
100024b0:	183ffd1e 	bne	r3,zero,100024a8 <__alt_data_end+0xf80024a8>
100024b4:	1105c83a 	sub	r2,r2,r4
100024b8:	f800283a 	ret
100024bc:	2005883a 	mov	r2,r4
100024c0:	003fe706 	br	10002460 <__alt_data_end+0xf8002460>
100024c4:	0005883a 	mov	r2,zero
100024c8:	f800283a 	ret

100024cc <___vfprintf_internal_r>:
100024cc:	deffb804 	addi	sp,sp,-288
100024d0:	dfc04715 	stw	ra,284(sp)
100024d4:	ddc04515 	stw	r23,276(sp)
100024d8:	dd404315 	stw	r21,268(sp)
100024dc:	d9002d15 	stw	r4,180(sp)
100024e0:	282f883a 	mov	r23,r5
100024e4:	302b883a 	mov	r21,r6
100024e8:	d9c02e15 	stw	r7,184(sp)
100024ec:	df004615 	stw	fp,280(sp)
100024f0:	dd804415 	stw	r22,272(sp)
100024f4:	dd004215 	stw	r20,264(sp)
100024f8:	dcc04115 	stw	r19,260(sp)
100024fc:	dc804015 	stw	r18,256(sp)
10002500:	dc403f15 	stw	r17,252(sp)
10002504:	dc003e15 	stw	r16,248(sp)
10002508:	000740c0 	call	1000740c <_localeconv_r>
1000250c:	10800017 	ldw	r2,0(r2)
10002510:	1009883a 	mov	r4,r2
10002514:	d8803415 	stw	r2,208(sp)
10002518:	00024340 	call	10002434 <strlen>
1000251c:	d8803715 	stw	r2,220(sp)
10002520:	d8802d17 	ldw	r2,180(sp)
10002524:	10000226 	beq	r2,zero,10002530 <___vfprintf_internal_r+0x64>
10002528:	10800e17 	ldw	r2,56(r2)
1000252c:	1000fb26 	beq	r2,zero,1000291c <___vfprintf_internal_r+0x450>
10002530:	b880030b 	ldhu	r2,12(r23)
10002534:	10c8000c 	andi	r3,r2,8192
10002538:	1800061e 	bne	r3,zero,10002554 <___vfprintf_internal_r+0x88>
1000253c:	b9001917 	ldw	r4,100(r23)
10002540:	00f7ffc4 	movi	r3,-8193
10002544:	10880014 	ori	r2,r2,8192
10002548:	20c6703a 	and	r3,r4,r3
1000254c:	b880030d 	sth	r2,12(r23)
10002550:	b8c01915 	stw	r3,100(r23)
10002554:	10c0020c 	andi	r3,r2,8
10002558:	1800c326 	beq	r3,zero,10002868 <___vfprintf_internal_r+0x39c>
1000255c:	b8c00417 	ldw	r3,16(r23)
10002560:	1800c126 	beq	r3,zero,10002868 <___vfprintf_internal_r+0x39c>
10002564:	1080068c 	andi	r2,r2,26
10002568:	00c00284 	movi	r3,10
1000256c:	10c0c626 	beq	r2,r3,10002888 <___vfprintf_internal_r+0x3bc>
10002570:	d8c00404 	addi	r3,sp,16
10002574:	05040074 	movhi	r20,4097
10002578:	d9001e04 	addi	r4,sp,120
1000257c:	a5088f84 	addi	r20,r20,8766
10002580:	d8c01e15 	stw	r3,120(sp)
10002584:	d8002015 	stw	zero,128(sp)
10002588:	d8001f15 	stw	zero,124(sp)
1000258c:	d8003315 	stw	zero,204(sp)
10002590:	d8003615 	stw	zero,216(sp)
10002594:	d8003815 	stw	zero,224(sp)
10002598:	1811883a 	mov	r8,r3
1000259c:	d8003915 	stw	zero,228(sp)
100025a0:	d8003a15 	stw	zero,232(sp)
100025a4:	d8002f15 	stw	zero,188(sp)
100025a8:	d9002815 	stw	r4,160(sp)
100025ac:	a8800007 	ldb	r2,0(r21)
100025b0:	10028b26 	beq	r2,zero,10002fe0 <___vfprintf_internal_r+0xb14>
100025b4:	00c00944 	movi	r3,37
100025b8:	a823883a 	mov	r17,r21
100025bc:	10c0021e 	bne	r2,r3,100025c8 <___vfprintf_internal_r+0xfc>
100025c0:	00001406 	br	10002614 <___vfprintf_internal_r+0x148>
100025c4:	10c00326 	beq	r2,r3,100025d4 <___vfprintf_internal_r+0x108>
100025c8:	8c400044 	addi	r17,r17,1
100025cc:	88800007 	ldb	r2,0(r17)
100025d0:	103ffc1e 	bne	r2,zero,100025c4 <__alt_data_end+0xf80025c4>
100025d4:	8d61c83a 	sub	r16,r17,r21
100025d8:	80000e26 	beq	r16,zero,10002614 <___vfprintf_internal_r+0x148>
100025dc:	d8c02017 	ldw	r3,128(sp)
100025e0:	d8801f17 	ldw	r2,124(sp)
100025e4:	45400015 	stw	r21,0(r8)
100025e8:	1c07883a 	add	r3,r3,r16
100025ec:	10800044 	addi	r2,r2,1
100025f0:	d8c02015 	stw	r3,128(sp)
100025f4:	44000115 	stw	r16,4(r8)
100025f8:	d8801f15 	stw	r2,124(sp)
100025fc:	00c001c4 	movi	r3,7
10002600:	1880a916 	blt	r3,r2,100028a8 <___vfprintf_internal_r+0x3dc>
10002604:	42000204 	addi	r8,r8,8
10002608:	d9402f17 	ldw	r5,188(sp)
1000260c:	2c0b883a 	add	r5,r5,r16
10002610:	d9402f15 	stw	r5,188(sp)
10002614:	88800007 	ldb	r2,0(r17)
10002618:	1000aa26 	beq	r2,zero,100028c4 <___vfprintf_internal_r+0x3f8>
1000261c:	8d400044 	addi	r21,r17,1
10002620:	8c400047 	ldb	r17,1(r17)
10002624:	0021883a 	mov	r16,zero
10002628:	00bfffc4 	movi	r2,-1
1000262c:	0025883a 	mov	r18,zero
10002630:	dc002905 	stb	r16,164(sp)
10002634:	d8002785 	stb	zero,158(sp)
10002638:	d8002b05 	stb	zero,172(sp)
1000263c:	d8802a15 	stw	r2,168(sp)
10002640:	d8003115 	stw	zero,196(sp)
10002644:	04c01604 	movi	r19,88
10002648:	05800244 	movi	r22,9
1000264c:	9021883a 	mov	r16,r18
10002650:	4039883a 	mov	fp,r8
10002654:	ad400044 	addi	r21,r21,1
10002658:	88bff804 	addi	r2,r17,-32
1000265c:	98833236 	bltu	r19,r2,10003328 <___vfprintf_internal_r+0xe5c>
10002660:	100490ba 	slli	r2,r2,2
10002664:	00c40034 	movhi	r3,4096
10002668:	18c99e04 	addi	r3,r3,9848
1000266c:	10c5883a 	add	r2,r2,r3
10002670:	10800017 	ldw	r2,0(r2)
10002674:	1000683a 	jmp	r2
10002678:	10003220 	cmpeqi	zero,r2,200
1000267c:	10003328 	cmpgeui	zero,r2,204
10002680:	10003328 	cmpgeui	zero,r2,204
10002684:	10003240 	call	11000324 <_gp+0xfe4380>
10002688:	10003328 	cmpgeui	zero,r2,204
1000268c:	10003328 	cmpgeui	zero,r2,204
10002690:	10003328 	cmpgeui	zero,r2,204
10002694:	10003328 	cmpgeui	zero,r2,204
10002698:	10003328 	cmpgeui	zero,r2,204
1000269c:	10003328 	cmpgeui	zero,r2,204
100026a0:	10002928 	cmpgeui	zero,r2,164
100026a4:	10003130 	cmpltui	zero,r2,196
100026a8:	10003328 	cmpgeui	zero,r2,204
100026ac:	100027ec 	andhi	zero,r2,159
100026b0:	1000294c 	andi	zero,r2,165
100026b4:	10003328 	cmpgeui	zero,r2,204
100026b8:	1000299c 	xori	zero,r2,166
100026bc:	100029a8 	cmpgeui	zero,r2,166
100026c0:	100029a8 	cmpgeui	zero,r2,166
100026c4:	100029a8 	cmpgeui	zero,r2,166
100026c8:	100029a8 	cmpgeui	zero,r2,166
100026cc:	100029a8 	cmpgeui	zero,r2,166
100026d0:	100029a8 	cmpgeui	zero,r2,166
100026d4:	100029a8 	cmpgeui	zero,r2,166
100026d8:	100029a8 	cmpgeui	zero,r2,166
100026dc:	100029a8 	cmpgeui	zero,r2,166
100026e0:	10003328 	cmpgeui	zero,r2,204
100026e4:	10003328 	cmpgeui	zero,r2,204
100026e8:	10003328 	cmpgeui	zero,r2,204
100026ec:	10003328 	cmpgeui	zero,r2,204
100026f0:	10003328 	cmpgeui	zero,r2,204
100026f4:	10003328 	cmpgeui	zero,r2,204
100026f8:	10003328 	cmpgeui	zero,r2,204
100026fc:	10003328 	cmpgeui	zero,r2,204
10002700:	10003328 	cmpgeui	zero,r2,204
10002704:	10003328 	cmpgeui	zero,r2,204
10002708:	100029e4 	muli	zero,r2,167
1000270c:	10002aac 	andhi	zero,r2,170
10002710:	10003328 	cmpgeui	zero,r2,204
10002714:	10002aac 	andhi	zero,r2,170
10002718:	10003328 	cmpgeui	zero,r2,204
1000271c:	10003328 	cmpgeui	zero,r2,204
10002720:	10003328 	cmpgeui	zero,r2,204
10002724:	10003328 	cmpgeui	zero,r2,204
10002728:	10002b58 	cmpnei	zero,r2,173
1000272c:	10003328 	cmpgeui	zero,r2,204
10002730:	10003328 	cmpgeui	zero,r2,204
10002734:	10002b64 	muli	zero,r2,173
10002738:	10003328 	cmpgeui	zero,r2,204
1000273c:	10003328 	cmpgeui	zero,r2,204
10002740:	10003328 	cmpgeui	zero,r2,204
10002744:	10003328 	cmpgeui	zero,r2,204
10002748:	10003328 	cmpgeui	zero,r2,204
1000274c:	10002fe8 	cmpgeui	zero,r2,191
10002750:	10003328 	cmpgeui	zero,r2,204
10002754:	10003328 	cmpgeui	zero,r2,204
10002758:	10003054 	ori	zero,r2,193
1000275c:	10003328 	cmpgeui	zero,r2,204
10002760:	10003328 	cmpgeui	zero,r2,204
10002764:	10003328 	cmpgeui	zero,r2,204
10002768:	10003328 	cmpgeui	zero,r2,204
1000276c:	10003328 	cmpgeui	zero,r2,204
10002770:	10003328 	cmpgeui	zero,r2,204
10002774:	10003328 	cmpgeui	zero,r2,204
10002778:	10003328 	cmpgeui	zero,r2,204
1000277c:	10003328 	cmpgeui	zero,r2,204
10002780:	10003328 	cmpgeui	zero,r2,204
10002784:	100032cc 	andi	zero,r2,203
10002788:	1000324c 	andi	zero,r2,201
1000278c:	10002aac 	andhi	zero,r2,170
10002790:	10002aac 	andhi	zero,r2,170
10002794:	10002aac 	andhi	zero,r2,170
10002798:	1000326c 	andhi	zero,r2,201
1000279c:	1000324c 	andi	zero,r2,201
100027a0:	10003328 	cmpgeui	zero,r2,204
100027a4:	10003328 	cmpgeui	zero,r2,204
100027a8:	10003278 	rdprs	zero,r2,201
100027ac:	10003328 	cmpgeui	zero,r2,204
100027b0:	1000328c 	andi	zero,r2,202
100027b4:	10003110 	cmplti	zero,r2,196
100027b8:	100027f8 	rdprs	zero,r2,159
100027bc:	10003148 	cmpgei	zero,r2,197
100027c0:	10003328 	cmpgeui	zero,r2,204
100027c4:	10003154 	ori	zero,r2,197
100027c8:	10003328 	cmpgeui	zero,r2,204
100027cc:	100031b8 	rdprs	zero,r2,198
100027d0:	10003328 	cmpgeui	zero,r2,204
100027d4:	10003328 	cmpgeui	zero,r2,204
100027d8:	100031d8 	cmpnei	zero,r2,199
100027dc:	d8c03117 	ldw	r3,196(sp)
100027e0:	d8802e15 	stw	r2,184(sp)
100027e4:	00c7c83a 	sub	r3,zero,r3
100027e8:	d8c03115 	stw	r3,196(sp)
100027ec:	84000114 	ori	r16,r16,4
100027f0:	ac400007 	ldb	r17,0(r21)
100027f4:	003f9706 	br	10002654 <__alt_data_end+0xf8002654>
100027f8:	00800c04 	movi	r2,48
100027fc:	d8802705 	stb	r2,156(sp)
10002800:	00801e04 	movi	r2,120
10002804:	d8802745 	stb	r2,157(sp)
10002808:	d9002a17 	ldw	r4,168(sp)
1000280c:	d8802e17 	ldw	r2,184(sp)
10002810:	d8002785 	stb	zero,158(sp)
10002814:	e011883a 	mov	r8,fp
10002818:	10c00104 	addi	r3,r2,4
1000281c:	14c00017 	ldw	r19,0(r2)
10002820:	002d883a 	mov	r22,zero
10002824:	80800094 	ori	r2,r16,2
10002828:	2002ca16 	blt	r4,zero,10003354 <___vfprintf_internal_r+0xe88>
1000282c:	00bfdfc4 	movi	r2,-129
10002830:	80a4703a 	and	r18,r16,r2
10002834:	d8c02e15 	stw	r3,184(sp)
10002838:	94800094 	ori	r18,r18,2
1000283c:	9802b41e 	bne	r19,zero,10003310 <___vfprintf_internal_r+0xe44>
10002840:	01440074 	movhi	r5,4097
10002844:	29488804 	addi	r5,r5,8736
10002848:	d9403915 	stw	r5,228(sp)
1000284c:	04401e04 	movi	r17,120
10002850:	d8802a17 	ldw	r2,168(sp)
10002854:	0039883a 	mov	fp,zero
10002858:	1001fa26 	beq	r2,zero,10003044 <___vfprintf_internal_r+0xb78>
1000285c:	0027883a 	mov	r19,zero
10002860:	002d883a 	mov	r22,zero
10002864:	00021906 	br	100030cc <___vfprintf_internal_r+0xc00>
10002868:	d9002d17 	ldw	r4,180(sp)
1000286c:	b80b883a 	mov	r5,r23
10002870:	00048800 	call	10004880 <__swsetup_r>
10002874:	1005dc1e 	bne	r2,zero,10003fe8 <___vfprintf_internal_r+0x1b1c>
10002878:	b880030b 	ldhu	r2,12(r23)
1000287c:	00c00284 	movi	r3,10
10002880:	1080068c 	andi	r2,r2,26
10002884:	10ff3a1e 	bne	r2,r3,10002570 <__alt_data_end+0xf8002570>
10002888:	b880038f 	ldh	r2,14(r23)
1000288c:	103f3816 	blt	r2,zero,10002570 <__alt_data_end+0xf8002570>
10002890:	d9c02e17 	ldw	r7,184(sp)
10002894:	d9002d17 	ldw	r4,180(sp)
10002898:	a80d883a 	mov	r6,r21
1000289c:	b80b883a 	mov	r5,r23
100028a0:	00047c40 	call	100047c4 <__sbprintf>
100028a4:	00001106 	br	100028ec <___vfprintf_internal_r+0x420>
100028a8:	d9002d17 	ldw	r4,180(sp)
100028ac:	d9801e04 	addi	r6,sp,120
100028b0:	b80b883a 	mov	r5,r23
100028b4:	0009cac0 	call	10009cac <__sprint_r>
100028b8:	1000081e 	bne	r2,zero,100028dc <___vfprintf_internal_r+0x410>
100028bc:	da000404 	addi	r8,sp,16
100028c0:	003f5106 	br	10002608 <__alt_data_end+0xf8002608>
100028c4:	d8802017 	ldw	r2,128(sp)
100028c8:	10000426 	beq	r2,zero,100028dc <___vfprintf_internal_r+0x410>
100028cc:	d9002d17 	ldw	r4,180(sp)
100028d0:	d9801e04 	addi	r6,sp,120
100028d4:	b80b883a 	mov	r5,r23
100028d8:	0009cac0 	call	10009cac <__sprint_r>
100028dc:	b880030b 	ldhu	r2,12(r23)
100028e0:	1080100c 	andi	r2,r2,64
100028e4:	1005c01e 	bne	r2,zero,10003fe8 <___vfprintf_internal_r+0x1b1c>
100028e8:	d8802f17 	ldw	r2,188(sp)
100028ec:	dfc04717 	ldw	ra,284(sp)
100028f0:	df004617 	ldw	fp,280(sp)
100028f4:	ddc04517 	ldw	r23,276(sp)
100028f8:	dd804417 	ldw	r22,272(sp)
100028fc:	dd404317 	ldw	r21,268(sp)
10002900:	dd004217 	ldw	r20,264(sp)
10002904:	dcc04117 	ldw	r19,260(sp)
10002908:	dc804017 	ldw	r18,256(sp)
1000290c:	dc403f17 	ldw	r17,252(sp)
10002910:	dc003e17 	ldw	r16,248(sp)
10002914:	dec04804 	addi	sp,sp,288
10002918:	f800283a 	ret
1000291c:	d9002d17 	ldw	r4,180(sp)
10002920:	000688c0 	call	1000688c <__sinit>
10002924:	003f0206 	br	10002530 <__alt_data_end+0xf8002530>
10002928:	d9002e17 	ldw	r4,184(sp)
1000292c:	d9402e17 	ldw	r5,184(sp)
10002930:	21000017 	ldw	r4,0(r4)
10002934:	28800104 	addi	r2,r5,4
10002938:	d9003115 	stw	r4,196(sp)
1000293c:	203fa716 	blt	r4,zero,100027dc <__alt_data_end+0xf80027dc>
10002940:	d8802e15 	stw	r2,184(sp)
10002944:	ac400007 	ldb	r17,0(r21)
10002948:	003f4206 	br	10002654 <__alt_data_end+0xf8002654>
1000294c:	ac400007 	ldb	r17,0(r21)
10002950:	01000a84 	movi	r4,42
10002954:	a8c00044 	addi	r3,r21,1
10002958:	89075826 	beq	r17,r4,100046bc <___vfprintf_internal_r+0x21f0>
1000295c:	8cbff404 	addi	r18,r17,-48
10002960:	b486ae36 	bltu	r22,r18,1000441c <___vfprintf_internal_r+0x1f50>
10002964:	0009883a 	mov	r4,zero
10002968:	1823883a 	mov	r17,r3
1000296c:	01400284 	movi	r5,10
10002970:	000c9680 	call	1000c968 <__mulsi3>
10002974:	88c00007 	ldb	r3,0(r17)
10002978:	1489883a 	add	r4,r2,r18
1000297c:	8d400044 	addi	r21,r17,1
10002980:	1cbff404 	addi	r18,r3,-48
10002984:	a823883a 	mov	r17,r21
10002988:	b4bff82e 	bgeu	r22,r18,1000296c <__alt_data_end+0xf800296c>
1000298c:	1823883a 	mov	r17,r3
10002990:	2005f616 	blt	r4,zero,1000416c <___vfprintf_internal_r+0x1ca0>
10002994:	d9002a15 	stw	r4,168(sp)
10002998:	003f2f06 	br	10002658 <__alt_data_end+0xf8002658>
1000299c:	84002014 	ori	r16,r16,128
100029a0:	ac400007 	ldb	r17,0(r21)
100029a4:	003f2b06 	br	10002654 <__alt_data_end+0xf8002654>
100029a8:	8cbff404 	addi	r18,r17,-48
100029ac:	d8003115 	stw	zero,196(sp)
100029b0:	0009883a 	mov	r4,zero
100029b4:	a823883a 	mov	r17,r21
100029b8:	01400284 	movi	r5,10
100029bc:	000c9680 	call	1000c968 <__mulsi3>
100029c0:	88c00007 	ldb	r3,0(r17)
100029c4:	9089883a 	add	r4,r18,r2
100029c8:	ad400044 	addi	r21,r21,1
100029cc:	1cbff404 	addi	r18,r3,-48
100029d0:	a823883a 	mov	r17,r21
100029d4:	b4bff82e 	bgeu	r22,r18,100029b8 <__alt_data_end+0xf80029b8>
100029d8:	1823883a 	mov	r17,r3
100029dc:	d9003115 	stw	r4,196(sp)
100029e0:	003f1d06 	br	10002658 <__alt_data_end+0xf8002658>
100029e4:	8025883a 	mov	r18,r16
100029e8:	dc002903 	ldbu	r16,164(sp)
100029ec:	e011883a 	mov	r8,fp
100029f0:	84003fcc 	andi	r16,r16,255
100029f4:	8007531e 	bne	r16,zero,10004744 <___vfprintf_internal_r+0x2278>
100029f8:	94800414 	ori	r18,r18,16
100029fc:	9080080c 	andi	r2,r18,32
10002a00:	1003a326 	beq	r2,zero,10003890 <___vfprintf_internal_r+0x13c4>
10002a04:	d9002e17 	ldw	r4,184(sp)
10002a08:	20800117 	ldw	r2,4(r4)
10002a0c:	24c00017 	ldw	r19,0(r4)
10002a10:	21000204 	addi	r4,r4,8
10002a14:	d9002e15 	stw	r4,184(sp)
10002a18:	102d883a 	mov	r22,r2
10002a1c:	10047316 	blt	r2,zero,10003bec <___vfprintf_internal_r+0x1720>
10002a20:	d9002a17 	ldw	r4,168(sp)
10002a24:	df002783 	ldbu	fp,158(sp)
10002a28:	2003e416 	blt	r4,zero,100039bc <___vfprintf_internal_r+0x14f0>
10002a2c:	00ffdfc4 	movi	r3,-129
10002a30:	9d84b03a 	or	r2,r19,r22
10002a34:	90e4703a 	and	r18,r18,r3
10002a38:	10018026 	beq	r2,zero,1000303c <___vfprintf_internal_r+0xb70>
10002a3c:	b003ab26 	beq	r22,zero,100038ec <___vfprintf_internal_r+0x1420>
10002a40:	dc402915 	stw	r17,164(sp)
10002a44:	dc001e04 	addi	r16,sp,120
10002a48:	b023883a 	mov	r17,r22
10002a4c:	402d883a 	mov	r22,r8
10002a50:	9809883a 	mov	r4,r19
10002a54:	880b883a 	mov	r5,r17
10002a58:	01800284 	movi	r6,10
10002a5c:	000f883a 	mov	r7,zero
10002a60:	000c1f00 	call	1000c1f0 <__umoddi3>
10002a64:	10800c04 	addi	r2,r2,48
10002a68:	843fffc4 	addi	r16,r16,-1
10002a6c:	9809883a 	mov	r4,r19
10002a70:	880b883a 	mov	r5,r17
10002a74:	80800005 	stb	r2,0(r16)
10002a78:	01800284 	movi	r6,10
10002a7c:	000f883a 	mov	r7,zero
10002a80:	000bbf40 	call	1000bbf4 <__udivdi3>
10002a84:	1027883a 	mov	r19,r2
10002a88:	10c4b03a 	or	r2,r2,r3
10002a8c:	1823883a 	mov	r17,r3
10002a90:	103fef1e 	bne	r2,zero,10002a50 <__alt_data_end+0xf8002a50>
10002a94:	d8c02817 	ldw	r3,160(sp)
10002a98:	dc402917 	ldw	r17,164(sp)
10002a9c:	b011883a 	mov	r8,r22
10002aa0:	1c07c83a 	sub	r3,r3,r16
10002aa4:	d8c02b15 	stw	r3,172(sp)
10002aa8:	00005f06 	br	10002c28 <___vfprintf_internal_r+0x75c>
10002aac:	8025883a 	mov	r18,r16
10002ab0:	dc002903 	ldbu	r16,164(sp)
10002ab4:	e011883a 	mov	r8,fp
10002ab8:	84003fcc 	andi	r16,r16,255
10002abc:	80071e1e 	bne	r16,zero,10004738 <___vfprintf_internal_r+0x226c>
10002ac0:	9080020c 	andi	r2,r18,8
10002ac4:	1004af26 	beq	r2,zero,10003d84 <___vfprintf_internal_r+0x18b8>
10002ac8:	d9002e17 	ldw	r4,184(sp)
10002acc:	d9402e17 	ldw	r5,184(sp)
10002ad0:	d8802e17 	ldw	r2,184(sp)
10002ad4:	21000017 	ldw	r4,0(r4)
10002ad8:	29400117 	ldw	r5,4(r5)
10002adc:	10800204 	addi	r2,r2,8
10002ae0:	d9003615 	stw	r4,216(sp)
10002ae4:	d9403815 	stw	r5,224(sp)
10002ae8:	d8802e15 	stw	r2,184(sp)
10002aec:	d9003617 	ldw	r4,216(sp)
10002af0:	d9403817 	ldw	r5,224(sp)
10002af4:	da003d15 	stw	r8,244(sp)
10002af8:	04000044 	movi	r16,1
10002afc:	00098d00 	call	100098d0 <__fpclassifyd>
10002b00:	da003d17 	ldw	r8,244(sp)
10002b04:	1404441e 	bne	r2,r16,10003c18 <___vfprintf_internal_r+0x174c>
10002b08:	d9003617 	ldw	r4,216(sp)
10002b0c:	d9403817 	ldw	r5,224(sp)
10002b10:	000d883a 	mov	r6,zero
10002b14:	000f883a 	mov	r7,zero
10002b18:	000dd700 	call	1000dd70 <__ledf2>
10002b1c:	da003d17 	ldw	r8,244(sp)
10002b20:	1005e316 	blt	r2,zero,100042b0 <___vfprintf_internal_r+0x1de4>
10002b24:	df002783 	ldbu	fp,158(sp)
10002b28:	008011c4 	movi	r2,71
10002b2c:	1445580e 	bge	r2,r17,10004090 <___vfprintf_internal_r+0x1bc4>
10002b30:	04040074 	movhi	r16,4097
10002b34:	84088004 	addi	r16,r16,8704
10002b38:	00c000c4 	movi	r3,3
10002b3c:	00bfdfc4 	movi	r2,-129
10002b40:	d8c02915 	stw	r3,164(sp)
10002b44:	90a4703a 	and	r18,r18,r2
10002b48:	d8c02b15 	stw	r3,172(sp)
10002b4c:	d8002a15 	stw	zero,168(sp)
10002b50:	d8003215 	stw	zero,200(sp)
10002b54:	00003a06 	br	10002c40 <___vfprintf_internal_r+0x774>
10002b58:	84000214 	ori	r16,r16,8
10002b5c:	ac400007 	ldb	r17,0(r21)
10002b60:	003ebc06 	br	10002654 <__alt_data_end+0xf8002654>
10002b64:	8025883a 	mov	r18,r16
10002b68:	dc002903 	ldbu	r16,164(sp)
10002b6c:	e011883a 	mov	r8,fp
10002b70:	84003fcc 	andi	r16,r16,255
10002b74:	8007001e 	bne	r16,zero,10004778 <___vfprintf_internal_r+0x22ac>
10002b78:	94800414 	ori	r18,r18,16
10002b7c:	9080080c 	andi	r2,r18,32
10002b80:	1002fa26 	beq	r2,zero,1000376c <___vfprintf_internal_r+0x12a0>
10002b84:	d9002e17 	ldw	r4,184(sp)
10002b88:	d9402a17 	ldw	r5,168(sp)
10002b8c:	d8002785 	stb	zero,158(sp)
10002b90:	20800204 	addi	r2,r4,8
10002b94:	24c00017 	ldw	r19,0(r4)
10002b98:	25800117 	ldw	r22,4(r4)
10002b9c:	2804b116 	blt	r5,zero,10003e64 <___vfprintf_internal_r+0x1998>
10002ba0:	013fdfc4 	movi	r4,-129
10002ba4:	9d86b03a 	or	r3,r19,r22
10002ba8:	d8802e15 	stw	r2,184(sp)
10002bac:	9124703a 	and	r18,r18,r4
10002bb0:	1802fb1e 	bne	r3,zero,100037a0 <___vfprintf_internal_r+0x12d4>
10002bb4:	d8c02a17 	ldw	r3,168(sp)
10002bb8:	0039883a 	mov	fp,zero
10002bbc:	1805e526 	beq	r3,zero,10004354 <___vfprintf_internal_r+0x1e88>
10002bc0:	0027883a 	mov	r19,zero
10002bc4:	002d883a 	mov	r22,zero
10002bc8:	dc001e04 	addi	r16,sp,120
10002bcc:	9806d0fa 	srli	r3,r19,3
10002bd0:	b008977a 	slli	r4,r22,29
10002bd4:	b02cd0fa 	srli	r22,r22,3
10002bd8:	9cc001cc 	andi	r19,r19,7
10002bdc:	98800c04 	addi	r2,r19,48
10002be0:	843fffc4 	addi	r16,r16,-1
10002be4:	20e6b03a 	or	r19,r4,r3
10002be8:	80800005 	stb	r2,0(r16)
10002bec:	9d86b03a 	or	r3,r19,r22
10002bf0:	183ff61e 	bne	r3,zero,10002bcc <__alt_data_end+0xf8002bcc>
10002bf4:	90c0004c 	andi	r3,r18,1
10002bf8:	18014126 	beq	r3,zero,10003100 <___vfprintf_internal_r+0xc34>
10002bfc:	10803fcc 	andi	r2,r2,255
10002c00:	1080201c 	xori	r2,r2,128
10002c04:	10bfe004 	addi	r2,r2,-128
10002c08:	00c00c04 	movi	r3,48
10002c0c:	10c13c26 	beq	r2,r3,10003100 <___vfprintf_internal_r+0xc34>
10002c10:	80ffffc5 	stb	r3,-1(r16)
10002c14:	d8c02817 	ldw	r3,160(sp)
10002c18:	80bfffc4 	addi	r2,r16,-1
10002c1c:	1021883a 	mov	r16,r2
10002c20:	1887c83a 	sub	r3,r3,r2
10002c24:	d8c02b15 	stw	r3,172(sp)
10002c28:	d8802b17 	ldw	r2,172(sp)
10002c2c:	d9002a17 	ldw	r4,168(sp)
10002c30:	1100010e 	bge	r2,r4,10002c38 <___vfprintf_internal_r+0x76c>
10002c34:	2005883a 	mov	r2,r4
10002c38:	d8802915 	stw	r2,164(sp)
10002c3c:	d8003215 	stw	zero,200(sp)
10002c40:	e7003fcc 	andi	fp,fp,255
10002c44:	e700201c 	xori	fp,fp,128
10002c48:	e73fe004 	addi	fp,fp,-128
10002c4c:	e0000326 	beq	fp,zero,10002c5c <___vfprintf_internal_r+0x790>
10002c50:	d8c02917 	ldw	r3,164(sp)
10002c54:	18c00044 	addi	r3,r3,1
10002c58:	d8c02915 	stw	r3,164(sp)
10002c5c:	90c0008c 	andi	r3,r18,2
10002c60:	d8c02c15 	stw	r3,176(sp)
10002c64:	18000326 	beq	r3,zero,10002c74 <___vfprintf_internal_r+0x7a8>
10002c68:	d8c02917 	ldw	r3,164(sp)
10002c6c:	18c00084 	addi	r3,r3,2
10002c70:	d8c02915 	stw	r3,164(sp)
10002c74:	90c0210c 	andi	r3,r18,132
10002c78:	d8c03015 	stw	r3,192(sp)
10002c7c:	1801c51e 	bne	r3,zero,10003394 <___vfprintf_internal_r+0xec8>
10002c80:	d9003117 	ldw	r4,196(sp)
10002c84:	d8c02917 	ldw	r3,164(sp)
10002c88:	20e7c83a 	sub	r19,r4,r3
10002c8c:	04c1c10e 	bge	zero,r19,10003394 <___vfprintf_internal_r+0xec8>
10002c90:	02400404 	movi	r9,16
10002c94:	d8c02017 	ldw	r3,128(sp)
10002c98:	d8801f17 	ldw	r2,124(sp)
10002c9c:	4cc52f0e 	bge	r9,r19,1000415c <___vfprintf_internal_r+0x1c90>
10002ca0:	01440074 	movhi	r5,4097
10002ca4:	29489384 	addi	r5,r5,8782
10002ca8:	dc403b15 	stw	r17,236(sp)
10002cac:	d9403515 	stw	r5,212(sp)
10002cb0:	9823883a 	mov	r17,r19
10002cb4:	482d883a 	mov	r22,r9
10002cb8:	9027883a 	mov	r19,r18
10002cbc:	070001c4 	movi	fp,7
10002cc0:	8025883a 	mov	r18,r16
10002cc4:	dc002d17 	ldw	r16,180(sp)
10002cc8:	00000306 	br	10002cd8 <___vfprintf_internal_r+0x80c>
10002ccc:	8c7ffc04 	addi	r17,r17,-16
10002cd0:	42000204 	addi	r8,r8,8
10002cd4:	b440130e 	bge	r22,r17,10002d24 <___vfprintf_internal_r+0x858>
10002cd8:	01040074 	movhi	r4,4097
10002cdc:	18c00404 	addi	r3,r3,16
10002ce0:	10800044 	addi	r2,r2,1
10002ce4:	21089384 	addi	r4,r4,8782
10002ce8:	41000015 	stw	r4,0(r8)
10002cec:	45800115 	stw	r22,4(r8)
10002cf0:	d8c02015 	stw	r3,128(sp)
10002cf4:	d8801f15 	stw	r2,124(sp)
10002cf8:	e0bff40e 	bge	fp,r2,10002ccc <__alt_data_end+0xf8002ccc>
10002cfc:	d9801e04 	addi	r6,sp,120
10002d00:	b80b883a 	mov	r5,r23
10002d04:	8009883a 	mov	r4,r16
10002d08:	0009cac0 	call	10009cac <__sprint_r>
10002d0c:	103ef31e 	bne	r2,zero,100028dc <__alt_data_end+0xf80028dc>
10002d10:	8c7ffc04 	addi	r17,r17,-16
10002d14:	d8c02017 	ldw	r3,128(sp)
10002d18:	d8801f17 	ldw	r2,124(sp)
10002d1c:	da000404 	addi	r8,sp,16
10002d20:	b47fed16 	blt	r22,r17,10002cd8 <__alt_data_end+0xf8002cd8>
10002d24:	9021883a 	mov	r16,r18
10002d28:	9825883a 	mov	r18,r19
10002d2c:	8827883a 	mov	r19,r17
10002d30:	dc403b17 	ldw	r17,236(sp)
10002d34:	d9403517 	ldw	r5,212(sp)
10002d38:	98c7883a 	add	r3,r19,r3
10002d3c:	10800044 	addi	r2,r2,1
10002d40:	41400015 	stw	r5,0(r8)
10002d44:	44c00115 	stw	r19,4(r8)
10002d48:	d8c02015 	stw	r3,128(sp)
10002d4c:	d8801f15 	stw	r2,124(sp)
10002d50:	010001c4 	movi	r4,7
10002d54:	2082c516 	blt	r4,r2,1000386c <___vfprintf_internal_r+0x13a0>
10002d58:	df002787 	ldb	fp,158(sp)
10002d5c:	42000204 	addi	r8,r8,8
10002d60:	e0000c26 	beq	fp,zero,10002d94 <___vfprintf_internal_r+0x8c8>
10002d64:	d8801f17 	ldw	r2,124(sp)
10002d68:	d9002784 	addi	r4,sp,158
10002d6c:	18c00044 	addi	r3,r3,1
10002d70:	10800044 	addi	r2,r2,1
10002d74:	41000015 	stw	r4,0(r8)
10002d78:	01000044 	movi	r4,1
10002d7c:	41000115 	stw	r4,4(r8)
10002d80:	d8c02015 	stw	r3,128(sp)
10002d84:	d8801f15 	stw	r2,124(sp)
10002d88:	010001c4 	movi	r4,7
10002d8c:	20825e16 	blt	r4,r2,10003708 <___vfprintf_internal_r+0x123c>
10002d90:	42000204 	addi	r8,r8,8
10002d94:	d8802c17 	ldw	r2,176(sp)
10002d98:	10000c26 	beq	r2,zero,10002dcc <___vfprintf_internal_r+0x900>
10002d9c:	d8801f17 	ldw	r2,124(sp)
10002da0:	d9002704 	addi	r4,sp,156
10002da4:	18c00084 	addi	r3,r3,2
10002da8:	10800044 	addi	r2,r2,1
10002dac:	41000015 	stw	r4,0(r8)
10002db0:	01000084 	movi	r4,2
10002db4:	41000115 	stw	r4,4(r8)
10002db8:	d8c02015 	stw	r3,128(sp)
10002dbc:	d8801f15 	stw	r2,124(sp)
10002dc0:	010001c4 	movi	r4,7
10002dc4:	20825816 	blt	r4,r2,10003728 <___vfprintf_internal_r+0x125c>
10002dc8:	42000204 	addi	r8,r8,8
10002dcc:	d9003017 	ldw	r4,192(sp)
10002dd0:	00802004 	movi	r2,128
10002dd4:	2081bb26 	beq	r4,r2,100034c4 <___vfprintf_internal_r+0xff8>
10002dd8:	d9402a17 	ldw	r5,168(sp)
10002ddc:	d8802b17 	ldw	r2,172(sp)
10002de0:	28adc83a 	sub	r22,r5,r2
10002de4:	0580310e 	bge	zero,r22,10002eac <___vfprintf_internal_r+0x9e0>
10002de8:	07000404 	movi	fp,16
10002dec:	d8801f17 	ldw	r2,124(sp)
10002df0:	e584360e 	bge	fp,r22,10003ecc <___vfprintf_internal_r+0x1a00>
10002df4:	01440074 	movhi	r5,4097
10002df8:	29488f84 	addi	r5,r5,8766
10002dfc:	dc402a15 	stw	r17,168(sp)
10002e00:	d9402c15 	stw	r5,176(sp)
10002e04:	b023883a 	mov	r17,r22
10002e08:	04c001c4 	movi	r19,7
10002e0c:	a82d883a 	mov	r22,r21
10002e10:	902b883a 	mov	r21,r18
10002e14:	8025883a 	mov	r18,r16
10002e18:	dc002d17 	ldw	r16,180(sp)
10002e1c:	00000306 	br	10002e2c <___vfprintf_internal_r+0x960>
10002e20:	8c7ffc04 	addi	r17,r17,-16
10002e24:	42000204 	addi	r8,r8,8
10002e28:	e440110e 	bge	fp,r17,10002e70 <___vfprintf_internal_r+0x9a4>
10002e2c:	18c00404 	addi	r3,r3,16
10002e30:	10800044 	addi	r2,r2,1
10002e34:	45000015 	stw	r20,0(r8)
10002e38:	47000115 	stw	fp,4(r8)
10002e3c:	d8c02015 	stw	r3,128(sp)
10002e40:	d8801f15 	stw	r2,124(sp)
10002e44:	98bff60e 	bge	r19,r2,10002e20 <__alt_data_end+0xf8002e20>
10002e48:	d9801e04 	addi	r6,sp,120
10002e4c:	b80b883a 	mov	r5,r23
10002e50:	8009883a 	mov	r4,r16
10002e54:	0009cac0 	call	10009cac <__sprint_r>
10002e58:	103ea01e 	bne	r2,zero,100028dc <__alt_data_end+0xf80028dc>
10002e5c:	8c7ffc04 	addi	r17,r17,-16
10002e60:	d8c02017 	ldw	r3,128(sp)
10002e64:	d8801f17 	ldw	r2,124(sp)
10002e68:	da000404 	addi	r8,sp,16
10002e6c:	e47fef16 	blt	fp,r17,10002e2c <__alt_data_end+0xf8002e2c>
10002e70:	9021883a 	mov	r16,r18
10002e74:	a825883a 	mov	r18,r21
10002e78:	b02b883a 	mov	r21,r22
10002e7c:	882d883a 	mov	r22,r17
10002e80:	dc402a17 	ldw	r17,168(sp)
10002e84:	d9002c17 	ldw	r4,176(sp)
10002e88:	1d87883a 	add	r3,r3,r22
10002e8c:	10800044 	addi	r2,r2,1
10002e90:	41000015 	stw	r4,0(r8)
10002e94:	45800115 	stw	r22,4(r8)
10002e98:	d8c02015 	stw	r3,128(sp)
10002e9c:	d8801f15 	stw	r2,124(sp)
10002ea0:	010001c4 	movi	r4,7
10002ea4:	20821016 	blt	r4,r2,100036e8 <___vfprintf_internal_r+0x121c>
10002ea8:	42000204 	addi	r8,r8,8
10002eac:	9080400c 	andi	r2,r18,256
10002eb0:	10013a1e 	bne	r2,zero,1000339c <___vfprintf_internal_r+0xed0>
10002eb4:	d9402b17 	ldw	r5,172(sp)
10002eb8:	d8801f17 	ldw	r2,124(sp)
10002ebc:	44000015 	stw	r16,0(r8)
10002ec0:	1947883a 	add	r3,r3,r5
10002ec4:	10800044 	addi	r2,r2,1
10002ec8:	41400115 	stw	r5,4(r8)
10002ecc:	d8c02015 	stw	r3,128(sp)
10002ed0:	d8801f15 	stw	r2,124(sp)
10002ed4:	010001c4 	movi	r4,7
10002ed8:	2081f516 	blt	r4,r2,100036b0 <___vfprintf_internal_r+0x11e4>
10002edc:	42000204 	addi	r8,r8,8
10002ee0:	9480010c 	andi	r18,r18,4
10002ee4:	90003226 	beq	r18,zero,10002fb0 <___vfprintf_internal_r+0xae4>
10002ee8:	d9403117 	ldw	r5,196(sp)
10002eec:	d8802917 	ldw	r2,164(sp)
10002ef0:	28a1c83a 	sub	r16,r5,r2
10002ef4:	04002e0e 	bge	zero,r16,10002fb0 <___vfprintf_internal_r+0xae4>
10002ef8:	04400404 	movi	r17,16
10002efc:	d8801f17 	ldw	r2,124(sp)
10002f00:	8c04c40e 	bge	r17,r16,10004214 <___vfprintf_internal_r+0x1d48>
10002f04:	01440074 	movhi	r5,4097
10002f08:	29489384 	addi	r5,r5,8782
10002f0c:	d9403515 	stw	r5,212(sp)
10002f10:	048001c4 	movi	r18,7
10002f14:	dcc02d17 	ldw	r19,180(sp)
10002f18:	00000306 	br	10002f28 <___vfprintf_internal_r+0xa5c>
10002f1c:	843ffc04 	addi	r16,r16,-16
10002f20:	42000204 	addi	r8,r8,8
10002f24:	8c00130e 	bge	r17,r16,10002f74 <___vfprintf_internal_r+0xaa8>
10002f28:	01040074 	movhi	r4,4097
10002f2c:	18c00404 	addi	r3,r3,16
10002f30:	10800044 	addi	r2,r2,1
10002f34:	21089384 	addi	r4,r4,8782
10002f38:	41000015 	stw	r4,0(r8)
10002f3c:	44400115 	stw	r17,4(r8)
10002f40:	d8c02015 	stw	r3,128(sp)
10002f44:	d8801f15 	stw	r2,124(sp)
10002f48:	90bff40e 	bge	r18,r2,10002f1c <__alt_data_end+0xf8002f1c>
10002f4c:	d9801e04 	addi	r6,sp,120
10002f50:	b80b883a 	mov	r5,r23
10002f54:	9809883a 	mov	r4,r19
10002f58:	0009cac0 	call	10009cac <__sprint_r>
10002f5c:	103e5f1e 	bne	r2,zero,100028dc <__alt_data_end+0xf80028dc>
10002f60:	843ffc04 	addi	r16,r16,-16
10002f64:	d8c02017 	ldw	r3,128(sp)
10002f68:	d8801f17 	ldw	r2,124(sp)
10002f6c:	da000404 	addi	r8,sp,16
10002f70:	8c3fed16 	blt	r17,r16,10002f28 <__alt_data_end+0xf8002f28>
10002f74:	d9403517 	ldw	r5,212(sp)
10002f78:	1c07883a 	add	r3,r3,r16
10002f7c:	10800044 	addi	r2,r2,1
10002f80:	41400015 	stw	r5,0(r8)
10002f84:	44000115 	stw	r16,4(r8)
10002f88:	d8c02015 	stw	r3,128(sp)
10002f8c:	d8801f15 	stw	r2,124(sp)
10002f90:	010001c4 	movi	r4,7
10002f94:	2080060e 	bge	r4,r2,10002fb0 <___vfprintf_internal_r+0xae4>
10002f98:	d9002d17 	ldw	r4,180(sp)
10002f9c:	d9801e04 	addi	r6,sp,120
10002fa0:	b80b883a 	mov	r5,r23
10002fa4:	0009cac0 	call	10009cac <__sprint_r>
10002fa8:	103e4c1e 	bne	r2,zero,100028dc <__alt_data_end+0xf80028dc>
10002fac:	d8c02017 	ldw	r3,128(sp)
10002fb0:	d8803117 	ldw	r2,196(sp)
10002fb4:	d9002917 	ldw	r4,164(sp)
10002fb8:	1100010e 	bge	r2,r4,10002fc0 <___vfprintf_internal_r+0xaf4>
10002fbc:	2005883a 	mov	r2,r4
10002fc0:	d9402f17 	ldw	r5,188(sp)
10002fc4:	288b883a 	add	r5,r5,r2
10002fc8:	d9402f15 	stw	r5,188(sp)
10002fcc:	1801c01e 	bne	r3,zero,100036d0 <___vfprintf_internal_r+0x1204>
10002fd0:	a8800007 	ldb	r2,0(r21)
10002fd4:	d8001f15 	stw	zero,124(sp)
10002fd8:	da000404 	addi	r8,sp,16
10002fdc:	103d751e 	bne	r2,zero,100025b4 <__alt_data_end+0xf80025b4>
10002fe0:	a823883a 	mov	r17,r21
10002fe4:	003d8b06 	br	10002614 <__alt_data_end+0xf8002614>
10002fe8:	8025883a 	mov	r18,r16
10002fec:	dc002903 	ldbu	r16,164(sp)
10002ff0:	e011883a 	mov	r8,fp
10002ff4:	84003fcc 	andi	r16,r16,255
10002ff8:	8005e51e 	bne	r16,zero,10004790 <___vfprintf_internal_r+0x22c4>
10002ffc:	94800414 	ori	r18,r18,16
10003000:	9080080c 	andi	r2,r18,32
10003004:	10022b26 	beq	r2,zero,100038b4 <___vfprintf_internal_r+0x13e8>
10003008:	d9002e17 	ldw	r4,184(sp)
1000300c:	d9402a17 	ldw	r5,168(sp)
10003010:	d8002785 	stb	zero,158(sp)
10003014:	20c00204 	addi	r3,r4,8
10003018:	24c00017 	ldw	r19,0(r4)
1000301c:	25800117 	ldw	r22,4(r4)
10003020:	28042e16 	blt	r5,zero,100040dc <___vfprintf_internal_r+0x1c10>
10003024:	013fdfc4 	movi	r4,-129
10003028:	9d84b03a 	or	r2,r19,r22
1000302c:	d8c02e15 	stw	r3,184(sp)
10003030:	9124703a 	and	r18,r18,r4
10003034:	0039883a 	mov	fp,zero
10003038:	103e801e 	bne	r2,zero,10002a3c <__alt_data_end+0xf8002a3c>
1000303c:	d9002a17 	ldw	r4,168(sp)
10003040:	2002e01e 	bne	r4,zero,10003bc4 <___vfprintf_internal_r+0x16f8>
10003044:	d8002a15 	stw	zero,168(sp)
10003048:	d8002b15 	stw	zero,172(sp)
1000304c:	dc001e04 	addi	r16,sp,120
10003050:	003ef506 	br	10002c28 <__alt_data_end+0xf8002c28>
10003054:	8025883a 	mov	r18,r16
10003058:	dc002903 	ldbu	r16,164(sp)
1000305c:	e011883a 	mov	r8,fp
10003060:	84003fcc 	andi	r16,r16,255
10003064:	8005ba1e 	bne	r16,zero,10004750 <___vfprintf_internal_r+0x2284>
10003068:	01040074 	movhi	r4,4097
1000306c:	21088304 	addi	r4,r4,8716
10003070:	d9003915 	stw	r4,228(sp)
10003074:	9080080c 	andi	r2,r18,32
10003078:	10006126 	beq	r2,zero,10003200 <___vfprintf_internal_r+0xd34>
1000307c:	d9402e17 	ldw	r5,184(sp)
10003080:	2cc00017 	ldw	r19,0(r5)
10003084:	2d800117 	ldw	r22,4(r5)
10003088:	29400204 	addi	r5,r5,8
1000308c:	d9402e15 	stw	r5,184(sp)
10003090:	9080004c 	andi	r2,r18,1
10003094:	1001ac26 	beq	r2,zero,10003748 <___vfprintf_internal_r+0x127c>
10003098:	9d84b03a 	or	r2,r19,r22
1000309c:	10038526 	beq	r2,zero,10003eb4 <___vfprintf_internal_r+0x19e8>
100030a0:	d8c02a17 	ldw	r3,168(sp)
100030a4:	00800c04 	movi	r2,48
100030a8:	d8802705 	stb	r2,156(sp)
100030ac:	dc402745 	stb	r17,157(sp)
100030b0:	d8002785 	stb	zero,158(sp)
100030b4:	90800094 	ori	r2,r18,2
100030b8:	18047916 	blt	r3,zero,100042a0 <___vfprintf_internal_r+0x1dd4>
100030bc:	00bfdfc4 	movi	r2,-129
100030c0:	90a4703a 	and	r18,r18,r2
100030c4:	94800094 	ori	r18,r18,2
100030c8:	0039883a 	mov	fp,zero
100030cc:	d9003917 	ldw	r4,228(sp)
100030d0:	dc001e04 	addi	r16,sp,120
100030d4:	988003cc 	andi	r2,r19,15
100030d8:	b006973a 	slli	r3,r22,28
100030dc:	2085883a 	add	r2,r4,r2
100030e0:	9826d13a 	srli	r19,r19,4
100030e4:	10800003 	ldbu	r2,0(r2)
100030e8:	b02cd13a 	srli	r22,r22,4
100030ec:	843fffc4 	addi	r16,r16,-1
100030f0:	1ce6b03a 	or	r19,r3,r19
100030f4:	80800005 	stb	r2,0(r16)
100030f8:	9d84b03a 	or	r2,r19,r22
100030fc:	103ff51e 	bne	r2,zero,100030d4 <__alt_data_end+0xf80030d4>
10003100:	d8c02817 	ldw	r3,160(sp)
10003104:	1c07c83a 	sub	r3,r3,r16
10003108:	d8c02b15 	stw	r3,172(sp)
1000310c:	003ec606 	br	10002c28 <__alt_data_end+0xf8002c28>
10003110:	8025883a 	mov	r18,r16
10003114:	dc002903 	ldbu	r16,164(sp)
10003118:	e011883a 	mov	r8,fp
1000311c:	84003fcc 	andi	r16,r16,255
10003120:	803e9626 	beq	r16,zero,10002b7c <__alt_data_end+0xf8002b7c>
10003124:	d8c02b03 	ldbu	r3,172(sp)
10003128:	d8c02785 	stb	r3,158(sp)
1000312c:	003e9306 	br	10002b7c <__alt_data_end+0xf8002b7c>
10003130:	00c00044 	movi	r3,1
10003134:	d8c02905 	stb	r3,164(sp)
10003138:	00c00ac4 	movi	r3,43
1000313c:	d8c02b05 	stb	r3,172(sp)
10003140:	ac400007 	ldb	r17,0(r21)
10003144:	003d4306 	br	10002654 <__alt_data_end+0xf8002654>
10003148:	84000814 	ori	r16,r16,32
1000314c:	ac400007 	ldb	r17,0(r21)
10003150:	003d4006 	br	10002654 <__alt_data_end+0xf8002654>
10003154:	d8802e17 	ldw	r2,184(sp)
10003158:	8025883a 	mov	r18,r16
1000315c:	d8002785 	stb	zero,158(sp)
10003160:	14000017 	ldw	r16,0(r2)
10003164:	e011883a 	mov	r8,fp
10003168:	14c00104 	addi	r19,r2,4
1000316c:	80042d26 	beq	r16,zero,10004224 <___vfprintf_internal_r+0x1d58>
10003170:	d8c02a17 	ldw	r3,168(sp)
10003174:	1803e416 	blt	r3,zero,10004108 <___vfprintf_internal_r+0x1c3c>
10003178:	180d883a 	mov	r6,r3
1000317c:	000b883a 	mov	r5,zero
10003180:	8009883a 	mov	r4,r16
10003184:	df003d15 	stw	fp,244(sp)
10003188:	0007e040 	call	10007e04 <memchr>
1000318c:	da003d17 	ldw	r8,244(sp)
10003190:	10046826 	beq	r2,zero,10004334 <___vfprintf_internal_r+0x1e68>
10003194:	1405c83a 	sub	r2,r2,r16
10003198:	d8802b15 	stw	r2,172(sp)
1000319c:	1003e016 	blt	r2,zero,10004120 <___vfprintf_internal_r+0x1c54>
100031a0:	df002783 	ldbu	fp,158(sp)
100031a4:	d8802915 	stw	r2,164(sp)
100031a8:	dcc02e15 	stw	r19,184(sp)
100031ac:	d8002a15 	stw	zero,168(sp)
100031b0:	d8003215 	stw	zero,200(sp)
100031b4:	003ea206 	br	10002c40 <__alt_data_end+0xf8002c40>
100031b8:	8025883a 	mov	r18,r16
100031bc:	dc002903 	ldbu	r16,164(sp)
100031c0:	e011883a 	mov	r8,fp
100031c4:	84003fcc 	andi	r16,r16,255
100031c8:	803f8d26 	beq	r16,zero,10003000 <__alt_data_end+0xf8003000>
100031cc:	d8c02b03 	ldbu	r3,172(sp)
100031d0:	d8c02785 	stb	r3,158(sp)
100031d4:	003f8a06 	br	10003000 <__alt_data_end+0xf8003000>
100031d8:	8025883a 	mov	r18,r16
100031dc:	dc002903 	ldbu	r16,164(sp)
100031e0:	e011883a 	mov	r8,fp
100031e4:	84003fcc 	andi	r16,r16,255
100031e8:	8005661e 	bne	r16,zero,10004784 <___vfprintf_internal_r+0x22b8>
100031ec:	01040074 	movhi	r4,4097
100031f0:	21088804 	addi	r4,r4,8736
100031f4:	d9003915 	stw	r4,228(sp)
100031f8:	9080080c 	andi	r2,r18,32
100031fc:	103f9f1e 	bne	r2,zero,1000307c <__alt_data_end+0xf800307c>
10003200:	9080040c 	andi	r2,r18,16
10003204:	1002eb26 	beq	r2,zero,10003db4 <___vfprintf_internal_r+0x18e8>
10003208:	d8802e17 	ldw	r2,184(sp)
1000320c:	002d883a 	mov	r22,zero
10003210:	14c00017 	ldw	r19,0(r2)
10003214:	10800104 	addi	r2,r2,4
10003218:	d8802e15 	stw	r2,184(sp)
1000321c:	003f9c06 	br	10003090 <__alt_data_end+0xf8003090>
10003220:	d8802b07 	ldb	r2,172(sp)
10003224:	1002e11e 	bne	r2,zero,10003dac <___vfprintf_internal_r+0x18e0>
10003228:	00c00044 	movi	r3,1
1000322c:	d8c02905 	stb	r3,164(sp)
10003230:	00c00804 	movi	r3,32
10003234:	d8c02b05 	stb	r3,172(sp)
10003238:	ac400007 	ldb	r17,0(r21)
1000323c:	003d0506 	br	10002654 <__alt_data_end+0xf8002654>
10003240:	84000054 	ori	r16,r16,1
10003244:	ac400007 	ldb	r17,0(r21)
10003248:	003d0206 	br	10002654 <__alt_data_end+0xf8002654>
1000324c:	8025883a 	mov	r18,r16
10003250:	dc002903 	ldbu	r16,164(sp)
10003254:	e011883a 	mov	r8,fp
10003258:	84003fcc 	andi	r16,r16,255
1000325c:	803de726 	beq	r16,zero,100029fc <__alt_data_end+0xf80029fc>
10003260:	d8c02b03 	ldbu	r3,172(sp)
10003264:	d8c02785 	stb	r3,158(sp)
10003268:	003de406 	br	100029fc <__alt_data_end+0xf80029fc>
1000326c:	84001014 	ori	r16,r16,64
10003270:	ac400007 	ldb	r17,0(r21)
10003274:	003cf706 	br	10002654 <__alt_data_end+0xf8002654>
10003278:	ac400007 	ldb	r17,0(r21)
1000327c:	00801b04 	movi	r2,108
10003280:	88838f26 	beq	r17,r2,100040c0 <___vfprintf_internal_r+0x1bf4>
10003284:	84000414 	ori	r16,r16,16
10003288:	003cf206 	br	10002654 <__alt_data_end+0xf8002654>
1000328c:	8025883a 	mov	r18,r16
10003290:	dc002903 	ldbu	r16,164(sp)
10003294:	e011883a 	mov	r8,fp
10003298:	84003fcc 	andi	r16,r16,255
1000329c:	80053f1e 	bne	r16,zero,1000479c <___vfprintf_internal_r+0x22d0>
100032a0:	9080080c 	andi	r2,r18,32
100032a4:	1002d226 	beq	r2,zero,10003df0 <___vfprintf_internal_r+0x1924>
100032a8:	d9002e17 	ldw	r4,184(sp)
100032ac:	d9402f17 	ldw	r5,188(sp)
100032b0:	20800017 	ldw	r2,0(r4)
100032b4:	2807d7fa 	srai	r3,r5,31
100032b8:	21000104 	addi	r4,r4,4
100032bc:	d9002e15 	stw	r4,184(sp)
100032c0:	11400015 	stw	r5,0(r2)
100032c4:	10c00115 	stw	r3,4(r2)
100032c8:	003cb806 	br	100025ac <__alt_data_end+0xf80025ac>
100032cc:	d8c02e17 	ldw	r3,184(sp)
100032d0:	d9002e17 	ldw	r4,184(sp)
100032d4:	8025883a 	mov	r18,r16
100032d8:	18800017 	ldw	r2,0(r3)
100032dc:	21000104 	addi	r4,r4,4
100032e0:	00c00044 	movi	r3,1
100032e4:	e011883a 	mov	r8,fp
100032e8:	d8c02915 	stw	r3,164(sp)
100032ec:	d8002785 	stb	zero,158(sp)
100032f0:	d8801405 	stb	r2,80(sp)
100032f4:	d9002e15 	stw	r4,184(sp)
100032f8:	d8c02b15 	stw	r3,172(sp)
100032fc:	d8002a15 	stw	zero,168(sp)
10003300:	d8003215 	stw	zero,200(sp)
10003304:	dc001404 	addi	r16,sp,80
10003308:	0039883a 	mov	fp,zero
1000330c:	003e5306 	br	10002c5c <__alt_data_end+0xf8002c5c>
10003310:	01040074 	movhi	r4,4097
10003314:	21088804 	addi	r4,r4,8736
10003318:	0039883a 	mov	fp,zero
1000331c:	d9003915 	stw	r4,228(sp)
10003320:	04401e04 	movi	r17,120
10003324:	003f6906 	br	100030cc <__alt_data_end+0xf80030cc>
10003328:	8025883a 	mov	r18,r16
1000332c:	dc002903 	ldbu	r16,164(sp)
10003330:	e011883a 	mov	r8,fp
10003334:	84003fcc 	andi	r16,r16,255
10003338:	8005081e 	bne	r16,zero,1000475c <___vfprintf_internal_r+0x2290>
1000333c:	883d6126 	beq	r17,zero,100028c4 <__alt_data_end+0xf80028c4>
10003340:	00c00044 	movi	r3,1
10003344:	d8c02915 	stw	r3,164(sp)
10003348:	dc401405 	stb	r17,80(sp)
1000334c:	d8002785 	stb	zero,158(sp)
10003350:	003fe906 	br	100032f8 <__alt_data_end+0xf80032f8>
10003354:	01440074 	movhi	r5,4097
10003358:	29488804 	addi	r5,r5,8736
1000335c:	d9403915 	stw	r5,228(sp)
10003360:	d8c02e15 	stw	r3,184(sp)
10003364:	1025883a 	mov	r18,r2
10003368:	04401e04 	movi	r17,120
1000336c:	9d84b03a 	or	r2,r19,r22
10003370:	1000fc1e 	bne	r2,zero,10003764 <___vfprintf_internal_r+0x1298>
10003374:	0039883a 	mov	fp,zero
10003378:	00800084 	movi	r2,2
1000337c:	10803fcc 	andi	r2,r2,255
10003380:	00c00044 	movi	r3,1
10003384:	10c20f26 	beq	r2,r3,10003bc4 <___vfprintf_internal_r+0x16f8>
10003388:	00c00084 	movi	r3,2
1000338c:	10fd3326 	beq	r2,r3,1000285c <__alt_data_end+0xf800285c>
10003390:	003e0b06 	br	10002bc0 <__alt_data_end+0xf8002bc0>
10003394:	d8c02017 	ldw	r3,128(sp)
10003398:	003e7106 	br	10002d60 <__alt_data_end+0xf8002d60>
1000339c:	00801944 	movi	r2,101
100033a0:	14407e0e 	bge	r2,r17,1000359c <___vfprintf_internal_r+0x10d0>
100033a4:	d9003617 	ldw	r4,216(sp)
100033a8:	d9403817 	ldw	r5,224(sp)
100033ac:	000d883a 	mov	r6,zero
100033b0:	000f883a 	mov	r7,zero
100033b4:	d8c03c15 	stw	r3,240(sp)
100033b8:	da003d15 	stw	r8,244(sp)
100033bc:	000dc0c0 	call	1000dc0c <__eqdf2>
100033c0:	d8c03c17 	ldw	r3,240(sp)
100033c4:	da003d17 	ldw	r8,244(sp)
100033c8:	1000f71e 	bne	r2,zero,100037a8 <___vfprintf_internal_r+0x12dc>
100033cc:	d8801f17 	ldw	r2,124(sp)
100033d0:	01040074 	movhi	r4,4097
100033d4:	21088f04 	addi	r4,r4,8764
100033d8:	18c00044 	addi	r3,r3,1
100033dc:	10800044 	addi	r2,r2,1
100033e0:	41000015 	stw	r4,0(r8)
100033e4:	01000044 	movi	r4,1
100033e8:	41000115 	stw	r4,4(r8)
100033ec:	d8c02015 	stw	r3,128(sp)
100033f0:	d8801f15 	stw	r2,124(sp)
100033f4:	010001c4 	movi	r4,7
100033f8:	2082b816 	blt	r4,r2,10003edc <___vfprintf_internal_r+0x1a10>
100033fc:	42000204 	addi	r8,r8,8
10003400:	d8802617 	ldw	r2,152(sp)
10003404:	d9403317 	ldw	r5,204(sp)
10003408:	11400216 	blt	r2,r5,10003414 <___vfprintf_internal_r+0xf48>
1000340c:	9080004c 	andi	r2,r18,1
10003410:	103eb326 	beq	r2,zero,10002ee0 <__alt_data_end+0xf8002ee0>
10003414:	d8803717 	ldw	r2,220(sp)
10003418:	d9003417 	ldw	r4,208(sp)
1000341c:	d9403717 	ldw	r5,220(sp)
10003420:	1887883a 	add	r3,r3,r2
10003424:	d8801f17 	ldw	r2,124(sp)
10003428:	41000015 	stw	r4,0(r8)
1000342c:	41400115 	stw	r5,4(r8)
10003430:	10800044 	addi	r2,r2,1
10003434:	d8c02015 	stw	r3,128(sp)
10003438:	d8801f15 	stw	r2,124(sp)
1000343c:	010001c4 	movi	r4,7
10003440:	20832916 	blt	r4,r2,100040e8 <___vfprintf_internal_r+0x1c1c>
10003444:	42000204 	addi	r8,r8,8
10003448:	d8803317 	ldw	r2,204(sp)
1000344c:	143fffc4 	addi	r16,r2,-1
10003450:	043ea30e 	bge	zero,r16,10002ee0 <__alt_data_end+0xf8002ee0>
10003454:	04400404 	movi	r17,16
10003458:	d8801f17 	ldw	r2,124(sp)
1000345c:	8c00880e 	bge	r17,r16,10003680 <___vfprintf_internal_r+0x11b4>
10003460:	01440074 	movhi	r5,4097
10003464:	29488f84 	addi	r5,r5,8766
10003468:	d9402c15 	stw	r5,176(sp)
1000346c:	058001c4 	movi	r22,7
10003470:	dcc02d17 	ldw	r19,180(sp)
10003474:	00000306 	br	10003484 <___vfprintf_internal_r+0xfb8>
10003478:	42000204 	addi	r8,r8,8
1000347c:	843ffc04 	addi	r16,r16,-16
10003480:	8c00820e 	bge	r17,r16,1000368c <___vfprintf_internal_r+0x11c0>
10003484:	18c00404 	addi	r3,r3,16
10003488:	10800044 	addi	r2,r2,1
1000348c:	45000015 	stw	r20,0(r8)
10003490:	44400115 	stw	r17,4(r8)
10003494:	d8c02015 	stw	r3,128(sp)
10003498:	d8801f15 	stw	r2,124(sp)
1000349c:	b0bff60e 	bge	r22,r2,10003478 <__alt_data_end+0xf8003478>
100034a0:	d9801e04 	addi	r6,sp,120
100034a4:	b80b883a 	mov	r5,r23
100034a8:	9809883a 	mov	r4,r19
100034ac:	0009cac0 	call	10009cac <__sprint_r>
100034b0:	103d0a1e 	bne	r2,zero,100028dc <__alt_data_end+0xf80028dc>
100034b4:	d8c02017 	ldw	r3,128(sp)
100034b8:	d8801f17 	ldw	r2,124(sp)
100034bc:	da000404 	addi	r8,sp,16
100034c0:	003fee06 	br	1000347c <__alt_data_end+0xf800347c>
100034c4:	d9403117 	ldw	r5,196(sp)
100034c8:	d8802917 	ldw	r2,164(sp)
100034cc:	28adc83a 	sub	r22,r5,r2
100034d0:	05be410e 	bge	zero,r22,10002dd8 <__alt_data_end+0xf8002dd8>
100034d4:	07000404 	movi	fp,16
100034d8:	d8801f17 	ldw	r2,124(sp)
100034dc:	e5838f0e 	bge	fp,r22,1000431c <___vfprintf_internal_r+0x1e50>
100034e0:	01440074 	movhi	r5,4097
100034e4:	29488f84 	addi	r5,r5,8766
100034e8:	dc403015 	stw	r17,192(sp)
100034ec:	d9402c15 	stw	r5,176(sp)
100034f0:	b023883a 	mov	r17,r22
100034f4:	04c001c4 	movi	r19,7
100034f8:	a82d883a 	mov	r22,r21
100034fc:	902b883a 	mov	r21,r18
10003500:	8025883a 	mov	r18,r16
10003504:	dc002d17 	ldw	r16,180(sp)
10003508:	00000306 	br	10003518 <___vfprintf_internal_r+0x104c>
1000350c:	8c7ffc04 	addi	r17,r17,-16
10003510:	42000204 	addi	r8,r8,8
10003514:	e440110e 	bge	fp,r17,1000355c <___vfprintf_internal_r+0x1090>
10003518:	18c00404 	addi	r3,r3,16
1000351c:	10800044 	addi	r2,r2,1
10003520:	45000015 	stw	r20,0(r8)
10003524:	47000115 	stw	fp,4(r8)
10003528:	d8c02015 	stw	r3,128(sp)
1000352c:	d8801f15 	stw	r2,124(sp)
10003530:	98bff60e 	bge	r19,r2,1000350c <__alt_data_end+0xf800350c>
10003534:	d9801e04 	addi	r6,sp,120
10003538:	b80b883a 	mov	r5,r23
1000353c:	8009883a 	mov	r4,r16
10003540:	0009cac0 	call	10009cac <__sprint_r>
10003544:	103ce51e 	bne	r2,zero,100028dc <__alt_data_end+0xf80028dc>
10003548:	8c7ffc04 	addi	r17,r17,-16
1000354c:	d8c02017 	ldw	r3,128(sp)
10003550:	d8801f17 	ldw	r2,124(sp)
10003554:	da000404 	addi	r8,sp,16
10003558:	e47fef16 	blt	fp,r17,10003518 <__alt_data_end+0xf8003518>
1000355c:	9021883a 	mov	r16,r18
10003560:	a825883a 	mov	r18,r21
10003564:	b02b883a 	mov	r21,r22
10003568:	882d883a 	mov	r22,r17
1000356c:	dc403017 	ldw	r17,192(sp)
10003570:	d9002c17 	ldw	r4,176(sp)
10003574:	1d87883a 	add	r3,r3,r22
10003578:	10800044 	addi	r2,r2,1
1000357c:	41000015 	stw	r4,0(r8)
10003580:	45800115 	stw	r22,4(r8)
10003584:	d8c02015 	stw	r3,128(sp)
10003588:	d8801f15 	stw	r2,124(sp)
1000358c:	010001c4 	movi	r4,7
10003590:	20818e16 	blt	r4,r2,10003bcc <___vfprintf_internal_r+0x1700>
10003594:	42000204 	addi	r8,r8,8
10003598:	003e0f06 	br	10002dd8 <__alt_data_end+0xf8002dd8>
1000359c:	d9403317 	ldw	r5,204(sp)
100035a0:	00800044 	movi	r2,1
100035a4:	18c00044 	addi	r3,r3,1
100035a8:	1141530e 	bge	r2,r5,10003af8 <___vfprintf_internal_r+0x162c>
100035ac:	dc401f17 	ldw	r17,124(sp)
100035b0:	00800044 	movi	r2,1
100035b4:	40800115 	stw	r2,4(r8)
100035b8:	8c400044 	addi	r17,r17,1
100035bc:	44000015 	stw	r16,0(r8)
100035c0:	d8c02015 	stw	r3,128(sp)
100035c4:	dc401f15 	stw	r17,124(sp)
100035c8:	008001c4 	movi	r2,7
100035cc:	14416b16 	blt	r2,r17,10003b7c <___vfprintf_internal_r+0x16b0>
100035d0:	42000204 	addi	r8,r8,8
100035d4:	d8803717 	ldw	r2,220(sp)
100035d8:	d9003417 	ldw	r4,208(sp)
100035dc:	8c400044 	addi	r17,r17,1
100035e0:	10c7883a 	add	r3,r2,r3
100035e4:	40800115 	stw	r2,4(r8)
100035e8:	41000015 	stw	r4,0(r8)
100035ec:	d8c02015 	stw	r3,128(sp)
100035f0:	dc401f15 	stw	r17,124(sp)
100035f4:	008001c4 	movi	r2,7
100035f8:	14416916 	blt	r2,r17,10003ba0 <___vfprintf_internal_r+0x16d4>
100035fc:	45800204 	addi	r22,r8,8
10003600:	d9003617 	ldw	r4,216(sp)
10003604:	d9403817 	ldw	r5,224(sp)
10003608:	000d883a 	mov	r6,zero
1000360c:	000f883a 	mov	r7,zero
10003610:	d8c03c15 	stw	r3,240(sp)
10003614:	000dc0c0 	call	1000dc0c <__eqdf2>
10003618:	d8c03c17 	ldw	r3,240(sp)
1000361c:	1000bc26 	beq	r2,zero,10003910 <___vfprintf_internal_r+0x1444>
10003620:	d9403317 	ldw	r5,204(sp)
10003624:	84000044 	addi	r16,r16,1
10003628:	8c400044 	addi	r17,r17,1
1000362c:	28bfffc4 	addi	r2,r5,-1
10003630:	1887883a 	add	r3,r3,r2
10003634:	b0800115 	stw	r2,4(r22)
10003638:	b4000015 	stw	r16,0(r22)
1000363c:	d8c02015 	stw	r3,128(sp)
10003640:	dc401f15 	stw	r17,124(sp)
10003644:	008001c4 	movi	r2,7
10003648:	14414316 	blt	r2,r17,10003b58 <___vfprintf_internal_r+0x168c>
1000364c:	b5800204 	addi	r22,r22,8
10003650:	d9003a17 	ldw	r4,232(sp)
10003654:	df0022c4 	addi	fp,sp,139
10003658:	8c400044 	addi	r17,r17,1
1000365c:	20c7883a 	add	r3,r4,r3
10003660:	b7000015 	stw	fp,0(r22)
10003664:	b1000115 	stw	r4,4(r22)
10003668:	d8c02015 	stw	r3,128(sp)
1000366c:	dc401f15 	stw	r17,124(sp)
10003670:	008001c4 	movi	r2,7
10003674:	14400e16 	blt	r2,r17,100036b0 <___vfprintf_internal_r+0x11e4>
10003678:	b2000204 	addi	r8,r22,8
1000367c:	003e1806 	br	10002ee0 <__alt_data_end+0xf8002ee0>
10003680:	01040074 	movhi	r4,4097
10003684:	21088f84 	addi	r4,r4,8766
10003688:	d9002c15 	stw	r4,176(sp)
1000368c:	d9002c17 	ldw	r4,176(sp)
10003690:	1c07883a 	add	r3,r3,r16
10003694:	44000115 	stw	r16,4(r8)
10003698:	41000015 	stw	r4,0(r8)
1000369c:	10800044 	addi	r2,r2,1
100036a0:	d8c02015 	stw	r3,128(sp)
100036a4:	d8801f15 	stw	r2,124(sp)
100036a8:	010001c4 	movi	r4,7
100036ac:	20be0b0e 	bge	r4,r2,10002edc <__alt_data_end+0xf8002edc>
100036b0:	d9002d17 	ldw	r4,180(sp)
100036b4:	d9801e04 	addi	r6,sp,120
100036b8:	b80b883a 	mov	r5,r23
100036bc:	0009cac0 	call	10009cac <__sprint_r>
100036c0:	103c861e 	bne	r2,zero,100028dc <__alt_data_end+0xf80028dc>
100036c4:	d8c02017 	ldw	r3,128(sp)
100036c8:	da000404 	addi	r8,sp,16
100036cc:	003e0406 	br	10002ee0 <__alt_data_end+0xf8002ee0>
100036d0:	d9002d17 	ldw	r4,180(sp)
100036d4:	d9801e04 	addi	r6,sp,120
100036d8:	b80b883a 	mov	r5,r23
100036dc:	0009cac0 	call	10009cac <__sprint_r>
100036e0:	103e3b26 	beq	r2,zero,10002fd0 <__alt_data_end+0xf8002fd0>
100036e4:	003c7d06 	br	100028dc <__alt_data_end+0xf80028dc>
100036e8:	d9002d17 	ldw	r4,180(sp)
100036ec:	d9801e04 	addi	r6,sp,120
100036f0:	b80b883a 	mov	r5,r23
100036f4:	0009cac0 	call	10009cac <__sprint_r>
100036f8:	103c781e 	bne	r2,zero,100028dc <__alt_data_end+0xf80028dc>
100036fc:	d8c02017 	ldw	r3,128(sp)
10003700:	da000404 	addi	r8,sp,16
10003704:	003de906 	br	10002eac <__alt_data_end+0xf8002eac>
10003708:	d9002d17 	ldw	r4,180(sp)
1000370c:	d9801e04 	addi	r6,sp,120
10003710:	b80b883a 	mov	r5,r23
10003714:	0009cac0 	call	10009cac <__sprint_r>
10003718:	103c701e 	bne	r2,zero,100028dc <__alt_data_end+0xf80028dc>
1000371c:	d8c02017 	ldw	r3,128(sp)
10003720:	da000404 	addi	r8,sp,16
10003724:	003d9b06 	br	10002d94 <__alt_data_end+0xf8002d94>
10003728:	d9002d17 	ldw	r4,180(sp)
1000372c:	d9801e04 	addi	r6,sp,120
10003730:	b80b883a 	mov	r5,r23
10003734:	0009cac0 	call	10009cac <__sprint_r>
10003738:	103c681e 	bne	r2,zero,100028dc <__alt_data_end+0xf80028dc>
1000373c:	d8c02017 	ldw	r3,128(sp)
10003740:	da000404 	addi	r8,sp,16
10003744:	003da106 	br	10002dcc <__alt_data_end+0xf8002dcc>
10003748:	d9402a17 	ldw	r5,168(sp)
1000374c:	d8002785 	stb	zero,158(sp)
10003750:	283f0616 	blt	r5,zero,1000336c <__alt_data_end+0xf800336c>
10003754:	00ffdfc4 	movi	r3,-129
10003758:	9d84b03a 	or	r2,r19,r22
1000375c:	90e4703a 	and	r18,r18,r3
10003760:	103c3b26 	beq	r2,zero,10002850 <__alt_data_end+0xf8002850>
10003764:	0039883a 	mov	fp,zero
10003768:	003e5806 	br	100030cc <__alt_data_end+0xf80030cc>
1000376c:	9080040c 	andi	r2,r18,16
10003770:	1001b326 	beq	r2,zero,10003e40 <___vfprintf_internal_r+0x1974>
10003774:	d8c02e17 	ldw	r3,184(sp)
10003778:	d9002a17 	ldw	r4,168(sp)
1000377c:	d8002785 	stb	zero,158(sp)
10003780:	18800104 	addi	r2,r3,4
10003784:	1cc00017 	ldw	r19,0(r3)
10003788:	002d883a 	mov	r22,zero
1000378c:	2001b516 	blt	r4,zero,10003e64 <___vfprintf_internal_r+0x1998>
10003790:	00ffdfc4 	movi	r3,-129
10003794:	d8802e15 	stw	r2,184(sp)
10003798:	90e4703a 	and	r18,r18,r3
1000379c:	983d0526 	beq	r19,zero,10002bb4 <__alt_data_end+0xf8002bb4>
100037a0:	0039883a 	mov	fp,zero
100037a4:	003d0806 	br	10002bc8 <__alt_data_end+0xf8002bc8>
100037a8:	dc402617 	ldw	r17,152(sp)
100037ac:	0441d30e 	bge	zero,r17,10003efc <___vfprintf_internal_r+0x1a30>
100037b0:	dc403217 	ldw	r17,200(sp)
100037b4:	d8803317 	ldw	r2,204(sp)
100037b8:	1440010e 	bge	r2,r17,100037c0 <___vfprintf_internal_r+0x12f4>
100037bc:	1023883a 	mov	r17,r2
100037c0:	04400a0e 	bge	zero,r17,100037ec <___vfprintf_internal_r+0x1320>
100037c4:	d8801f17 	ldw	r2,124(sp)
100037c8:	1c47883a 	add	r3,r3,r17
100037cc:	44000015 	stw	r16,0(r8)
100037d0:	10800044 	addi	r2,r2,1
100037d4:	44400115 	stw	r17,4(r8)
100037d8:	d8c02015 	stw	r3,128(sp)
100037dc:	d8801f15 	stw	r2,124(sp)
100037e0:	010001c4 	movi	r4,7
100037e4:	20826516 	blt	r4,r2,1000417c <___vfprintf_internal_r+0x1cb0>
100037e8:	42000204 	addi	r8,r8,8
100037ec:	88026116 	blt	r17,zero,10004174 <___vfprintf_internal_r+0x1ca8>
100037f0:	d9003217 	ldw	r4,200(sp)
100037f4:	2463c83a 	sub	r17,r4,r17
100037f8:	04407b0e 	bge	zero,r17,100039e8 <___vfprintf_internal_r+0x151c>
100037fc:	05800404 	movi	r22,16
10003800:	d8801f17 	ldw	r2,124(sp)
10003804:	b4419d0e 	bge	r22,r17,10003e7c <___vfprintf_internal_r+0x19b0>
10003808:	01040074 	movhi	r4,4097
1000380c:	21088f84 	addi	r4,r4,8766
10003810:	d9002c15 	stw	r4,176(sp)
10003814:	070001c4 	movi	fp,7
10003818:	dcc02d17 	ldw	r19,180(sp)
1000381c:	00000306 	br	1000382c <___vfprintf_internal_r+0x1360>
10003820:	42000204 	addi	r8,r8,8
10003824:	8c7ffc04 	addi	r17,r17,-16
10003828:	b441970e 	bge	r22,r17,10003e88 <___vfprintf_internal_r+0x19bc>
1000382c:	18c00404 	addi	r3,r3,16
10003830:	10800044 	addi	r2,r2,1
10003834:	45000015 	stw	r20,0(r8)
10003838:	45800115 	stw	r22,4(r8)
1000383c:	d8c02015 	stw	r3,128(sp)
10003840:	d8801f15 	stw	r2,124(sp)
10003844:	e0bff60e 	bge	fp,r2,10003820 <__alt_data_end+0xf8003820>
10003848:	d9801e04 	addi	r6,sp,120
1000384c:	b80b883a 	mov	r5,r23
10003850:	9809883a 	mov	r4,r19
10003854:	0009cac0 	call	10009cac <__sprint_r>
10003858:	103c201e 	bne	r2,zero,100028dc <__alt_data_end+0xf80028dc>
1000385c:	d8c02017 	ldw	r3,128(sp)
10003860:	d8801f17 	ldw	r2,124(sp)
10003864:	da000404 	addi	r8,sp,16
10003868:	003fee06 	br	10003824 <__alt_data_end+0xf8003824>
1000386c:	d9002d17 	ldw	r4,180(sp)
10003870:	d9801e04 	addi	r6,sp,120
10003874:	b80b883a 	mov	r5,r23
10003878:	0009cac0 	call	10009cac <__sprint_r>
1000387c:	103c171e 	bne	r2,zero,100028dc <__alt_data_end+0xf80028dc>
10003880:	d8c02017 	ldw	r3,128(sp)
10003884:	df002787 	ldb	fp,158(sp)
10003888:	da000404 	addi	r8,sp,16
1000388c:	003d3406 	br	10002d60 <__alt_data_end+0xf8002d60>
10003890:	9080040c 	andi	r2,r18,16
10003894:	10016126 	beq	r2,zero,10003e1c <___vfprintf_internal_r+0x1950>
10003898:	d9402e17 	ldw	r5,184(sp)
1000389c:	2cc00017 	ldw	r19,0(r5)
100038a0:	29400104 	addi	r5,r5,4
100038a4:	d9402e15 	stw	r5,184(sp)
100038a8:	982dd7fa 	srai	r22,r19,31
100038ac:	b005883a 	mov	r2,r22
100038b0:	003c5a06 	br	10002a1c <__alt_data_end+0xf8002a1c>
100038b4:	9080040c 	andi	r2,r18,16
100038b8:	10003526 	beq	r2,zero,10003990 <___vfprintf_internal_r+0x14c4>
100038bc:	d8c02e17 	ldw	r3,184(sp)
100038c0:	d9002a17 	ldw	r4,168(sp)
100038c4:	d8002785 	stb	zero,158(sp)
100038c8:	18800104 	addi	r2,r3,4
100038cc:	1cc00017 	ldw	r19,0(r3)
100038d0:	002d883a 	mov	r22,zero
100038d4:	20003716 	blt	r4,zero,100039b4 <___vfprintf_internal_r+0x14e8>
100038d8:	00ffdfc4 	movi	r3,-129
100038dc:	d8802e15 	stw	r2,184(sp)
100038e0:	90e4703a 	and	r18,r18,r3
100038e4:	0039883a 	mov	fp,zero
100038e8:	983dd426 	beq	r19,zero,1000303c <__alt_data_end+0xf800303c>
100038ec:	00800244 	movi	r2,9
100038f0:	14fc5336 	bltu	r2,r19,10002a40 <__alt_data_end+0xf8002a40>
100038f4:	d8c02817 	ldw	r3,160(sp)
100038f8:	dc001dc4 	addi	r16,sp,119
100038fc:	9cc00c04 	addi	r19,r19,48
10003900:	1c07c83a 	sub	r3,r3,r16
10003904:	dcc01dc5 	stb	r19,119(sp)
10003908:	d8c02b15 	stw	r3,172(sp)
1000390c:	003cc606 	br	10002c28 <__alt_data_end+0xf8002c28>
10003910:	d8803317 	ldw	r2,204(sp)
10003914:	143fffc4 	addi	r16,r2,-1
10003918:	043f4d0e 	bge	zero,r16,10003650 <__alt_data_end+0xf8003650>
1000391c:	07000404 	movi	fp,16
10003920:	e400810e 	bge	fp,r16,10003b28 <___vfprintf_internal_r+0x165c>
10003924:	01440074 	movhi	r5,4097
10003928:	29488f84 	addi	r5,r5,8766
1000392c:	d9402c15 	stw	r5,176(sp)
10003930:	01c001c4 	movi	r7,7
10003934:	dcc02d17 	ldw	r19,180(sp)
10003938:	00000306 	br	10003948 <___vfprintf_internal_r+0x147c>
1000393c:	b5800204 	addi	r22,r22,8
10003940:	843ffc04 	addi	r16,r16,-16
10003944:	e4007b0e 	bge	fp,r16,10003b34 <___vfprintf_internal_r+0x1668>
10003948:	18c00404 	addi	r3,r3,16
1000394c:	8c400044 	addi	r17,r17,1
10003950:	b5000015 	stw	r20,0(r22)
10003954:	b7000115 	stw	fp,4(r22)
10003958:	d8c02015 	stw	r3,128(sp)
1000395c:	dc401f15 	stw	r17,124(sp)
10003960:	3c7ff60e 	bge	r7,r17,1000393c <__alt_data_end+0xf800393c>
10003964:	d9801e04 	addi	r6,sp,120
10003968:	b80b883a 	mov	r5,r23
1000396c:	9809883a 	mov	r4,r19
10003970:	d9c03c15 	stw	r7,240(sp)
10003974:	0009cac0 	call	10009cac <__sprint_r>
10003978:	d9c03c17 	ldw	r7,240(sp)
1000397c:	103bd71e 	bne	r2,zero,100028dc <__alt_data_end+0xf80028dc>
10003980:	d8c02017 	ldw	r3,128(sp)
10003984:	dc401f17 	ldw	r17,124(sp)
10003988:	dd800404 	addi	r22,sp,16
1000398c:	003fec06 	br	10003940 <__alt_data_end+0xf8003940>
10003990:	9080100c 	andi	r2,r18,64
10003994:	d8002785 	stb	zero,158(sp)
10003998:	10010e26 	beq	r2,zero,10003dd4 <___vfprintf_internal_r+0x1908>
1000399c:	d9402e17 	ldw	r5,184(sp)
100039a0:	d8c02a17 	ldw	r3,168(sp)
100039a4:	002d883a 	mov	r22,zero
100039a8:	28800104 	addi	r2,r5,4
100039ac:	2cc0000b 	ldhu	r19,0(r5)
100039b0:	183fc90e 	bge	r3,zero,100038d8 <__alt_data_end+0xf80038d8>
100039b4:	d8802e15 	stw	r2,184(sp)
100039b8:	0039883a 	mov	fp,zero
100039bc:	9d84b03a 	or	r2,r19,r22
100039c0:	103c1e1e 	bne	r2,zero,10002a3c <__alt_data_end+0xf8002a3c>
100039c4:	00800044 	movi	r2,1
100039c8:	003e6c06 	br	1000337c <__alt_data_end+0xf800337c>
100039cc:	d9002d17 	ldw	r4,180(sp)
100039d0:	d9801e04 	addi	r6,sp,120
100039d4:	b80b883a 	mov	r5,r23
100039d8:	0009cac0 	call	10009cac <__sprint_r>
100039dc:	103bbf1e 	bne	r2,zero,100028dc <__alt_data_end+0xf80028dc>
100039e0:	d8c02017 	ldw	r3,128(sp)
100039e4:	da000404 	addi	r8,sp,16
100039e8:	d9003217 	ldw	r4,200(sp)
100039ec:	d8802617 	ldw	r2,152(sp)
100039f0:	d9403317 	ldw	r5,204(sp)
100039f4:	8123883a 	add	r17,r16,r4
100039f8:	11400216 	blt	r2,r5,10003a04 <___vfprintf_internal_r+0x1538>
100039fc:	9100004c 	andi	r4,r18,1
10003a00:	20000d26 	beq	r4,zero,10003a38 <___vfprintf_internal_r+0x156c>
10003a04:	d9003717 	ldw	r4,220(sp)
10003a08:	d9403417 	ldw	r5,208(sp)
10003a0c:	1907883a 	add	r3,r3,r4
10003a10:	d9001f17 	ldw	r4,124(sp)
10003a14:	41400015 	stw	r5,0(r8)
10003a18:	d9403717 	ldw	r5,220(sp)
10003a1c:	21000044 	addi	r4,r4,1
10003a20:	d8c02015 	stw	r3,128(sp)
10003a24:	41400115 	stw	r5,4(r8)
10003a28:	d9001f15 	stw	r4,124(sp)
10003a2c:	014001c4 	movi	r5,7
10003a30:	2901e816 	blt	r5,r4,100041d4 <___vfprintf_internal_r+0x1d08>
10003a34:	42000204 	addi	r8,r8,8
10003a38:	d9003317 	ldw	r4,204(sp)
10003a3c:	8121883a 	add	r16,r16,r4
10003a40:	2085c83a 	sub	r2,r4,r2
10003a44:	8461c83a 	sub	r16,r16,r17
10003a48:	1400010e 	bge	r2,r16,10003a50 <___vfprintf_internal_r+0x1584>
10003a4c:	1021883a 	mov	r16,r2
10003a50:	04000a0e 	bge	zero,r16,10003a7c <___vfprintf_internal_r+0x15b0>
10003a54:	d9001f17 	ldw	r4,124(sp)
10003a58:	1c07883a 	add	r3,r3,r16
10003a5c:	44400015 	stw	r17,0(r8)
10003a60:	21000044 	addi	r4,r4,1
10003a64:	44000115 	stw	r16,4(r8)
10003a68:	d8c02015 	stw	r3,128(sp)
10003a6c:	d9001f15 	stw	r4,124(sp)
10003a70:	014001c4 	movi	r5,7
10003a74:	2901fb16 	blt	r5,r4,10004264 <___vfprintf_internal_r+0x1d98>
10003a78:	42000204 	addi	r8,r8,8
10003a7c:	8001f716 	blt	r16,zero,1000425c <___vfprintf_internal_r+0x1d90>
10003a80:	1421c83a 	sub	r16,r2,r16
10003a84:	043d160e 	bge	zero,r16,10002ee0 <__alt_data_end+0xf8002ee0>
10003a88:	04400404 	movi	r17,16
10003a8c:	d8801f17 	ldw	r2,124(sp)
10003a90:	8c3efb0e 	bge	r17,r16,10003680 <__alt_data_end+0xf8003680>
10003a94:	01440074 	movhi	r5,4097
10003a98:	29488f84 	addi	r5,r5,8766
10003a9c:	d9402c15 	stw	r5,176(sp)
10003aa0:	058001c4 	movi	r22,7
10003aa4:	dcc02d17 	ldw	r19,180(sp)
10003aa8:	00000306 	br	10003ab8 <___vfprintf_internal_r+0x15ec>
10003aac:	42000204 	addi	r8,r8,8
10003ab0:	843ffc04 	addi	r16,r16,-16
10003ab4:	8c3ef50e 	bge	r17,r16,1000368c <__alt_data_end+0xf800368c>
10003ab8:	18c00404 	addi	r3,r3,16
10003abc:	10800044 	addi	r2,r2,1
10003ac0:	45000015 	stw	r20,0(r8)
10003ac4:	44400115 	stw	r17,4(r8)
10003ac8:	d8c02015 	stw	r3,128(sp)
10003acc:	d8801f15 	stw	r2,124(sp)
10003ad0:	b0bff60e 	bge	r22,r2,10003aac <__alt_data_end+0xf8003aac>
10003ad4:	d9801e04 	addi	r6,sp,120
10003ad8:	b80b883a 	mov	r5,r23
10003adc:	9809883a 	mov	r4,r19
10003ae0:	0009cac0 	call	10009cac <__sprint_r>
10003ae4:	103b7d1e 	bne	r2,zero,100028dc <__alt_data_end+0xf80028dc>
10003ae8:	d8c02017 	ldw	r3,128(sp)
10003aec:	d8801f17 	ldw	r2,124(sp)
10003af0:	da000404 	addi	r8,sp,16
10003af4:	003fee06 	br	10003ab0 <__alt_data_end+0xf8003ab0>
10003af8:	9088703a 	and	r4,r18,r2
10003afc:	203eab1e 	bne	r4,zero,100035ac <__alt_data_end+0xf80035ac>
10003b00:	dc401f17 	ldw	r17,124(sp)
10003b04:	40800115 	stw	r2,4(r8)
10003b08:	44000015 	stw	r16,0(r8)
10003b0c:	8c400044 	addi	r17,r17,1
10003b10:	d8c02015 	stw	r3,128(sp)
10003b14:	dc401f15 	stw	r17,124(sp)
10003b18:	008001c4 	movi	r2,7
10003b1c:	14400e16 	blt	r2,r17,10003b58 <___vfprintf_internal_r+0x168c>
10003b20:	45800204 	addi	r22,r8,8
10003b24:	003eca06 	br	10003650 <__alt_data_end+0xf8003650>
10003b28:	01040074 	movhi	r4,4097
10003b2c:	21088f84 	addi	r4,r4,8766
10003b30:	d9002c15 	stw	r4,176(sp)
10003b34:	d8802c17 	ldw	r2,176(sp)
10003b38:	1c07883a 	add	r3,r3,r16
10003b3c:	8c400044 	addi	r17,r17,1
10003b40:	b0800015 	stw	r2,0(r22)
10003b44:	b4000115 	stw	r16,4(r22)
10003b48:	d8c02015 	stw	r3,128(sp)
10003b4c:	dc401f15 	stw	r17,124(sp)
10003b50:	008001c4 	movi	r2,7
10003b54:	147ebd0e 	bge	r2,r17,1000364c <__alt_data_end+0xf800364c>
10003b58:	d9002d17 	ldw	r4,180(sp)
10003b5c:	d9801e04 	addi	r6,sp,120
10003b60:	b80b883a 	mov	r5,r23
10003b64:	0009cac0 	call	10009cac <__sprint_r>
10003b68:	103b5c1e 	bne	r2,zero,100028dc <__alt_data_end+0xf80028dc>
10003b6c:	d8c02017 	ldw	r3,128(sp)
10003b70:	dc401f17 	ldw	r17,124(sp)
10003b74:	dd800404 	addi	r22,sp,16
10003b78:	003eb506 	br	10003650 <__alt_data_end+0xf8003650>
10003b7c:	d9002d17 	ldw	r4,180(sp)
10003b80:	d9801e04 	addi	r6,sp,120
10003b84:	b80b883a 	mov	r5,r23
10003b88:	0009cac0 	call	10009cac <__sprint_r>
10003b8c:	103b531e 	bne	r2,zero,100028dc <__alt_data_end+0xf80028dc>
10003b90:	d8c02017 	ldw	r3,128(sp)
10003b94:	dc401f17 	ldw	r17,124(sp)
10003b98:	da000404 	addi	r8,sp,16
10003b9c:	003e8d06 	br	100035d4 <__alt_data_end+0xf80035d4>
10003ba0:	d9002d17 	ldw	r4,180(sp)
10003ba4:	d9801e04 	addi	r6,sp,120
10003ba8:	b80b883a 	mov	r5,r23
10003bac:	0009cac0 	call	10009cac <__sprint_r>
10003bb0:	103b4a1e 	bne	r2,zero,100028dc <__alt_data_end+0xf80028dc>
10003bb4:	d8c02017 	ldw	r3,128(sp)
10003bb8:	dc401f17 	ldw	r17,124(sp)
10003bbc:	dd800404 	addi	r22,sp,16
10003bc0:	003e8f06 	br	10003600 <__alt_data_end+0xf8003600>
10003bc4:	0027883a 	mov	r19,zero
10003bc8:	003f4a06 	br	100038f4 <__alt_data_end+0xf80038f4>
10003bcc:	d9002d17 	ldw	r4,180(sp)
10003bd0:	d9801e04 	addi	r6,sp,120
10003bd4:	b80b883a 	mov	r5,r23
10003bd8:	0009cac0 	call	10009cac <__sprint_r>
10003bdc:	103b3f1e 	bne	r2,zero,100028dc <__alt_data_end+0xf80028dc>
10003be0:	d8c02017 	ldw	r3,128(sp)
10003be4:	da000404 	addi	r8,sp,16
10003be8:	003c7b06 	br	10002dd8 <__alt_data_end+0xf8002dd8>
10003bec:	d9402a17 	ldw	r5,168(sp)
10003bf0:	04e7c83a 	sub	r19,zero,r19
10003bf4:	07000b44 	movi	fp,45
10003bf8:	9804c03a 	cmpne	r2,r19,zero
10003bfc:	05adc83a 	sub	r22,zero,r22
10003c00:	df002785 	stb	fp,158(sp)
10003c04:	b0adc83a 	sub	r22,r22,r2
10003c08:	28017b16 	blt	r5,zero,100041f8 <___vfprintf_internal_r+0x1d2c>
10003c0c:	00bfdfc4 	movi	r2,-129
10003c10:	90a4703a 	and	r18,r18,r2
10003c14:	003b8906 	br	10002a3c <__alt_data_end+0xf8002a3c>
10003c18:	d9003617 	ldw	r4,216(sp)
10003c1c:	d9403817 	ldw	r5,224(sp)
10003c20:	da003d15 	stw	r8,244(sp)
10003c24:	00098d00 	call	100098d0 <__fpclassifyd>
10003c28:	da003d17 	ldw	r8,244(sp)
10003c2c:	1000f026 	beq	r2,zero,10003ff0 <___vfprintf_internal_r+0x1b24>
10003c30:	d9002a17 	ldw	r4,168(sp)
10003c34:	05bff7c4 	movi	r22,-33
10003c38:	00bfffc4 	movi	r2,-1
10003c3c:	8dac703a 	and	r22,r17,r22
10003c40:	20820026 	beq	r4,r2,10004444 <___vfprintf_internal_r+0x1f78>
10003c44:	008011c4 	movi	r2,71
10003c48:	b081f726 	beq	r22,r2,10004428 <___vfprintf_internal_r+0x1f5c>
10003c4c:	d9003817 	ldw	r4,224(sp)
10003c50:	90c04014 	ori	r3,r18,256
10003c54:	d8c02c15 	stw	r3,176(sp)
10003c58:	20021516 	blt	r4,zero,100044b0 <___vfprintf_internal_r+0x1fe4>
10003c5c:	dcc03817 	ldw	r19,224(sp)
10003c60:	d8002905 	stb	zero,164(sp)
10003c64:	00801984 	movi	r2,102
10003c68:	8881f926 	beq	r17,r2,10004450 <___vfprintf_internal_r+0x1f84>
10003c6c:	00801184 	movi	r2,70
10003c70:	88821c26 	beq	r17,r2,100044e4 <___vfprintf_internal_r+0x2018>
10003c74:	00801144 	movi	r2,69
10003c78:	b081ef26 	beq	r22,r2,10004438 <___vfprintf_internal_r+0x1f6c>
10003c7c:	d8c02a17 	ldw	r3,168(sp)
10003c80:	d8802104 	addi	r2,sp,132
10003c84:	d8800315 	stw	r2,12(sp)
10003c88:	d9403617 	ldw	r5,216(sp)
10003c8c:	d8802504 	addi	r2,sp,148
10003c90:	d9002d17 	ldw	r4,180(sp)
10003c94:	d8800215 	stw	r2,8(sp)
10003c98:	d8802604 	addi	r2,sp,152
10003c9c:	d8c00015 	stw	r3,0(sp)
10003ca0:	d8800115 	stw	r2,4(sp)
10003ca4:	01c00084 	movi	r7,2
10003ca8:	980d883a 	mov	r6,r19
10003cac:	d8c03c15 	stw	r3,240(sp)
10003cb0:	da003d15 	stw	r8,244(sp)
10003cb4:	0004bfc0 	call	10004bfc <_dtoa_r>
10003cb8:	1021883a 	mov	r16,r2
10003cbc:	008019c4 	movi	r2,103
10003cc0:	d8c03c17 	ldw	r3,240(sp)
10003cc4:	da003d17 	ldw	r8,244(sp)
10003cc8:	88817126 	beq	r17,r2,10004290 <___vfprintf_internal_r+0x1dc4>
10003ccc:	008011c4 	movi	r2,71
10003cd0:	88829126 	beq	r17,r2,10004718 <___vfprintf_internal_r+0x224c>
10003cd4:	80f9883a 	add	fp,r16,r3
10003cd8:	d9003617 	ldw	r4,216(sp)
10003cdc:	000d883a 	mov	r6,zero
10003ce0:	000f883a 	mov	r7,zero
10003ce4:	980b883a 	mov	r5,r19
10003ce8:	da003d15 	stw	r8,244(sp)
10003cec:	000dc0c0 	call	1000dc0c <__eqdf2>
10003cf0:	da003d17 	ldw	r8,244(sp)
10003cf4:	10018d26 	beq	r2,zero,1000432c <___vfprintf_internal_r+0x1e60>
10003cf8:	d8802117 	ldw	r2,132(sp)
10003cfc:	1700062e 	bgeu	r2,fp,10003d18 <___vfprintf_internal_r+0x184c>
10003d00:	01000c04 	movi	r4,48
10003d04:	10c00044 	addi	r3,r2,1
10003d08:	d8c02115 	stw	r3,132(sp)
10003d0c:	11000005 	stb	r4,0(r2)
10003d10:	d8802117 	ldw	r2,132(sp)
10003d14:	173ffb36 	bltu	r2,fp,10003d04 <__alt_data_end+0xf8003d04>
10003d18:	1405c83a 	sub	r2,r2,r16
10003d1c:	d8803315 	stw	r2,204(sp)
10003d20:	008011c4 	movi	r2,71
10003d24:	b0817626 	beq	r22,r2,10004300 <___vfprintf_internal_r+0x1e34>
10003d28:	00801944 	movi	r2,101
10003d2c:	1442800e 	bge	r2,r17,10004730 <___vfprintf_internal_r+0x2264>
10003d30:	d8c02617 	ldw	r3,152(sp)
10003d34:	00801984 	movi	r2,102
10003d38:	d8c03215 	stw	r3,200(sp)
10003d3c:	8881fe26 	beq	r17,r2,10004538 <___vfprintf_internal_r+0x206c>
10003d40:	d8c03217 	ldw	r3,200(sp)
10003d44:	d9003317 	ldw	r4,204(sp)
10003d48:	1901dd16 	blt	r3,r4,100044c0 <___vfprintf_internal_r+0x1ff4>
10003d4c:	9480004c 	andi	r18,r18,1
10003d50:	90022b1e 	bne	r18,zero,10004600 <___vfprintf_internal_r+0x2134>
10003d54:	1805883a 	mov	r2,r3
10003d58:	18028316 	blt	r3,zero,10004768 <___vfprintf_internal_r+0x229c>
10003d5c:	d8c03217 	ldw	r3,200(sp)
10003d60:	044019c4 	movi	r17,103
10003d64:	d8c02b15 	stw	r3,172(sp)
10003d68:	df002907 	ldb	fp,164(sp)
10003d6c:	e001531e 	bne	fp,zero,100042bc <___vfprintf_internal_r+0x1df0>
10003d70:	df002783 	ldbu	fp,158(sp)
10003d74:	d8802915 	stw	r2,164(sp)
10003d78:	dc802c17 	ldw	r18,176(sp)
10003d7c:	d8002a15 	stw	zero,168(sp)
10003d80:	003baf06 	br	10002c40 <__alt_data_end+0xf8002c40>
10003d84:	d8c02e17 	ldw	r3,184(sp)
10003d88:	d9002e17 	ldw	r4,184(sp)
10003d8c:	d9402e17 	ldw	r5,184(sp)
10003d90:	18c00017 	ldw	r3,0(r3)
10003d94:	21000117 	ldw	r4,4(r4)
10003d98:	29400204 	addi	r5,r5,8
10003d9c:	d8c03615 	stw	r3,216(sp)
10003da0:	d9003815 	stw	r4,224(sp)
10003da4:	d9402e15 	stw	r5,184(sp)
10003da8:	003b5006 	br	10002aec <__alt_data_end+0xf8002aec>
10003dac:	ac400007 	ldb	r17,0(r21)
10003db0:	003a2806 	br	10002654 <__alt_data_end+0xf8002654>
10003db4:	9080100c 	andi	r2,r18,64
10003db8:	1000a826 	beq	r2,zero,1000405c <___vfprintf_internal_r+0x1b90>
10003dbc:	d8c02e17 	ldw	r3,184(sp)
10003dc0:	002d883a 	mov	r22,zero
10003dc4:	1cc0000b 	ldhu	r19,0(r3)
10003dc8:	18c00104 	addi	r3,r3,4
10003dcc:	d8c02e15 	stw	r3,184(sp)
10003dd0:	003caf06 	br	10003090 <__alt_data_end+0xf8003090>
10003dd4:	d9002e17 	ldw	r4,184(sp)
10003dd8:	d9402a17 	ldw	r5,168(sp)
10003ddc:	002d883a 	mov	r22,zero
10003de0:	20800104 	addi	r2,r4,4
10003de4:	24c00017 	ldw	r19,0(r4)
10003de8:	283ebb0e 	bge	r5,zero,100038d8 <__alt_data_end+0xf80038d8>
10003dec:	003ef106 	br	100039b4 <__alt_data_end+0xf80039b4>
10003df0:	9080040c 	andi	r2,r18,16
10003df4:	1000921e 	bne	r2,zero,10004040 <___vfprintf_internal_r+0x1b74>
10003df8:	9480100c 	andi	r18,r18,64
10003dfc:	90013926 	beq	r18,zero,100042e4 <___vfprintf_internal_r+0x1e18>
10003e00:	d9402e17 	ldw	r5,184(sp)
10003e04:	d8c02f17 	ldw	r3,188(sp)
10003e08:	28800017 	ldw	r2,0(r5)
10003e0c:	29400104 	addi	r5,r5,4
10003e10:	d9402e15 	stw	r5,184(sp)
10003e14:	10c0000d 	sth	r3,0(r2)
10003e18:	0039e406 	br	100025ac <__alt_data_end+0xf80025ac>
10003e1c:	9080100c 	andi	r2,r18,64
10003e20:	10008026 	beq	r2,zero,10004024 <___vfprintf_internal_r+0x1b58>
10003e24:	d8802e17 	ldw	r2,184(sp)
10003e28:	14c0000f 	ldh	r19,0(r2)
10003e2c:	10800104 	addi	r2,r2,4
10003e30:	d8802e15 	stw	r2,184(sp)
10003e34:	982dd7fa 	srai	r22,r19,31
10003e38:	b005883a 	mov	r2,r22
10003e3c:	003af706 	br	10002a1c <__alt_data_end+0xf8002a1c>
10003e40:	9080100c 	andi	r2,r18,64
10003e44:	d8002785 	stb	zero,158(sp)
10003e48:	10008a1e 	bne	r2,zero,10004074 <___vfprintf_internal_r+0x1ba8>
10003e4c:	d9002e17 	ldw	r4,184(sp)
10003e50:	d9402a17 	ldw	r5,168(sp)
10003e54:	002d883a 	mov	r22,zero
10003e58:	20800104 	addi	r2,r4,4
10003e5c:	24c00017 	ldw	r19,0(r4)
10003e60:	283e4b0e 	bge	r5,zero,10003790 <__alt_data_end+0xf8003790>
10003e64:	9d86b03a 	or	r3,r19,r22
10003e68:	d8802e15 	stw	r2,184(sp)
10003e6c:	183e4c1e 	bne	r3,zero,100037a0 <__alt_data_end+0xf80037a0>
10003e70:	0039883a 	mov	fp,zero
10003e74:	0005883a 	mov	r2,zero
10003e78:	003d4006 	br	1000337c <__alt_data_end+0xf800337c>
10003e7c:	01440074 	movhi	r5,4097
10003e80:	29488f84 	addi	r5,r5,8766
10003e84:	d9402c15 	stw	r5,176(sp)
10003e88:	d9402c17 	ldw	r5,176(sp)
10003e8c:	1c47883a 	add	r3,r3,r17
10003e90:	10800044 	addi	r2,r2,1
10003e94:	41400015 	stw	r5,0(r8)
10003e98:	44400115 	stw	r17,4(r8)
10003e9c:	d8c02015 	stw	r3,128(sp)
10003ea0:	d8801f15 	stw	r2,124(sp)
10003ea4:	010001c4 	movi	r4,7
10003ea8:	20bec816 	blt	r4,r2,100039cc <__alt_data_end+0xf80039cc>
10003eac:	42000204 	addi	r8,r8,8
10003eb0:	003ecd06 	br	100039e8 <__alt_data_end+0xf80039e8>
10003eb4:	d9002a17 	ldw	r4,168(sp)
10003eb8:	d8002785 	stb	zero,158(sp)
10003ebc:	203d2d16 	blt	r4,zero,10003374 <__alt_data_end+0xf8003374>
10003ec0:	00bfdfc4 	movi	r2,-129
10003ec4:	90a4703a 	and	r18,r18,r2
10003ec8:	003a6106 	br	10002850 <__alt_data_end+0xf8002850>
10003ecc:	01040074 	movhi	r4,4097
10003ed0:	21088f84 	addi	r4,r4,8766
10003ed4:	d9002c15 	stw	r4,176(sp)
10003ed8:	003bea06 	br	10002e84 <__alt_data_end+0xf8002e84>
10003edc:	d9002d17 	ldw	r4,180(sp)
10003ee0:	d9801e04 	addi	r6,sp,120
10003ee4:	b80b883a 	mov	r5,r23
10003ee8:	0009cac0 	call	10009cac <__sprint_r>
10003eec:	103a7b1e 	bne	r2,zero,100028dc <__alt_data_end+0xf80028dc>
10003ef0:	d8c02017 	ldw	r3,128(sp)
10003ef4:	da000404 	addi	r8,sp,16
10003ef8:	003d4106 	br	10003400 <__alt_data_end+0xf8003400>
10003efc:	d8801f17 	ldw	r2,124(sp)
10003f00:	01440074 	movhi	r5,4097
10003f04:	01000044 	movi	r4,1
10003f08:	18c00044 	addi	r3,r3,1
10003f0c:	10800044 	addi	r2,r2,1
10003f10:	29488f04 	addi	r5,r5,8764
10003f14:	41000115 	stw	r4,4(r8)
10003f18:	41400015 	stw	r5,0(r8)
10003f1c:	d8c02015 	stw	r3,128(sp)
10003f20:	d8801f15 	stw	r2,124(sp)
10003f24:	010001c4 	movi	r4,7
10003f28:	20805c16 	blt	r4,r2,1000409c <___vfprintf_internal_r+0x1bd0>
10003f2c:	42000204 	addi	r8,r8,8
10003f30:	8800041e 	bne	r17,zero,10003f44 <___vfprintf_internal_r+0x1a78>
10003f34:	d8803317 	ldw	r2,204(sp)
10003f38:	1000021e 	bne	r2,zero,10003f44 <___vfprintf_internal_r+0x1a78>
10003f3c:	9080004c 	andi	r2,r18,1
10003f40:	103be726 	beq	r2,zero,10002ee0 <__alt_data_end+0xf8002ee0>
10003f44:	d9003717 	ldw	r4,220(sp)
10003f48:	d8801f17 	ldw	r2,124(sp)
10003f4c:	d9403417 	ldw	r5,208(sp)
10003f50:	20c7883a 	add	r3,r4,r3
10003f54:	10800044 	addi	r2,r2,1
10003f58:	41000115 	stw	r4,4(r8)
10003f5c:	41400015 	stw	r5,0(r8)
10003f60:	d8c02015 	stw	r3,128(sp)
10003f64:	d8801f15 	stw	r2,124(sp)
10003f68:	010001c4 	movi	r4,7
10003f6c:	20812116 	blt	r4,r2,100043f4 <___vfprintf_internal_r+0x1f28>
10003f70:	42000204 	addi	r8,r8,8
10003f74:	0463c83a 	sub	r17,zero,r17
10003f78:	0440730e 	bge	zero,r17,10004148 <___vfprintf_internal_r+0x1c7c>
10003f7c:	05800404 	movi	r22,16
10003f80:	b440860e 	bge	r22,r17,1000419c <___vfprintf_internal_r+0x1cd0>
10003f84:	01440074 	movhi	r5,4097
10003f88:	29488f84 	addi	r5,r5,8766
10003f8c:	d9402c15 	stw	r5,176(sp)
10003f90:	070001c4 	movi	fp,7
10003f94:	dcc02d17 	ldw	r19,180(sp)
10003f98:	00000306 	br	10003fa8 <___vfprintf_internal_r+0x1adc>
10003f9c:	42000204 	addi	r8,r8,8
10003fa0:	8c7ffc04 	addi	r17,r17,-16
10003fa4:	b440800e 	bge	r22,r17,100041a8 <___vfprintf_internal_r+0x1cdc>
10003fa8:	18c00404 	addi	r3,r3,16
10003fac:	10800044 	addi	r2,r2,1
10003fb0:	45000015 	stw	r20,0(r8)
10003fb4:	45800115 	stw	r22,4(r8)
10003fb8:	d8c02015 	stw	r3,128(sp)
10003fbc:	d8801f15 	stw	r2,124(sp)
10003fc0:	e0bff60e 	bge	fp,r2,10003f9c <__alt_data_end+0xf8003f9c>
10003fc4:	d9801e04 	addi	r6,sp,120
10003fc8:	b80b883a 	mov	r5,r23
10003fcc:	9809883a 	mov	r4,r19
10003fd0:	0009cac0 	call	10009cac <__sprint_r>
10003fd4:	103a411e 	bne	r2,zero,100028dc <__alt_data_end+0xf80028dc>
10003fd8:	d8c02017 	ldw	r3,128(sp)
10003fdc:	d8801f17 	ldw	r2,124(sp)
10003fe0:	da000404 	addi	r8,sp,16
10003fe4:	003fee06 	br	10003fa0 <__alt_data_end+0xf8003fa0>
10003fe8:	00bfffc4 	movi	r2,-1
10003fec:	003a3f06 	br	100028ec <__alt_data_end+0xf80028ec>
10003ff0:	008011c4 	movi	r2,71
10003ff4:	1440b816 	blt	r2,r17,100042d8 <___vfprintf_internal_r+0x1e0c>
10003ff8:	04040074 	movhi	r16,4097
10003ffc:	84088104 	addi	r16,r16,8708
10004000:	00c000c4 	movi	r3,3
10004004:	00bfdfc4 	movi	r2,-129
10004008:	d8c02915 	stw	r3,164(sp)
1000400c:	90a4703a 	and	r18,r18,r2
10004010:	df002783 	ldbu	fp,158(sp)
10004014:	d8c02b15 	stw	r3,172(sp)
10004018:	d8002a15 	stw	zero,168(sp)
1000401c:	d8003215 	stw	zero,200(sp)
10004020:	003b0706 	br	10002c40 <__alt_data_end+0xf8002c40>
10004024:	d8c02e17 	ldw	r3,184(sp)
10004028:	1cc00017 	ldw	r19,0(r3)
1000402c:	18c00104 	addi	r3,r3,4
10004030:	d8c02e15 	stw	r3,184(sp)
10004034:	982dd7fa 	srai	r22,r19,31
10004038:	b005883a 	mov	r2,r22
1000403c:	003a7706 	br	10002a1c <__alt_data_end+0xf8002a1c>
10004040:	d8c02e17 	ldw	r3,184(sp)
10004044:	d9002f17 	ldw	r4,188(sp)
10004048:	18800017 	ldw	r2,0(r3)
1000404c:	18c00104 	addi	r3,r3,4
10004050:	d8c02e15 	stw	r3,184(sp)
10004054:	11000015 	stw	r4,0(r2)
10004058:	00395406 	br	100025ac <__alt_data_end+0xf80025ac>
1000405c:	d9002e17 	ldw	r4,184(sp)
10004060:	002d883a 	mov	r22,zero
10004064:	24c00017 	ldw	r19,0(r4)
10004068:	21000104 	addi	r4,r4,4
1000406c:	d9002e15 	stw	r4,184(sp)
10004070:	003c0706 	br	10003090 <__alt_data_end+0xf8003090>
10004074:	d9402e17 	ldw	r5,184(sp)
10004078:	d8c02a17 	ldw	r3,168(sp)
1000407c:	002d883a 	mov	r22,zero
10004080:	28800104 	addi	r2,r5,4
10004084:	2cc0000b 	ldhu	r19,0(r5)
10004088:	183dc10e 	bge	r3,zero,10003790 <__alt_data_end+0xf8003790>
1000408c:	003f7506 	br	10003e64 <__alt_data_end+0xf8003e64>
10004090:	04040074 	movhi	r16,4097
10004094:	84087f04 	addi	r16,r16,8700
10004098:	003aa706 	br	10002b38 <__alt_data_end+0xf8002b38>
1000409c:	d9002d17 	ldw	r4,180(sp)
100040a0:	d9801e04 	addi	r6,sp,120
100040a4:	b80b883a 	mov	r5,r23
100040a8:	0009cac0 	call	10009cac <__sprint_r>
100040ac:	103a0b1e 	bne	r2,zero,100028dc <__alt_data_end+0xf80028dc>
100040b0:	dc402617 	ldw	r17,152(sp)
100040b4:	d8c02017 	ldw	r3,128(sp)
100040b8:	da000404 	addi	r8,sp,16
100040bc:	003f9c06 	br	10003f30 <__alt_data_end+0xf8003f30>
100040c0:	ac400043 	ldbu	r17,1(r21)
100040c4:	84000814 	ori	r16,r16,32
100040c8:	ad400044 	addi	r21,r21,1
100040cc:	8c403fcc 	andi	r17,r17,255
100040d0:	8c40201c 	xori	r17,r17,128
100040d4:	8c7fe004 	addi	r17,r17,-128
100040d8:	00395e06 	br	10002654 <__alt_data_end+0xf8002654>
100040dc:	d8c02e15 	stw	r3,184(sp)
100040e0:	0039883a 	mov	fp,zero
100040e4:	003e3506 	br	100039bc <__alt_data_end+0xf80039bc>
100040e8:	d9002d17 	ldw	r4,180(sp)
100040ec:	d9801e04 	addi	r6,sp,120
100040f0:	b80b883a 	mov	r5,r23
100040f4:	0009cac0 	call	10009cac <__sprint_r>
100040f8:	1039f81e 	bne	r2,zero,100028dc <__alt_data_end+0xf80028dc>
100040fc:	d8c02017 	ldw	r3,128(sp)
10004100:	da000404 	addi	r8,sp,16
10004104:	003cd006 	br	10003448 <__alt_data_end+0xf8003448>
10004108:	8009883a 	mov	r4,r16
1000410c:	df003d15 	stw	fp,244(sp)
10004110:	00024340 	call	10002434 <strlen>
10004114:	d8802b15 	stw	r2,172(sp)
10004118:	da003d17 	ldw	r8,244(sp)
1000411c:	103c200e 	bge	r2,zero,100031a0 <__alt_data_end+0xf80031a0>
10004120:	0005883a 	mov	r2,zero
10004124:	003c1e06 	br	100031a0 <__alt_data_end+0xf80031a0>
10004128:	d9002d17 	ldw	r4,180(sp)
1000412c:	d9801e04 	addi	r6,sp,120
10004130:	b80b883a 	mov	r5,r23
10004134:	0009cac0 	call	10009cac <__sprint_r>
10004138:	1039e81e 	bne	r2,zero,100028dc <__alt_data_end+0xf80028dc>
1000413c:	d8c02017 	ldw	r3,128(sp)
10004140:	d8801f17 	ldw	r2,124(sp)
10004144:	da000404 	addi	r8,sp,16
10004148:	d9403317 	ldw	r5,204(sp)
1000414c:	10800044 	addi	r2,r2,1
10004150:	44000015 	stw	r16,0(r8)
10004154:	28c7883a 	add	r3,r5,r3
10004158:	003b5b06 	br	10002ec8 <__alt_data_end+0xf8002ec8>
1000415c:	01040074 	movhi	r4,4097
10004160:	21089384 	addi	r4,r4,8782
10004164:	d9003515 	stw	r4,212(sp)
10004168:	003af206 	br	10002d34 <__alt_data_end+0xf8002d34>
1000416c:	013fffc4 	movi	r4,-1
10004170:	003a0806 	br	10002994 <__alt_data_end+0xf8002994>
10004174:	0023883a 	mov	r17,zero
10004178:	003d9d06 	br	100037f0 <__alt_data_end+0xf80037f0>
1000417c:	d9002d17 	ldw	r4,180(sp)
10004180:	d9801e04 	addi	r6,sp,120
10004184:	b80b883a 	mov	r5,r23
10004188:	0009cac0 	call	10009cac <__sprint_r>
1000418c:	1039d31e 	bne	r2,zero,100028dc <__alt_data_end+0xf80028dc>
10004190:	d8c02017 	ldw	r3,128(sp)
10004194:	da000404 	addi	r8,sp,16
10004198:	003d9406 	br	100037ec <__alt_data_end+0xf80037ec>
1000419c:	01040074 	movhi	r4,4097
100041a0:	21088f84 	addi	r4,r4,8766
100041a4:	d9002c15 	stw	r4,176(sp)
100041a8:	d9002c17 	ldw	r4,176(sp)
100041ac:	1c47883a 	add	r3,r3,r17
100041b0:	10800044 	addi	r2,r2,1
100041b4:	41000015 	stw	r4,0(r8)
100041b8:	44400115 	stw	r17,4(r8)
100041bc:	d8c02015 	stw	r3,128(sp)
100041c0:	d8801f15 	stw	r2,124(sp)
100041c4:	010001c4 	movi	r4,7
100041c8:	20bfd716 	blt	r4,r2,10004128 <__alt_data_end+0xf8004128>
100041cc:	42000204 	addi	r8,r8,8
100041d0:	003fdd06 	br	10004148 <__alt_data_end+0xf8004148>
100041d4:	d9002d17 	ldw	r4,180(sp)
100041d8:	d9801e04 	addi	r6,sp,120
100041dc:	b80b883a 	mov	r5,r23
100041e0:	0009cac0 	call	10009cac <__sprint_r>
100041e4:	1039bd1e 	bne	r2,zero,100028dc <__alt_data_end+0xf80028dc>
100041e8:	d8802617 	ldw	r2,152(sp)
100041ec:	d8c02017 	ldw	r3,128(sp)
100041f0:	da000404 	addi	r8,sp,16
100041f4:	003e1006 	br	10003a38 <__alt_data_end+0xf8003a38>
100041f8:	00800044 	movi	r2,1
100041fc:	10803fcc 	andi	r2,r2,255
10004200:	00c00044 	movi	r3,1
10004204:	10fa0d26 	beq	r2,r3,10002a3c <__alt_data_end+0xf8002a3c>
10004208:	00c00084 	movi	r3,2
1000420c:	10fbaf26 	beq	r2,r3,100030cc <__alt_data_end+0xf80030cc>
10004210:	003a6d06 	br	10002bc8 <__alt_data_end+0xf8002bc8>
10004214:	01040074 	movhi	r4,4097
10004218:	21089384 	addi	r4,r4,8782
1000421c:	d9003515 	stw	r4,212(sp)
10004220:	003b5406 	br	10002f74 <__alt_data_end+0xf8002f74>
10004224:	d8802a17 	ldw	r2,168(sp)
10004228:	00c00184 	movi	r3,6
1000422c:	1880012e 	bgeu	r3,r2,10004234 <___vfprintf_internal_r+0x1d68>
10004230:	1805883a 	mov	r2,r3
10004234:	d8802b15 	stw	r2,172(sp)
10004238:	1000ef16 	blt	r2,zero,100045f8 <___vfprintf_internal_r+0x212c>
1000423c:	04040074 	movhi	r16,4097
10004240:	d8802915 	stw	r2,164(sp)
10004244:	dcc02e15 	stw	r19,184(sp)
10004248:	d8002a15 	stw	zero,168(sp)
1000424c:	d8003215 	stw	zero,200(sp)
10004250:	84088d04 	addi	r16,r16,8756
10004254:	0039883a 	mov	fp,zero
10004258:	003a8006 	br	10002c5c <__alt_data_end+0xf8002c5c>
1000425c:	0021883a 	mov	r16,zero
10004260:	003e0706 	br	10003a80 <__alt_data_end+0xf8003a80>
10004264:	d9002d17 	ldw	r4,180(sp)
10004268:	d9801e04 	addi	r6,sp,120
1000426c:	b80b883a 	mov	r5,r23
10004270:	0009cac0 	call	10009cac <__sprint_r>
10004274:	1039991e 	bne	r2,zero,100028dc <__alt_data_end+0xf80028dc>
10004278:	d8802617 	ldw	r2,152(sp)
1000427c:	d9403317 	ldw	r5,204(sp)
10004280:	d8c02017 	ldw	r3,128(sp)
10004284:	da000404 	addi	r8,sp,16
10004288:	2885c83a 	sub	r2,r5,r2
1000428c:	003dfb06 	br	10003a7c <__alt_data_end+0xf8003a7c>
10004290:	9080004c 	andi	r2,r18,1
10004294:	103e8f1e 	bne	r2,zero,10003cd4 <__alt_data_end+0xf8003cd4>
10004298:	d8802117 	ldw	r2,132(sp)
1000429c:	003e9e06 	br	10003d18 <__alt_data_end+0xf8003d18>
100042a0:	1025883a 	mov	r18,r2
100042a4:	0039883a 	mov	fp,zero
100042a8:	00800084 	movi	r2,2
100042ac:	003fd306 	br	100041fc <__alt_data_end+0xf80041fc>
100042b0:	07000b44 	movi	fp,45
100042b4:	df002785 	stb	fp,158(sp)
100042b8:	003a1b06 	br	10002b28 <__alt_data_end+0xf8002b28>
100042bc:	00c00b44 	movi	r3,45
100042c0:	d8c02785 	stb	r3,158(sp)
100042c4:	d8802915 	stw	r2,164(sp)
100042c8:	dc802c17 	ldw	r18,176(sp)
100042cc:	d8002a15 	stw	zero,168(sp)
100042d0:	07000b44 	movi	fp,45
100042d4:	003a5e06 	br	10002c50 <__alt_data_end+0xf8002c50>
100042d8:	04040074 	movhi	r16,4097
100042dc:	84088204 	addi	r16,r16,8712
100042e0:	003f4706 	br	10004000 <__alt_data_end+0xf8004000>
100042e4:	d9002e17 	ldw	r4,184(sp)
100042e8:	d9402f17 	ldw	r5,188(sp)
100042ec:	20800017 	ldw	r2,0(r4)
100042f0:	21000104 	addi	r4,r4,4
100042f4:	d9002e15 	stw	r4,184(sp)
100042f8:	11400015 	stw	r5,0(r2)
100042fc:	0038ab06 	br	100025ac <__alt_data_end+0xf80025ac>
10004300:	dd802617 	ldw	r22,152(sp)
10004304:	00bfff44 	movi	r2,-3
10004308:	b0801c16 	blt	r22,r2,1000437c <___vfprintf_internal_r+0x1eb0>
1000430c:	d9402a17 	ldw	r5,168(sp)
10004310:	2d801a16 	blt	r5,r22,1000437c <___vfprintf_internal_r+0x1eb0>
10004314:	dd803215 	stw	r22,200(sp)
10004318:	003e8906 	br	10003d40 <__alt_data_end+0xf8003d40>
1000431c:	01040074 	movhi	r4,4097
10004320:	21088f84 	addi	r4,r4,8766
10004324:	d9002c15 	stw	r4,176(sp)
10004328:	003c9106 	br	10003570 <__alt_data_end+0xf8003570>
1000432c:	e005883a 	mov	r2,fp
10004330:	003e7906 	br	10003d18 <__alt_data_end+0xf8003d18>
10004334:	d9002a17 	ldw	r4,168(sp)
10004338:	df002783 	ldbu	fp,158(sp)
1000433c:	dcc02e15 	stw	r19,184(sp)
10004340:	d9002915 	stw	r4,164(sp)
10004344:	d9002b15 	stw	r4,172(sp)
10004348:	d8002a15 	stw	zero,168(sp)
1000434c:	d8003215 	stw	zero,200(sp)
10004350:	003a3b06 	br	10002c40 <__alt_data_end+0xf8002c40>
10004354:	9080004c 	andi	r2,r18,1
10004358:	0039883a 	mov	fp,zero
1000435c:	10000426 	beq	r2,zero,10004370 <___vfprintf_internal_r+0x1ea4>
10004360:	00800c04 	movi	r2,48
10004364:	dc001dc4 	addi	r16,sp,119
10004368:	d8801dc5 	stb	r2,119(sp)
1000436c:	003b6406 	br	10003100 <__alt_data_end+0xf8003100>
10004370:	d8002b15 	stw	zero,172(sp)
10004374:	dc001e04 	addi	r16,sp,120
10004378:	003a2b06 	br	10002c28 <__alt_data_end+0xf8002c28>
1000437c:	8c7fff84 	addi	r17,r17,-2
10004380:	b5bfffc4 	addi	r22,r22,-1
10004384:	dd802615 	stw	r22,152(sp)
10004388:	dc4022c5 	stb	r17,139(sp)
1000438c:	b000bf16 	blt	r22,zero,1000468c <___vfprintf_internal_r+0x21c0>
10004390:	00800ac4 	movi	r2,43
10004394:	d8802305 	stb	r2,140(sp)
10004398:	00800244 	movi	r2,9
1000439c:	15807016 	blt	r2,r22,10004560 <___vfprintf_internal_r+0x2094>
100043a0:	00800c04 	movi	r2,48
100043a4:	b5800c04 	addi	r22,r22,48
100043a8:	d8802345 	stb	r2,141(sp)
100043ac:	dd802385 	stb	r22,142(sp)
100043b0:	d88023c4 	addi	r2,sp,143
100043b4:	df0022c4 	addi	fp,sp,139
100043b8:	d8c03317 	ldw	r3,204(sp)
100043bc:	1739c83a 	sub	fp,r2,fp
100043c0:	d9003317 	ldw	r4,204(sp)
100043c4:	e0c7883a 	add	r3,fp,r3
100043c8:	df003a15 	stw	fp,232(sp)
100043cc:	d8c02b15 	stw	r3,172(sp)
100043d0:	00800044 	movi	r2,1
100043d4:	1100b30e 	bge	r2,r4,100046a4 <___vfprintf_internal_r+0x21d8>
100043d8:	d8c02b17 	ldw	r3,172(sp)
100043dc:	18c00044 	addi	r3,r3,1
100043e0:	d8c02b15 	stw	r3,172(sp)
100043e4:	1805883a 	mov	r2,r3
100043e8:	1800ac16 	blt	r3,zero,1000469c <___vfprintf_internal_r+0x21d0>
100043ec:	d8003215 	stw	zero,200(sp)
100043f0:	003e5d06 	br	10003d68 <__alt_data_end+0xf8003d68>
100043f4:	d9002d17 	ldw	r4,180(sp)
100043f8:	d9801e04 	addi	r6,sp,120
100043fc:	b80b883a 	mov	r5,r23
10004400:	0009cac0 	call	10009cac <__sprint_r>
10004404:	1039351e 	bne	r2,zero,100028dc <__alt_data_end+0xf80028dc>
10004408:	dc402617 	ldw	r17,152(sp)
1000440c:	d8c02017 	ldw	r3,128(sp)
10004410:	d8801f17 	ldw	r2,124(sp)
10004414:	da000404 	addi	r8,sp,16
10004418:	003ed606 	br	10003f74 <__alt_data_end+0xf8003f74>
1000441c:	182b883a 	mov	r21,r3
10004420:	d8002a15 	stw	zero,168(sp)
10004424:	00388c06 	br	10002658 <__alt_data_end+0xf8002658>
10004428:	d8802a17 	ldw	r2,168(sp)
1000442c:	103e071e 	bne	r2,zero,10003c4c <__alt_data_end+0xf8003c4c>
10004430:	dc002a15 	stw	r16,168(sp)
10004434:	003e0506 	br	10003c4c <__alt_data_end+0xf8003c4c>
10004438:	d9002a17 	ldw	r4,168(sp)
1000443c:	20c00044 	addi	r3,r4,1
10004440:	003e0f06 	br	10003c80 <__alt_data_end+0xf8003c80>
10004444:	01400184 	movi	r5,6
10004448:	d9402a15 	stw	r5,168(sp)
1000444c:	003dff06 	br	10003c4c <__alt_data_end+0xf8003c4c>
10004450:	d8802104 	addi	r2,sp,132
10004454:	d8800315 	stw	r2,12(sp)
10004458:	d8802504 	addi	r2,sp,148
1000445c:	d8800215 	stw	r2,8(sp)
10004460:	d8802604 	addi	r2,sp,152
10004464:	d8800115 	stw	r2,4(sp)
10004468:	d8802a17 	ldw	r2,168(sp)
1000446c:	d9403617 	ldw	r5,216(sp)
10004470:	d9002d17 	ldw	r4,180(sp)
10004474:	d8800015 	stw	r2,0(sp)
10004478:	01c000c4 	movi	r7,3
1000447c:	980d883a 	mov	r6,r19
10004480:	da003d15 	stw	r8,244(sp)
10004484:	0004bfc0 	call	10004bfc <_dtoa_r>
10004488:	d8c02a17 	ldw	r3,168(sp)
1000448c:	da003d17 	ldw	r8,244(sp)
10004490:	1021883a 	mov	r16,r2
10004494:	10f9883a 	add	fp,r2,r3
10004498:	81000007 	ldb	r4,0(r16)
1000449c:	00800c04 	movi	r2,48
100044a0:	20805e26 	beq	r4,r2,1000461c <___vfprintf_internal_r+0x2150>
100044a4:	d8c02617 	ldw	r3,152(sp)
100044a8:	e0f9883a 	add	fp,fp,r3
100044ac:	003e0a06 	br	10003cd8 <__alt_data_end+0xf8003cd8>
100044b0:	00c00b44 	movi	r3,45
100044b4:	24e0003c 	xorhi	r19,r4,32768
100044b8:	d8c02905 	stb	r3,164(sp)
100044bc:	003de906 	br	10003c64 <__alt_data_end+0xf8003c64>
100044c0:	d8c03217 	ldw	r3,200(sp)
100044c4:	00c07a0e 	bge	zero,r3,100046b0 <___vfprintf_internal_r+0x21e4>
100044c8:	00800044 	movi	r2,1
100044cc:	d9003317 	ldw	r4,204(sp)
100044d0:	1105883a 	add	r2,r2,r4
100044d4:	d8802b15 	stw	r2,172(sp)
100044d8:	10004e16 	blt	r2,zero,10004614 <___vfprintf_internal_r+0x2148>
100044dc:	044019c4 	movi	r17,103
100044e0:	003e2106 	br	10003d68 <__alt_data_end+0xf8003d68>
100044e4:	d9002a17 	ldw	r4,168(sp)
100044e8:	d8802104 	addi	r2,sp,132
100044ec:	d8800315 	stw	r2,12(sp)
100044f0:	d9000015 	stw	r4,0(sp)
100044f4:	d8802504 	addi	r2,sp,148
100044f8:	d9403617 	ldw	r5,216(sp)
100044fc:	d9002d17 	ldw	r4,180(sp)
10004500:	d8800215 	stw	r2,8(sp)
10004504:	d8802604 	addi	r2,sp,152
10004508:	d8800115 	stw	r2,4(sp)
1000450c:	01c000c4 	movi	r7,3
10004510:	980d883a 	mov	r6,r19
10004514:	da003d15 	stw	r8,244(sp)
10004518:	0004bfc0 	call	10004bfc <_dtoa_r>
1000451c:	d8c02a17 	ldw	r3,168(sp)
10004520:	da003d17 	ldw	r8,244(sp)
10004524:	1021883a 	mov	r16,r2
10004528:	00801184 	movi	r2,70
1000452c:	80f9883a 	add	fp,r16,r3
10004530:	88bfd926 	beq	r17,r2,10004498 <__alt_data_end+0xf8004498>
10004534:	003de806 	br	10003cd8 <__alt_data_end+0xf8003cd8>
10004538:	d9002a17 	ldw	r4,168(sp)
1000453c:	00c04d0e 	bge	zero,r3,10004674 <___vfprintf_internal_r+0x21a8>
10004540:	2000441e 	bne	r4,zero,10004654 <___vfprintf_internal_r+0x2188>
10004544:	9480004c 	andi	r18,r18,1
10004548:	9000421e 	bne	r18,zero,10004654 <___vfprintf_internal_r+0x2188>
1000454c:	1805883a 	mov	r2,r3
10004550:	18006f16 	blt	r3,zero,10004710 <___vfprintf_internal_r+0x2244>
10004554:	d8c03217 	ldw	r3,200(sp)
10004558:	d8c02b15 	stw	r3,172(sp)
1000455c:	003e0206 	br	10003d68 <__alt_data_end+0xf8003d68>
10004560:	df0022c4 	addi	fp,sp,139
10004564:	dc002a15 	stw	r16,168(sp)
10004568:	4027883a 	mov	r19,r8
1000456c:	e021883a 	mov	r16,fp
10004570:	b009883a 	mov	r4,r22
10004574:	01400284 	movi	r5,10
10004578:	000c8380 	call	1000c838 <__modsi3>
1000457c:	10800c04 	addi	r2,r2,48
10004580:	843fffc4 	addi	r16,r16,-1
10004584:	b009883a 	mov	r4,r22
10004588:	01400284 	movi	r5,10
1000458c:	80800005 	stb	r2,0(r16)
10004590:	000c7b40 	call	1000c7b4 <__divsi3>
10004594:	102d883a 	mov	r22,r2
10004598:	00800244 	movi	r2,9
1000459c:	15bff416 	blt	r2,r22,10004570 <__alt_data_end+0xf8004570>
100045a0:	9811883a 	mov	r8,r19
100045a4:	b0800c04 	addi	r2,r22,48
100045a8:	8027883a 	mov	r19,r16
100045ac:	997fffc4 	addi	r5,r19,-1
100045b0:	98bfffc5 	stb	r2,-1(r19)
100045b4:	dc002a17 	ldw	r16,168(sp)
100045b8:	2f006d2e 	bgeu	r5,fp,10004770 <___vfprintf_internal_r+0x22a4>
100045bc:	d9c02384 	addi	r7,sp,142
100045c0:	3ccfc83a 	sub	r7,r7,r19
100045c4:	d9002344 	addi	r4,sp,141
100045c8:	e1cf883a 	add	r7,fp,r7
100045cc:	00000106 	br	100045d4 <___vfprintf_internal_r+0x2108>
100045d0:	28800003 	ldbu	r2,0(r5)
100045d4:	20800005 	stb	r2,0(r4)
100045d8:	21000044 	addi	r4,r4,1
100045dc:	29400044 	addi	r5,r5,1
100045e0:	393ffb1e 	bne	r7,r4,100045d0 <__alt_data_end+0xf80045d0>
100045e4:	d8802304 	addi	r2,sp,140
100045e8:	14c5c83a 	sub	r2,r2,r19
100045ec:	d8c02344 	addi	r3,sp,141
100045f0:	1885883a 	add	r2,r3,r2
100045f4:	003f7006 	br	100043b8 <__alt_data_end+0xf80043b8>
100045f8:	0005883a 	mov	r2,zero
100045fc:	003f0f06 	br	1000423c <__alt_data_end+0xf800423c>
10004600:	d8c03217 	ldw	r3,200(sp)
10004604:	18c00044 	addi	r3,r3,1
10004608:	d8c02b15 	stw	r3,172(sp)
1000460c:	1805883a 	mov	r2,r3
10004610:	183fb20e 	bge	r3,zero,100044dc <__alt_data_end+0xf80044dc>
10004614:	0005883a 	mov	r2,zero
10004618:	003fb006 	br	100044dc <__alt_data_end+0xf80044dc>
1000461c:	d9003617 	ldw	r4,216(sp)
10004620:	000d883a 	mov	r6,zero
10004624:	000f883a 	mov	r7,zero
10004628:	980b883a 	mov	r5,r19
1000462c:	d8c03c15 	stw	r3,240(sp)
10004630:	da003d15 	stw	r8,244(sp)
10004634:	000dc0c0 	call	1000dc0c <__eqdf2>
10004638:	d8c03c17 	ldw	r3,240(sp)
1000463c:	da003d17 	ldw	r8,244(sp)
10004640:	103f9826 	beq	r2,zero,100044a4 <__alt_data_end+0xf80044a4>
10004644:	00800044 	movi	r2,1
10004648:	10c7c83a 	sub	r3,r2,r3
1000464c:	d8c02615 	stw	r3,152(sp)
10004650:	003f9506 	br	100044a8 <__alt_data_end+0xf80044a8>
10004654:	d9002a17 	ldw	r4,168(sp)
10004658:	d8c03217 	ldw	r3,200(sp)
1000465c:	20800044 	addi	r2,r4,1
10004660:	1885883a 	add	r2,r3,r2
10004664:	d8802b15 	stw	r2,172(sp)
10004668:	103dbf0e 	bge	r2,zero,10003d68 <__alt_data_end+0xf8003d68>
1000466c:	0005883a 	mov	r2,zero
10004670:	003dbd06 	br	10003d68 <__alt_data_end+0xf8003d68>
10004674:	2000201e 	bne	r4,zero,100046f8 <___vfprintf_internal_r+0x222c>
10004678:	9480004c 	andi	r18,r18,1
1000467c:	90001e1e 	bne	r18,zero,100046f8 <___vfprintf_internal_r+0x222c>
10004680:	00800044 	movi	r2,1
10004684:	d8802b15 	stw	r2,172(sp)
10004688:	003db706 	br	10003d68 <__alt_data_end+0xf8003d68>
1000468c:	00800b44 	movi	r2,45
10004690:	05adc83a 	sub	r22,zero,r22
10004694:	d8802305 	stb	r2,140(sp)
10004698:	003f3f06 	br	10004398 <__alt_data_end+0xf8004398>
1000469c:	0005883a 	mov	r2,zero
100046a0:	003f5206 	br	100043ec <__alt_data_end+0xf80043ec>
100046a4:	90a4703a 	and	r18,r18,r2
100046a8:	903f4e26 	beq	r18,zero,100043e4 <__alt_data_end+0xf80043e4>
100046ac:	003f4a06 	br	100043d8 <__alt_data_end+0xf80043d8>
100046b0:	00800084 	movi	r2,2
100046b4:	10c5c83a 	sub	r2,r2,r3
100046b8:	003f8406 	br	100044cc <__alt_data_end+0xf80044cc>
100046bc:	d9402e17 	ldw	r5,184(sp)
100046c0:	d9002e17 	ldw	r4,184(sp)
100046c4:	ac400043 	ldbu	r17,1(r21)
100046c8:	29400017 	ldw	r5,0(r5)
100046cc:	20800104 	addi	r2,r4,4
100046d0:	d8802e15 	stw	r2,184(sp)
100046d4:	d9402a15 	stw	r5,168(sp)
100046d8:	182b883a 	mov	r21,r3
100046dc:	283e7b0e 	bge	r5,zero,100040cc <__alt_data_end+0xf80040cc>
100046e0:	8c403fcc 	andi	r17,r17,255
100046e4:	017fffc4 	movi	r5,-1
100046e8:	8c40201c 	xori	r17,r17,128
100046ec:	d9402a15 	stw	r5,168(sp)
100046f0:	8c7fe004 	addi	r17,r17,-128
100046f4:	0037d706 	br	10002654 <__alt_data_end+0xf8002654>
100046f8:	d8c02a17 	ldw	r3,168(sp)
100046fc:	18c00084 	addi	r3,r3,2
10004700:	d8c02b15 	stw	r3,172(sp)
10004704:	1805883a 	mov	r2,r3
10004708:	183d970e 	bge	r3,zero,10003d68 <__alt_data_end+0xf8003d68>
1000470c:	003fd706 	br	1000466c <__alt_data_end+0xf800466c>
10004710:	0005883a 	mov	r2,zero
10004714:	003f8f06 	br	10004554 <__alt_data_end+0xf8004554>
10004718:	9080004c 	andi	r2,r18,1
1000471c:	103f821e 	bne	r2,zero,10004528 <__alt_data_end+0xf8004528>
10004720:	d8802117 	ldw	r2,132(sp)
10004724:	1405c83a 	sub	r2,r2,r16
10004728:	d8803315 	stw	r2,204(sp)
1000472c:	b47ef426 	beq	r22,r17,10004300 <__alt_data_end+0xf8004300>
10004730:	dd802617 	ldw	r22,152(sp)
10004734:	003f1206 	br	10004380 <__alt_data_end+0xf8004380>
10004738:	d8c02b03 	ldbu	r3,172(sp)
1000473c:	d8c02785 	stb	r3,158(sp)
10004740:	0038df06 	br	10002ac0 <__alt_data_end+0xf8002ac0>
10004744:	d8c02b03 	ldbu	r3,172(sp)
10004748:	d8c02785 	stb	r3,158(sp)
1000474c:	0038aa06 	br	100029f8 <__alt_data_end+0xf80029f8>
10004750:	d8c02b03 	ldbu	r3,172(sp)
10004754:	d8c02785 	stb	r3,158(sp)
10004758:	003a4306 	br	10003068 <__alt_data_end+0xf8003068>
1000475c:	d8c02b03 	ldbu	r3,172(sp)
10004760:	d8c02785 	stb	r3,158(sp)
10004764:	003af506 	br	1000333c <__alt_data_end+0xf800333c>
10004768:	0005883a 	mov	r2,zero
1000476c:	003d7b06 	br	10003d5c <__alt_data_end+0xf8003d5c>
10004770:	d8802344 	addi	r2,sp,141
10004774:	003f1006 	br	100043b8 <__alt_data_end+0xf80043b8>
10004778:	d8c02b03 	ldbu	r3,172(sp)
1000477c:	d8c02785 	stb	r3,158(sp)
10004780:	0038fd06 	br	10002b78 <__alt_data_end+0xf8002b78>
10004784:	d8c02b03 	ldbu	r3,172(sp)
10004788:	d8c02785 	stb	r3,158(sp)
1000478c:	003a9706 	br	100031ec <__alt_data_end+0xf80031ec>
10004790:	d8c02b03 	ldbu	r3,172(sp)
10004794:	d8c02785 	stb	r3,158(sp)
10004798:	003a1806 	br	10002ffc <__alt_data_end+0xf8002ffc>
1000479c:	d8c02b03 	ldbu	r3,172(sp)
100047a0:	d8c02785 	stb	r3,158(sp)
100047a4:	003abe06 	br	100032a0 <__alt_data_end+0xf80032a0>

100047a8 <__vfprintf_internal>:
100047a8:	00840074 	movhi	r2,4097
100047ac:	108fea04 	addi	r2,r2,16296
100047b0:	300f883a 	mov	r7,r6
100047b4:	280d883a 	mov	r6,r5
100047b8:	200b883a 	mov	r5,r4
100047bc:	11000017 	ldw	r4,0(r2)
100047c0:	00024cc1 	jmpi	100024cc <___vfprintf_internal_r>

100047c4 <__sbprintf>:
100047c4:	2880030b 	ldhu	r2,12(r5)
100047c8:	2ac01917 	ldw	r11,100(r5)
100047cc:	2a80038b 	ldhu	r10,14(r5)
100047d0:	2a400717 	ldw	r9,28(r5)
100047d4:	2a000917 	ldw	r8,36(r5)
100047d8:	defee204 	addi	sp,sp,-1144
100047dc:	00c10004 	movi	r3,1024
100047e0:	dc011a15 	stw	r16,1128(sp)
100047e4:	10bfff4c 	andi	r2,r2,65533
100047e8:	2821883a 	mov	r16,r5
100047ec:	d8cb883a 	add	r5,sp,r3
100047f0:	dc811c15 	stw	r18,1136(sp)
100047f4:	dc411b15 	stw	r17,1132(sp)
100047f8:	dfc11d15 	stw	ra,1140(sp)
100047fc:	2025883a 	mov	r18,r4
10004800:	d881030d 	sth	r2,1036(sp)
10004804:	dac11915 	stw	r11,1124(sp)
10004808:	da81038d 	sth	r10,1038(sp)
1000480c:	da410715 	stw	r9,1052(sp)
10004810:	da010915 	stw	r8,1060(sp)
10004814:	dec10015 	stw	sp,1024(sp)
10004818:	dec10415 	stw	sp,1040(sp)
1000481c:	d8c10215 	stw	r3,1032(sp)
10004820:	d8c10515 	stw	r3,1044(sp)
10004824:	d8010615 	stw	zero,1048(sp)
10004828:	00024cc0 	call	100024cc <___vfprintf_internal_r>
1000482c:	1023883a 	mov	r17,r2
10004830:	10000416 	blt	r2,zero,10004844 <__sbprintf+0x80>
10004834:	d9410004 	addi	r5,sp,1024
10004838:	9009883a 	mov	r4,r18
1000483c:	00064a00 	call	100064a0 <_fflush_r>
10004840:	10000d1e 	bne	r2,zero,10004878 <__sbprintf+0xb4>
10004844:	d881030b 	ldhu	r2,1036(sp)
10004848:	1080100c 	andi	r2,r2,64
1000484c:	10000326 	beq	r2,zero,1000485c <__sbprintf+0x98>
10004850:	8080030b 	ldhu	r2,12(r16)
10004854:	10801014 	ori	r2,r2,64
10004858:	8080030d 	sth	r2,12(r16)
1000485c:	8805883a 	mov	r2,r17
10004860:	dfc11d17 	ldw	ra,1140(sp)
10004864:	dc811c17 	ldw	r18,1136(sp)
10004868:	dc411b17 	ldw	r17,1132(sp)
1000486c:	dc011a17 	ldw	r16,1128(sp)
10004870:	dec11e04 	addi	sp,sp,1144
10004874:	f800283a 	ret
10004878:	047fffc4 	movi	r17,-1
1000487c:	003ff106 	br	10004844 <__alt_data_end+0xf8004844>

10004880 <__swsetup_r>:
10004880:	00840074 	movhi	r2,4097
10004884:	defffd04 	addi	sp,sp,-12
10004888:	108fea04 	addi	r2,r2,16296
1000488c:	dc400115 	stw	r17,4(sp)
10004890:	2023883a 	mov	r17,r4
10004894:	11000017 	ldw	r4,0(r2)
10004898:	dc000015 	stw	r16,0(sp)
1000489c:	dfc00215 	stw	ra,8(sp)
100048a0:	2821883a 	mov	r16,r5
100048a4:	20000226 	beq	r4,zero,100048b0 <__swsetup_r+0x30>
100048a8:	20800e17 	ldw	r2,56(r4)
100048ac:	10003126 	beq	r2,zero,10004974 <__swsetup_r+0xf4>
100048b0:	8080030b 	ldhu	r2,12(r16)
100048b4:	10c0020c 	andi	r3,r2,8
100048b8:	1009883a 	mov	r4,r2
100048bc:	18000f26 	beq	r3,zero,100048fc <__swsetup_r+0x7c>
100048c0:	80c00417 	ldw	r3,16(r16)
100048c4:	18001526 	beq	r3,zero,1000491c <__swsetup_r+0x9c>
100048c8:	1100004c 	andi	r4,r2,1
100048cc:	20001c1e 	bne	r4,zero,10004940 <__swsetup_r+0xc0>
100048d0:	1080008c 	andi	r2,r2,2
100048d4:	1000291e 	bne	r2,zero,1000497c <__swsetup_r+0xfc>
100048d8:	80800517 	ldw	r2,20(r16)
100048dc:	80800215 	stw	r2,8(r16)
100048e0:	18001c26 	beq	r3,zero,10004954 <__swsetup_r+0xd4>
100048e4:	0005883a 	mov	r2,zero
100048e8:	dfc00217 	ldw	ra,8(sp)
100048ec:	dc400117 	ldw	r17,4(sp)
100048f0:	dc000017 	ldw	r16,0(sp)
100048f4:	dec00304 	addi	sp,sp,12
100048f8:	f800283a 	ret
100048fc:	2080040c 	andi	r2,r4,16
10004900:	10002e26 	beq	r2,zero,100049bc <__swsetup_r+0x13c>
10004904:	2080010c 	andi	r2,r4,4
10004908:	10001e1e 	bne	r2,zero,10004984 <__swsetup_r+0x104>
1000490c:	80c00417 	ldw	r3,16(r16)
10004910:	20800214 	ori	r2,r4,8
10004914:	8080030d 	sth	r2,12(r16)
10004918:	183feb1e 	bne	r3,zero,100048c8 <__alt_data_end+0xf80048c8>
1000491c:	1100a00c 	andi	r4,r2,640
10004920:	01408004 	movi	r5,512
10004924:	217fe826 	beq	r4,r5,100048c8 <__alt_data_end+0xf80048c8>
10004928:	800b883a 	mov	r5,r16
1000492c:	8809883a 	mov	r4,r17
10004930:	000743c0 	call	1000743c <__smakebuf_r>
10004934:	8080030b 	ldhu	r2,12(r16)
10004938:	80c00417 	ldw	r3,16(r16)
1000493c:	003fe206 	br	100048c8 <__alt_data_end+0xf80048c8>
10004940:	80800517 	ldw	r2,20(r16)
10004944:	80000215 	stw	zero,8(r16)
10004948:	0085c83a 	sub	r2,zero,r2
1000494c:	80800615 	stw	r2,24(r16)
10004950:	183fe41e 	bne	r3,zero,100048e4 <__alt_data_end+0xf80048e4>
10004954:	80c0030b 	ldhu	r3,12(r16)
10004958:	0005883a 	mov	r2,zero
1000495c:	1900200c 	andi	r4,r3,128
10004960:	203fe126 	beq	r4,zero,100048e8 <__alt_data_end+0xf80048e8>
10004964:	18c01014 	ori	r3,r3,64
10004968:	80c0030d 	sth	r3,12(r16)
1000496c:	00bfffc4 	movi	r2,-1
10004970:	003fdd06 	br	100048e8 <__alt_data_end+0xf80048e8>
10004974:	000688c0 	call	1000688c <__sinit>
10004978:	003fcd06 	br	100048b0 <__alt_data_end+0xf80048b0>
1000497c:	0005883a 	mov	r2,zero
10004980:	003fd606 	br	100048dc <__alt_data_end+0xf80048dc>
10004984:	81400c17 	ldw	r5,48(r16)
10004988:	28000626 	beq	r5,zero,100049a4 <__swsetup_r+0x124>
1000498c:	80801004 	addi	r2,r16,64
10004990:	28800326 	beq	r5,r2,100049a0 <__swsetup_r+0x120>
10004994:	8809883a 	mov	r4,r17
10004998:	0006a000 	call	10006a00 <_free_r>
1000499c:	8100030b 	ldhu	r4,12(r16)
100049a0:	80000c15 	stw	zero,48(r16)
100049a4:	80c00417 	ldw	r3,16(r16)
100049a8:	00bff6c4 	movi	r2,-37
100049ac:	1108703a 	and	r4,r2,r4
100049b0:	80000115 	stw	zero,4(r16)
100049b4:	80c00015 	stw	r3,0(r16)
100049b8:	003fd506 	br	10004910 <__alt_data_end+0xf8004910>
100049bc:	00800244 	movi	r2,9
100049c0:	88800015 	stw	r2,0(r17)
100049c4:	20801014 	ori	r2,r4,64
100049c8:	8080030d 	sth	r2,12(r16)
100049cc:	00bfffc4 	movi	r2,-1
100049d0:	003fc506 	br	100048e8 <__alt_data_end+0xf80048e8>

100049d4 <quorem>:
100049d4:	defff204 	addi	sp,sp,-56
100049d8:	ddc00b15 	stw	r23,44(sp)
100049dc:	20800417 	ldw	r2,16(r4)
100049e0:	2dc00417 	ldw	r23,16(r5)
100049e4:	dfc00d15 	stw	ra,52(sp)
100049e8:	df000c15 	stw	fp,48(sp)
100049ec:	dd800a15 	stw	r22,40(sp)
100049f0:	dd400915 	stw	r21,36(sp)
100049f4:	dd000815 	stw	r20,32(sp)
100049f8:	dcc00715 	stw	r19,28(sp)
100049fc:	dc800615 	stw	r18,24(sp)
10004a00:	dc400515 	stw	r17,20(sp)
10004a04:	dc000415 	stw	r16,16(sp)
10004a08:	15c07a16 	blt	r2,r23,10004bf4 <quorem+0x220>
10004a0c:	bdffffc4 	addi	r23,r23,-1
10004a10:	bde9883a 	add	r20,r23,r23
10004a14:	28c00504 	addi	r3,r5,20
10004a18:	a529883a 	add	r20,r20,r20
10004a1c:	1d39883a 	add	fp,r3,r20
10004a20:	24c00504 	addi	r19,r4,20
10004a24:	d9400215 	stw	r5,8(sp)
10004a28:	9d29883a 	add	r20,r19,r20
10004a2c:	e1400017 	ldw	r5,0(fp)
10004a30:	d9000015 	stw	r4,0(sp)
10004a34:	a1000017 	ldw	r4,0(r20)
10004a38:	29400044 	addi	r5,r5,1
10004a3c:	d8c00115 	stw	r3,4(sp)
10004a40:	dd000315 	stw	r20,12(sp)
10004a44:	000c8ac0 	call	1000c8ac <__udivsi3>
10004a48:	1025883a 	mov	r18,r2
10004a4c:	10003026 	beq	r2,zero,10004b10 <quorem+0x13c>
10004a50:	dc400117 	ldw	r17,4(sp)
10004a54:	9829883a 	mov	r20,r19
10004a58:	002d883a 	mov	r22,zero
10004a5c:	0021883a 	mov	r16,zero
10004a60:	8d400017 	ldw	r21,0(r17)
10004a64:	900b883a 	mov	r5,r18
10004a68:	8c400104 	addi	r17,r17,4
10004a6c:	a93fffcc 	andi	r4,r21,65535
10004a70:	000c9680 	call	1000c968 <__mulsi3>
10004a74:	a808d43a 	srli	r4,r21,16
10004a78:	900b883a 	mov	r5,r18
10004a7c:	15ad883a 	add	r22,r2,r22
10004a80:	000c9680 	call	1000c968 <__mulsi3>
10004a84:	a1000017 	ldw	r4,0(r20)
10004a88:	b00cd43a 	srli	r6,r22,16
10004a8c:	b0ffffcc 	andi	r3,r22,65535
10004a90:	217fffcc 	andi	r5,r4,65535
10004a94:	2c21883a 	add	r16,r5,r16
10004a98:	80c7c83a 	sub	r3,r16,r3
10004a9c:	2008d43a 	srli	r4,r4,16
10004aa0:	1185883a 	add	r2,r2,r6
10004aa4:	1821d43a 	srai	r16,r3,16
10004aa8:	117fffcc 	andi	r5,r2,65535
10004aac:	2149c83a 	sub	r4,r4,r5
10004ab0:	2421883a 	add	r16,r4,r16
10004ab4:	8008943a 	slli	r4,r16,16
10004ab8:	18ffffcc 	andi	r3,r3,65535
10004abc:	102cd43a 	srli	r22,r2,16
10004ac0:	20c8b03a 	or	r4,r4,r3
10004ac4:	a1000015 	stw	r4,0(r20)
10004ac8:	8021d43a 	srai	r16,r16,16
10004acc:	a5000104 	addi	r20,r20,4
10004ad0:	e47fe32e 	bgeu	fp,r17,10004a60 <__alt_data_end+0xf8004a60>
10004ad4:	d8c00317 	ldw	r3,12(sp)
10004ad8:	18800017 	ldw	r2,0(r3)
10004adc:	10000c1e 	bne	r2,zero,10004b10 <quorem+0x13c>
10004ae0:	18bfff04 	addi	r2,r3,-4
10004ae4:	9880082e 	bgeu	r19,r2,10004b08 <quorem+0x134>
10004ae8:	18ffff17 	ldw	r3,-4(r3)
10004aec:	18000326 	beq	r3,zero,10004afc <quorem+0x128>
10004af0:	00000506 	br	10004b08 <quorem+0x134>
10004af4:	10c00017 	ldw	r3,0(r2)
10004af8:	1800031e 	bne	r3,zero,10004b08 <quorem+0x134>
10004afc:	10bfff04 	addi	r2,r2,-4
10004b00:	bdffffc4 	addi	r23,r23,-1
10004b04:	98bffb36 	bltu	r19,r2,10004af4 <__alt_data_end+0xf8004af4>
10004b08:	d8c00017 	ldw	r3,0(sp)
10004b0c:	1dc00415 	stw	r23,16(r3)
10004b10:	d9400217 	ldw	r5,8(sp)
10004b14:	d9000017 	ldw	r4,0(sp)
10004b18:	0008c380 	call	10008c38 <__mcmp>
10004b1c:	10002816 	blt	r2,zero,10004bc0 <quorem+0x1ec>
10004b20:	dc400117 	ldw	r17,4(sp)
10004b24:	94800044 	addi	r18,r18,1
10004b28:	980d883a 	mov	r6,r19
10004b2c:	0007883a 	mov	r3,zero
10004b30:	31000017 	ldw	r4,0(r6)
10004b34:	89400017 	ldw	r5,0(r17)
10004b38:	31800104 	addi	r6,r6,4
10004b3c:	20bfffcc 	andi	r2,r4,65535
10004b40:	10c7883a 	add	r3,r2,r3
10004b44:	28bfffcc 	andi	r2,r5,65535
10004b48:	1885c83a 	sub	r2,r3,r2
10004b4c:	280ad43a 	srli	r5,r5,16
10004b50:	2008d43a 	srli	r4,r4,16
10004b54:	1007d43a 	srai	r3,r2,16
10004b58:	10bfffcc 	andi	r2,r2,65535
10004b5c:	2149c83a 	sub	r4,r4,r5
10004b60:	20c9883a 	add	r4,r4,r3
10004b64:	200a943a 	slli	r5,r4,16
10004b68:	8c400104 	addi	r17,r17,4
10004b6c:	2007d43a 	srai	r3,r4,16
10004b70:	2884b03a 	or	r2,r5,r2
10004b74:	30bfff15 	stw	r2,-4(r6)
10004b78:	e47fed2e 	bgeu	fp,r17,10004b30 <__alt_data_end+0xf8004b30>
10004b7c:	bdc5883a 	add	r2,r23,r23
10004b80:	1085883a 	add	r2,r2,r2
10004b84:	9887883a 	add	r3,r19,r2
10004b88:	18800017 	ldw	r2,0(r3)
10004b8c:	10000c1e 	bne	r2,zero,10004bc0 <quorem+0x1ec>
10004b90:	18bfff04 	addi	r2,r3,-4
10004b94:	9880082e 	bgeu	r19,r2,10004bb8 <quorem+0x1e4>
10004b98:	18ffff17 	ldw	r3,-4(r3)
10004b9c:	18000326 	beq	r3,zero,10004bac <quorem+0x1d8>
10004ba0:	00000506 	br	10004bb8 <quorem+0x1e4>
10004ba4:	10c00017 	ldw	r3,0(r2)
10004ba8:	1800031e 	bne	r3,zero,10004bb8 <quorem+0x1e4>
10004bac:	10bfff04 	addi	r2,r2,-4
10004bb0:	bdffffc4 	addi	r23,r23,-1
10004bb4:	98bffb36 	bltu	r19,r2,10004ba4 <__alt_data_end+0xf8004ba4>
10004bb8:	d8c00017 	ldw	r3,0(sp)
10004bbc:	1dc00415 	stw	r23,16(r3)
10004bc0:	9005883a 	mov	r2,r18
10004bc4:	dfc00d17 	ldw	ra,52(sp)
10004bc8:	df000c17 	ldw	fp,48(sp)
10004bcc:	ddc00b17 	ldw	r23,44(sp)
10004bd0:	dd800a17 	ldw	r22,40(sp)
10004bd4:	dd400917 	ldw	r21,36(sp)
10004bd8:	dd000817 	ldw	r20,32(sp)
10004bdc:	dcc00717 	ldw	r19,28(sp)
10004be0:	dc800617 	ldw	r18,24(sp)
10004be4:	dc400517 	ldw	r17,20(sp)
10004be8:	dc000417 	ldw	r16,16(sp)
10004bec:	dec00e04 	addi	sp,sp,56
10004bf0:	f800283a 	ret
10004bf4:	0005883a 	mov	r2,zero
10004bf8:	003ff206 	br	10004bc4 <__alt_data_end+0xf8004bc4>

10004bfc <_dtoa_r>:
10004bfc:	20801017 	ldw	r2,64(r4)
10004c00:	deffde04 	addi	sp,sp,-136
10004c04:	df002015 	stw	fp,128(sp)
10004c08:	dcc01b15 	stw	r19,108(sp)
10004c0c:	dc801a15 	stw	r18,104(sp)
10004c10:	dc401915 	stw	r17,100(sp)
10004c14:	dc001815 	stw	r16,96(sp)
10004c18:	dfc02115 	stw	ra,132(sp)
10004c1c:	ddc01f15 	stw	r23,124(sp)
10004c20:	dd801e15 	stw	r22,120(sp)
10004c24:	dd401d15 	stw	r21,116(sp)
10004c28:	dd001c15 	stw	r20,112(sp)
10004c2c:	d9c00315 	stw	r7,12(sp)
10004c30:	2039883a 	mov	fp,r4
10004c34:	3023883a 	mov	r17,r6
10004c38:	2825883a 	mov	r18,r5
10004c3c:	dc002417 	ldw	r16,144(sp)
10004c40:	3027883a 	mov	r19,r6
10004c44:	10000826 	beq	r2,zero,10004c68 <_dtoa_r+0x6c>
10004c48:	21801117 	ldw	r6,68(r4)
10004c4c:	00c00044 	movi	r3,1
10004c50:	100b883a 	mov	r5,r2
10004c54:	1986983a 	sll	r3,r3,r6
10004c58:	11800115 	stw	r6,4(r2)
10004c5c:	10c00215 	stw	r3,8(r2)
10004c60:	000835c0 	call	1000835c <_Bfree>
10004c64:	e0001015 	stw	zero,64(fp)
10004c68:	88002e16 	blt	r17,zero,10004d24 <_dtoa_r+0x128>
10004c6c:	80000015 	stw	zero,0(r16)
10004c70:	889ffc2c 	andhi	r2,r17,32752
10004c74:	00dffc34 	movhi	r3,32752
10004c78:	10c01c26 	beq	r2,r3,10004cec <_dtoa_r+0xf0>
10004c7c:	000d883a 	mov	r6,zero
10004c80:	000f883a 	mov	r7,zero
10004c84:	9009883a 	mov	r4,r18
10004c88:	980b883a 	mov	r5,r19
10004c8c:	000dc0c0 	call	1000dc0c <__eqdf2>
10004c90:	10002b1e 	bne	r2,zero,10004d40 <_dtoa_r+0x144>
10004c94:	d9c02317 	ldw	r7,140(sp)
10004c98:	00800044 	movi	r2,1
10004c9c:	38800015 	stw	r2,0(r7)
10004ca0:	d8802517 	ldw	r2,148(sp)
10004ca4:	10019e26 	beq	r2,zero,10005320 <_dtoa_r+0x724>
10004ca8:	d8c02517 	ldw	r3,148(sp)
10004cac:	00840074 	movhi	r2,4097
10004cb0:	10888f44 	addi	r2,r2,8765
10004cb4:	18800015 	stw	r2,0(r3)
10004cb8:	10bfffc4 	addi	r2,r2,-1
10004cbc:	dfc02117 	ldw	ra,132(sp)
10004cc0:	df002017 	ldw	fp,128(sp)
10004cc4:	ddc01f17 	ldw	r23,124(sp)
10004cc8:	dd801e17 	ldw	r22,120(sp)
10004ccc:	dd401d17 	ldw	r21,116(sp)
10004cd0:	dd001c17 	ldw	r20,112(sp)
10004cd4:	dcc01b17 	ldw	r19,108(sp)
10004cd8:	dc801a17 	ldw	r18,104(sp)
10004cdc:	dc401917 	ldw	r17,100(sp)
10004ce0:	dc001817 	ldw	r16,96(sp)
10004ce4:	dec02204 	addi	sp,sp,136
10004ce8:	f800283a 	ret
10004cec:	d8c02317 	ldw	r3,140(sp)
10004cf0:	0089c3c4 	movi	r2,9999
10004cf4:	18800015 	stw	r2,0(r3)
10004cf8:	90017726 	beq	r18,zero,100052d8 <_dtoa_r+0x6dc>
10004cfc:	00840074 	movhi	r2,4097
10004d00:	10889b04 	addi	r2,r2,8812
10004d04:	d9002517 	ldw	r4,148(sp)
10004d08:	203fec26 	beq	r4,zero,10004cbc <__alt_data_end+0xf8004cbc>
10004d0c:	10c000c7 	ldb	r3,3(r2)
10004d10:	1801781e 	bne	r3,zero,100052f4 <_dtoa_r+0x6f8>
10004d14:	10c000c4 	addi	r3,r2,3
10004d18:	d9802517 	ldw	r6,148(sp)
10004d1c:	30c00015 	stw	r3,0(r6)
10004d20:	003fe606 	br	10004cbc <__alt_data_end+0xf8004cbc>
10004d24:	04e00034 	movhi	r19,32768
10004d28:	9cffffc4 	addi	r19,r19,-1
10004d2c:	00800044 	movi	r2,1
10004d30:	8ce6703a 	and	r19,r17,r19
10004d34:	80800015 	stw	r2,0(r16)
10004d38:	9823883a 	mov	r17,r19
10004d3c:	003fcc06 	br	10004c70 <__alt_data_end+0xf8004c70>
10004d40:	d8800204 	addi	r2,sp,8
10004d44:	d8800015 	stw	r2,0(sp)
10004d48:	d9c00104 	addi	r7,sp,4
10004d4c:	900b883a 	mov	r5,r18
10004d50:	980d883a 	mov	r6,r19
10004d54:	e009883a 	mov	r4,fp
10004d58:	8820d53a 	srli	r16,r17,20
10004d5c:	00090040 	call	10009004 <__d2b>
10004d60:	d8800915 	stw	r2,36(sp)
10004d64:	8001651e 	bne	r16,zero,100052fc <_dtoa_r+0x700>
10004d68:	dd800217 	ldw	r22,8(sp)
10004d6c:	dc000117 	ldw	r16,4(sp)
10004d70:	00800804 	movi	r2,32
10004d74:	b421883a 	add	r16,r22,r16
10004d78:	80c10c84 	addi	r3,r16,1074
10004d7c:	10c2d10e 	bge	r2,r3,100058c4 <_dtoa_r+0xcc8>
10004d80:	00801004 	movi	r2,64
10004d84:	81010484 	addi	r4,r16,1042
10004d88:	10c7c83a 	sub	r3,r2,r3
10004d8c:	9108d83a 	srl	r4,r18,r4
10004d90:	88e2983a 	sll	r17,r17,r3
10004d94:	2448b03a 	or	r4,r4,r17
10004d98:	000f1280 	call	1000f128 <__floatunsidf>
10004d9c:	017f8434 	movhi	r5,65040
10004da0:	01800044 	movi	r6,1
10004da4:	1009883a 	mov	r4,r2
10004da8:	194b883a 	add	r5,r3,r5
10004dac:	843fffc4 	addi	r16,r16,-1
10004db0:	d9801115 	stw	r6,68(sp)
10004db4:	000d883a 	mov	r6,zero
10004db8:	01cffe34 	movhi	r7,16376
10004dbc:	000e6d00 	call	1000e6d0 <__subdf3>
10004dc0:	0198dbf4 	movhi	r6,25455
10004dc4:	01cff4f4 	movhi	r7,16339
10004dc8:	3190d844 	addi	r6,r6,17249
10004dcc:	39e1e9c4 	addi	r7,r7,-30809
10004dd0:	1009883a 	mov	r4,r2
10004dd4:	180b883a 	mov	r5,r3
10004dd8:	000de640 	call	1000de64 <__muldf3>
10004ddc:	01a2d874 	movhi	r6,35681
10004de0:	01cff1f4 	movhi	r7,16327
10004de4:	31b22cc4 	addi	r6,r6,-14157
10004de8:	39e28a04 	addi	r7,r7,-30168
10004dec:	180b883a 	mov	r5,r3
10004df0:	1009883a 	mov	r4,r2
10004df4:	000c9900 	call	1000c990 <__adddf3>
10004df8:	8009883a 	mov	r4,r16
10004dfc:	1029883a 	mov	r20,r2
10004e00:	1823883a 	mov	r17,r3
10004e04:	000f04c0 	call	1000f04c <__floatsidf>
10004e08:	019427f4 	movhi	r6,20639
10004e0c:	01cff4f4 	movhi	r7,16339
10004e10:	319e7ec4 	addi	r6,r6,31227
10004e14:	39d104c4 	addi	r7,r7,17427
10004e18:	1009883a 	mov	r4,r2
10004e1c:	180b883a 	mov	r5,r3
10004e20:	000de640 	call	1000de64 <__muldf3>
10004e24:	100d883a 	mov	r6,r2
10004e28:	180f883a 	mov	r7,r3
10004e2c:	a009883a 	mov	r4,r20
10004e30:	880b883a 	mov	r5,r17
10004e34:	000c9900 	call	1000c990 <__adddf3>
10004e38:	1009883a 	mov	r4,r2
10004e3c:	180b883a 	mov	r5,r3
10004e40:	1029883a 	mov	r20,r2
10004e44:	1823883a 	mov	r17,r3
10004e48:	000efcc0 	call	1000efcc <__fixdfsi>
10004e4c:	000d883a 	mov	r6,zero
10004e50:	000f883a 	mov	r7,zero
10004e54:	a009883a 	mov	r4,r20
10004e58:	880b883a 	mov	r5,r17
10004e5c:	d8800515 	stw	r2,20(sp)
10004e60:	000dd700 	call	1000dd70 <__ledf2>
10004e64:	10028716 	blt	r2,zero,10005884 <_dtoa_r+0xc88>
10004e68:	d8c00517 	ldw	r3,20(sp)
10004e6c:	00800584 	movi	r2,22
10004e70:	10c27536 	bltu	r2,r3,10005848 <_dtoa_r+0xc4c>
10004e74:	180490fa 	slli	r2,r3,3
10004e78:	00c40074 	movhi	r3,4097
10004e7c:	18c8b704 	addi	r3,r3,8924
10004e80:	1885883a 	add	r2,r3,r2
10004e84:	11000017 	ldw	r4,0(r2)
10004e88:	11400117 	ldw	r5,4(r2)
10004e8c:	900d883a 	mov	r6,r18
10004e90:	980f883a 	mov	r7,r19
10004e94:	000dc940 	call	1000dc94 <__gedf2>
10004e98:	00828d0e 	bge	zero,r2,100058d0 <_dtoa_r+0xcd4>
10004e9c:	d9000517 	ldw	r4,20(sp)
10004ea0:	d8000e15 	stw	zero,56(sp)
10004ea4:	213fffc4 	addi	r4,r4,-1
10004ea8:	d9000515 	stw	r4,20(sp)
10004eac:	b42dc83a 	sub	r22,r22,r16
10004eb0:	b5bfffc4 	addi	r22,r22,-1
10004eb4:	b0026f16 	blt	r22,zero,10005874 <_dtoa_r+0xc78>
10004eb8:	d8000815 	stw	zero,32(sp)
10004ebc:	d9c00517 	ldw	r7,20(sp)
10004ec0:	38026416 	blt	r7,zero,10005854 <_dtoa_r+0xc58>
10004ec4:	b1ed883a 	add	r22,r22,r7
10004ec8:	d9c00d15 	stw	r7,52(sp)
10004ecc:	d8000a15 	stw	zero,40(sp)
10004ed0:	d9800317 	ldw	r6,12(sp)
10004ed4:	00800244 	movi	r2,9
10004ed8:	11811436 	bltu	r2,r6,1000532c <_dtoa_r+0x730>
10004edc:	00800144 	movi	r2,5
10004ee0:	1184e10e 	bge	r2,r6,10006268 <_dtoa_r+0x166c>
10004ee4:	31bfff04 	addi	r6,r6,-4
10004ee8:	d9800315 	stw	r6,12(sp)
10004eec:	0023883a 	mov	r17,zero
10004ef0:	d9800317 	ldw	r6,12(sp)
10004ef4:	008000c4 	movi	r2,3
10004ef8:	30836726 	beq	r6,r2,10005c98 <_dtoa_r+0x109c>
10004efc:	1183410e 	bge	r2,r6,10005c04 <_dtoa_r+0x1008>
10004f00:	d9c00317 	ldw	r7,12(sp)
10004f04:	00800104 	movi	r2,4
10004f08:	38827c26 	beq	r7,r2,100058fc <_dtoa_r+0xd00>
10004f0c:	00800144 	movi	r2,5
10004f10:	3884c41e 	bne	r7,r2,10006224 <_dtoa_r+0x1628>
10004f14:	00800044 	movi	r2,1
10004f18:	d8800b15 	stw	r2,44(sp)
10004f1c:	d8c00517 	ldw	r3,20(sp)
10004f20:	d9002217 	ldw	r4,136(sp)
10004f24:	1907883a 	add	r3,r3,r4
10004f28:	19800044 	addi	r6,r3,1
10004f2c:	d8c00c15 	stw	r3,48(sp)
10004f30:	d9800615 	stw	r6,24(sp)
10004f34:	0183a40e 	bge	zero,r6,10005dc8 <_dtoa_r+0x11cc>
10004f38:	d9800617 	ldw	r6,24(sp)
10004f3c:	3021883a 	mov	r16,r6
10004f40:	e0001115 	stw	zero,68(fp)
10004f44:	008005c4 	movi	r2,23
10004f48:	1184c92e 	bgeu	r2,r6,10006270 <_dtoa_r+0x1674>
10004f4c:	00c00044 	movi	r3,1
10004f50:	00800104 	movi	r2,4
10004f54:	1085883a 	add	r2,r2,r2
10004f58:	11000504 	addi	r4,r2,20
10004f5c:	180b883a 	mov	r5,r3
10004f60:	18c00044 	addi	r3,r3,1
10004f64:	313ffb2e 	bgeu	r6,r4,10004f54 <__alt_data_end+0xf8004f54>
10004f68:	e1401115 	stw	r5,68(fp)
10004f6c:	e009883a 	mov	r4,fp
10004f70:	00082b40 	call	100082b4 <_Balloc>
10004f74:	d8800715 	stw	r2,28(sp)
10004f78:	e0801015 	stw	r2,64(fp)
10004f7c:	00800384 	movi	r2,14
10004f80:	1400f736 	bltu	r2,r16,10005360 <_dtoa_r+0x764>
10004f84:	8800f626 	beq	r17,zero,10005360 <_dtoa_r+0x764>
10004f88:	d9c00517 	ldw	r7,20(sp)
10004f8c:	01c39a0e 	bge	zero,r7,10005df8 <_dtoa_r+0x11fc>
10004f90:	388003cc 	andi	r2,r7,15
10004f94:	100490fa 	slli	r2,r2,3
10004f98:	382bd13a 	srai	r21,r7,4
10004f9c:	00c40074 	movhi	r3,4097
10004fa0:	18c8b704 	addi	r3,r3,8924
10004fa4:	1885883a 	add	r2,r3,r2
10004fa8:	a8c0040c 	andi	r3,r21,16
10004fac:	12400017 	ldw	r9,0(r2)
10004fb0:	12000117 	ldw	r8,4(r2)
10004fb4:	18037926 	beq	r3,zero,10005d9c <_dtoa_r+0x11a0>
10004fb8:	00840074 	movhi	r2,4097
10004fbc:	1088ad04 	addi	r2,r2,8884
10004fc0:	11800817 	ldw	r6,32(r2)
10004fc4:	11c00917 	ldw	r7,36(r2)
10004fc8:	9009883a 	mov	r4,r18
10004fcc:	980b883a 	mov	r5,r19
10004fd0:	da001715 	stw	r8,92(sp)
10004fd4:	da401615 	stw	r9,88(sp)
10004fd8:	000d23c0 	call	1000d23c <__divdf3>
10004fdc:	da001717 	ldw	r8,92(sp)
10004fe0:	da401617 	ldw	r9,88(sp)
10004fe4:	ad4003cc 	andi	r21,r21,15
10004fe8:	040000c4 	movi	r16,3
10004fec:	1023883a 	mov	r17,r2
10004ff0:	1829883a 	mov	r20,r3
10004ff4:	a8001126 	beq	r21,zero,1000503c <_dtoa_r+0x440>
10004ff8:	05c40074 	movhi	r23,4097
10004ffc:	bdc8ad04 	addi	r23,r23,8884
10005000:	4805883a 	mov	r2,r9
10005004:	4007883a 	mov	r3,r8
10005008:	a980004c 	andi	r6,r21,1
1000500c:	1009883a 	mov	r4,r2
10005010:	a82bd07a 	srai	r21,r21,1
10005014:	180b883a 	mov	r5,r3
10005018:	30000426 	beq	r6,zero,1000502c <_dtoa_r+0x430>
1000501c:	b9800017 	ldw	r6,0(r23)
10005020:	b9c00117 	ldw	r7,4(r23)
10005024:	84000044 	addi	r16,r16,1
10005028:	000de640 	call	1000de64 <__muldf3>
1000502c:	bdc00204 	addi	r23,r23,8
10005030:	a83ff51e 	bne	r21,zero,10005008 <__alt_data_end+0xf8005008>
10005034:	1013883a 	mov	r9,r2
10005038:	1811883a 	mov	r8,r3
1000503c:	480d883a 	mov	r6,r9
10005040:	400f883a 	mov	r7,r8
10005044:	8809883a 	mov	r4,r17
10005048:	a00b883a 	mov	r5,r20
1000504c:	000d23c0 	call	1000d23c <__divdf3>
10005050:	d8800f15 	stw	r2,60(sp)
10005054:	d8c01015 	stw	r3,64(sp)
10005058:	d8c00e17 	ldw	r3,56(sp)
1000505c:	18000626 	beq	r3,zero,10005078 <_dtoa_r+0x47c>
10005060:	d9000f17 	ldw	r4,60(sp)
10005064:	d9401017 	ldw	r5,64(sp)
10005068:	000d883a 	mov	r6,zero
1000506c:	01cffc34 	movhi	r7,16368
10005070:	000dd700 	call	1000dd70 <__ledf2>
10005074:	10040b16 	blt	r2,zero,100060a4 <_dtoa_r+0x14a8>
10005078:	8009883a 	mov	r4,r16
1000507c:	000f04c0 	call	1000f04c <__floatsidf>
10005080:	d9800f17 	ldw	r6,60(sp)
10005084:	d9c01017 	ldw	r7,64(sp)
10005088:	1009883a 	mov	r4,r2
1000508c:	180b883a 	mov	r5,r3
10005090:	000de640 	call	1000de64 <__muldf3>
10005094:	000d883a 	mov	r6,zero
10005098:	01d00734 	movhi	r7,16412
1000509c:	1009883a 	mov	r4,r2
100050a0:	180b883a 	mov	r5,r3
100050a4:	000c9900 	call	1000c990 <__adddf3>
100050a8:	1021883a 	mov	r16,r2
100050ac:	d8800617 	ldw	r2,24(sp)
100050b0:	047f3034 	movhi	r17,64704
100050b4:	1c63883a 	add	r17,r3,r17
100050b8:	10031826 	beq	r2,zero,10005d1c <_dtoa_r+0x1120>
100050bc:	d8c00517 	ldw	r3,20(sp)
100050c0:	db000617 	ldw	r12,24(sp)
100050c4:	d8c01315 	stw	r3,76(sp)
100050c8:	d9000b17 	ldw	r4,44(sp)
100050cc:	20038f26 	beq	r4,zero,10005f0c <_dtoa_r+0x1310>
100050d0:	60bfffc4 	addi	r2,r12,-1
100050d4:	100490fa 	slli	r2,r2,3
100050d8:	00c40074 	movhi	r3,4097
100050dc:	18c8b704 	addi	r3,r3,8924
100050e0:	1885883a 	add	r2,r3,r2
100050e4:	11800017 	ldw	r6,0(r2)
100050e8:	11c00117 	ldw	r7,4(r2)
100050ec:	d8800717 	ldw	r2,28(sp)
100050f0:	0009883a 	mov	r4,zero
100050f4:	014ff834 	movhi	r5,16352
100050f8:	db001615 	stw	r12,88(sp)
100050fc:	15c00044 	addi	r23,r2,1
10005100:	000d23c0 	call	1000d23c <__divdf3>
10005104:	800d883a 	mov	r6,r16
10005108:	880f883a 	mov	r7,r17
1000510c:	1009883a 	mov	r4,r2
10005110:	180b883a 	mov	r5,r3
10005114:	000e6d00 	call	1000e6d0 <__subdf3>
10005118:	d9401017 	ldw	r5,64(sp)
1000511c:	d9000f17 	ldw	r4,60(sp)
10005120:	102b883a 	mov	r21,r2
10005124:	d8c01215 	stw	r3,72(sp)
10005128:	000efcc0 	call	1000efcc <__fixdfsi>
1000512c:	1009883a 	mov	r4,r2
10005130:	1029883a 	mov	r20,r2
10005134:	000f04c0 	call	1000f04c <__floatsidf>
10005138:	d9000f17 	ldw	r4,60(sp)
1000513c:	d9401017 	ldw	r5,64(sp)
10005140:	100d883a 	mov	r6,r2
10005144:	180f883a 	mov	r7,r3
10005148:	000e6d00 	call	1000e6d0 <__subdf3>
1000514c:	1823883a 	mov	r17,r3
10005150:	d8c00717 	ldw	r3,28(sp)
10005154:	d9401217 	ldw	r5,72(sp)
10005158:	a2000c04 	addi	r8,r20,48
1000515c:	1021883a 	mov	r16,r2
10005160:	1a000005 	stb	r8,0(r3)
10005164:	800d883a 	mov	r6,r16
10005168:	880f883a 	mov	r7,r17
1000516c:	a809883a 	mov	r4,r21
10005170:	4029883a 	mov	r20,r8
10005174:	000dc940 	call	1000dc94 <__gedf2>
10005178:	00841d16 	blt	zero,r2,100061f0 <_dtoa_r+0x15f4>
1000517c:	800d883a 	mov	r6,r16
10005180:	880f883a 	mov	r7,r17
10005184:	0009883a 	mov	r4,zero
10005188:	014ffc34 	movhi	r5,16368
1000518c:	000e6d00 	call	1000e6d0 <__subdf3>
10005190:	d9401217 	ldw	r5,72(sp)
10005194:	100d883a 	mov	r6,r2
10005198:	180f883a 	mov	r7,r3
1000519c:	a809883a 	mov	r4,r21
100051a0:	000dc940 	call	1000dc94 <__gedf2>
100051a4:	db001617 	ldw	r12,88(sp)
100051a8:	00840e16 	blt	zero,r2,100061e4 <_dtoa_r+0x15e8>
100051ac:	00800044 	movi	r2,1
100051b0:	13006b0e 	bge	r2,r12,10005360 <_dtoa_r+0x764>
100051b4:	d9000717 	ldw	r4,28(sp)
100051b8:	dd800f15 	stw	r22,60(sp)
100051bc:	dcc01015 	stw	r19,64(sp)
100051c0:	2319883a 	add	r12,r4,r12
100051c4:	dcc01217 	ldw	r19,72(sp)
100051c8:	602d883a 	mov	r22,r12
100051cc:	dc801215 	stw	r18,72(sp)
100051d0:	b825883a 	mov	r18,r23
100051d4:	00000906 	br	100051fc <_dtoa_r+0x600>
100051d8:	000e6d00 	call	1000e6d0 <__subdf3>
100051dc:	a80d883a 	mov	r6,r21
100051e0:	980f883a 	mov	r7,r19
100051e4:	1009883a 	mov	r4,r2
100051e8:	180b883a 	mov	r5,r3
100051ec:	000dd700 	call	1000dd70 <__ledf2>
100051f0:	1003e816 	blt	r2,zero,10006194 <_dtoa_r+0x1598>
100051f4:	b825883a 	mov	r18,r23
100051f8:	bd83e926 	beq	r23,r22,100061a0 <_dtoa_r+0x15a4>
100051fc:	a809883a 	mov	r4,r21
10005200:	980b883a 	mov	r5,r19
10005204:	000d883a 	mov	r6,zero
10005208:	01d00934 	movhi	r7,16420
1000520c:	000de640 	call	1000de64 <__muldf3>
10005210:	000d883a 	mov	r6,zero
10005214:	01d00934 	movhi	r7,16420
10005218:	8009883a 	mov	r4,r16
1000521c:	880b883a 	mov	r5,r17
10005220:	102b883a 	mov	r21,r2
10005224:	1827883a 	mov	r19,r3
10005228:	000de640 	call	1000de64 <__muldf3>
1000522c:	180b883a 	mov	r5,r3
10005230:	1009883a 	mov	r4,r2
10005234:	1821883a 	mov	r16,r3
10005238:	1023883a 	mov	r17,r2
1000523c:	000efcc0 	call	1000efcc <__fixdfsi>
10005240:	1009883a 	mov	r4,r2
10005244:	1029883a 	mov	r20,r2
10005248:	000f04c0 	call	1000f04c <__floatsidf>
1000524c:	8809883a 	mov	r4,r17
10005250:	800b883a 	mov	r5,r16
10005254:	100d883a 	mov	r6,r2
10005258:	180f883a 	mov	r7,r3
1000525c:	000e6d00 	call	1000e6d0 <__subdf3>
10005260:	a5000c04 	addi	r20,r20,48
10005264:	a80d883a 	mov	r6,r21
10005268:	980f883a 	mov	r7,r19
1000526c:	1009883a 	mov	r4,r2
10005270:	180b883a 	mov	r5,r3
10005274:	95000005 	stb	r20,0(r18)
10005278:	1021883a 	mov	r16,r2
1000527c:	1823883a 	mov	r17,r3
10005280:	000dd700 	call	1000dd70 <__ledf2>
10005284:	bdc00044 	addi	r23,r23,1
10005288:	800d883a 	mov	r6,r16
1000528c:	880f883a 	mov	r7,r17
10005290:	0009883a 	mov	r4,zero
10005294:	014ffc34 	movhi	r5,16368
10005298:	103fcf0e 	bge	r2,zero,100051d8 <__alt_data_end+0xf80051d8>
1000529c:	d8c01317 	ldw	r3,76(sp)
100052a0:	d8c00515 	stw	r3,20(sp)
100052a4:	d9400917 	ldw	r5,36(sp)
100052a8:	e009883a 	mov	r4,fp
100052ac:	000835c0 	call	1000835c <_Bfree>
100052b0:	d9000517 	ldw	r4,20(sp)
100052b4:	d9802317 	ldw	r6,140(sp)
100052b8:	d9c02517 	ldw	r7,148(sp)
100052bc:	b8000005 	stb	zero,0(r23)
100052c0:	20800044 	addi	r2,r4,1
100052c4:	30800015 	stw	r2,0(r6)
100052c8:	3802aa26 	beq	r7,zero,10005d74 <_dtoa_r+0x1178>
100052cc:	3dc00015 	stw	r23,0(r7)
100052d0:	d8800717 	ldw	r2,28(sp)
100052d4:	003e7906 	br	10004cbc <__alt_data_end+0xf8004cbc>
100052d8:	00800434 	movhi	r2,16
100052dc:	10bfffc4 	addi	r2,r2,-1
100052e0:	88a2703a 	and	r17,r17,r2
100052e4:	883e851e 	bne	r17,zero,10004cfc <__alt_data_end+0xf8004cfc>
100052e8:	00840074 	movhi	r2,4097
100052ec:	10889804 	addi	r2,r2,8800
100052f0:	003e8406 	br	10004d04 <__alt_data_end+0xf8004d04>
100052f4:	10c00204 	addi	r3,r2,8
100052f8:	003e8706 	br	10004d18 <__alt_data_end+0xf8004d18>
100052fc:	01400434 	movhi	r5,16
10005300:	297fffc4 	addi	r5,r5,-1
10005304:	994a703a 	and	r5,r19,r5
10005308:	9009883a 	mov	r4,r18
1000530c:	843f0044 	addi	r16,r16,-1023
10005310:	294ffc34 	orhi	r5,r5,16368
10005314:	dd800217 	ldw	r22,8(sp)
10005318:	d8001115 	stw	zero,68(sp)
1000531c:	003ea506 	br	10004db4 <__alt_data_end+0xf8004db4>
10005320:	00840074 	movhi	r2,4097
10005324:	10888f04 	addi	r2,r2,8764
10005328:	003e6406 	br	10004cbc <__alt_data_end+0xf8004cbc>
1000532c:	e0001115 	stw	zero,68(fp)
10005330:	000b883a 	mov	r5,zero
10005334:	e009883a 	mov	r4,fp
10005338:	00082b40 	call	100082b4 <_Balloc>
1000533c:	01bfffc4 	movi	r6,-1
10005340:	01c00044 	movi	r7,1
10005344:	d8800715 	stw	r2,28(sp)
10005348:	d9800c15 	stw	r6,48(sp)
1000534c:	e0801015 	stw	r2,64(fp)
10005350:	d8000315 	stw	zero,12(sp)
10005354:	d9c00b15 	stw	r7,44(sp)
10005358:	d9800615 	stw	r6,24(sp)
1000535c:	d8002215 	stw	zero,136(sp)
10005360:	d8800117 	ldw	r2,4(sp)
10005364:	10008916 	blt	r2,zero,1000558c <_dtoa_r+0x990>
10005368:	d9000517 	ldw	r4,20(sp)
1000536c:	00c00384 	movi	r3,14
10005370:	19008616 	blt	r3,r4,1000558c <_dtoa_r+0x990>
10005374:	200490fa 	slli	r2,r4,3
10005378:	00c40074 	movhi	r3,4097
1000537c:	d9802217 	ldw	r6,136(sp)
10005380:	18c8b704 	addi	r3,r3,8924
10005384:	1885883a 	add	r2,r3,r2
10005388:	14000017 	ldw	r16,0(r2)
1000538c:	14400117 	ldw	r17,4(r2)
10005390:	30016316 	blt	r6,zero,10005920 <_dtoa_r+0xd24>
10005394:	800d883a 	mov	r6,r16
10005398:	880f883a 	mov	r7,r17
1000539c:	9009883a 	mov	r4,r18
100053a0:	980b883a 	mov	r5,r19
100053a4:	000d23c0 	call	1000d23c <__divdf3>
100053a8:	180b883a 	mov	r5,r3
100053ac:	1009883a 	mov	r4,r2
100053b0:	000efcc0 	call	1000efcc <__fixdfsi>
100053b4:	1009883a 	mov	r4,r2
100053b8:	102b883a 	mov	r21,r2
100053bc:	000f04c0 	call	1000f04c <__floatsidf>
100053c0:	800d883a 	mov	r6,r16
100053c4:	880f883a 	mov	r7,r17
100053c8:	1009883a 	mov	r4,r2
100053cc:	180b883a 	mov	r5,r3
100053d0:	000de640 	call	1000de64 <__muldf3>
100053d4:	100d883a 	mov	r6,r2
100053d8:	180f883a 	mov	r7,r3
100053dc:	9009883a 	mov	r4,r18
100053e0:	980b883a 	mov	r5,r19
100053e4:	000e6d00 	call	1000e6d0 <__subdf3>
100053e8:	d9c00717 	ldw	r7,28(sp)
100053ec:	1009883a 	mov	r4,r2
100053f0:	a8800c04 	addi	r2,r21,48
100053f4:	38800005 	stb	r2,0(r7)
100053f8:	3dc00044 	addi	r23,r7,1
100053fc:	d9c00617 	ldw	r7,24(sp)
10005400:	01800044 	movi	r6,1
10005404:	180b883a 	mov	r5,r3
10005408:	2005883a 	mov	r2,r4
1000540c:	39803826 	beq	r7,r6,100054f0 <_dtoa_r+0x8f4>
10005410:	000d883a 	mov	r6,zero
10005414:	01d00934 	movhi	r7,16420
10005418:	000de640 	call	1000de64 <__muldf3>
1000541c:	000d883a 	mov	r6,zero
10005420:	000f883a 	mov	r7,zero
10005424:	1009883a 	mov	r4,r2
10005428:	180b883a 	mov	r5,r3
1000542c:	1025883a 	mov	r18,r2
10005430:	1827883a 	mov	r19,r3
10005434:	000dc0c0 	call	1000dc0c <__eqdf2>
10005438:	103f9a26 	beq	r2,zero,100052a4 <__alt_data_end+0xf80052a4>
1000543c:	d9c00617 	ldw	r7,24(sp)
10005440:	d8c00717 	ldw	r3,28(sp)
10005444:	b829883a 	mov	r20,r23
10005448:	38bfffc4 	addi	r2,r7,-1
1000544c:	18ad883a 	add	r22,r3,r2
10005450:	00000a06 	br	1000547c <_dtoa_r+0x880>
10005454:	000de640 	call	1000de64 <__muldf3>
10005458:	000d883a 	mov	r6,zero
1000545c:	000f883a 	mov	r7,zero
10005460:	1009883a 	mov	r4,r2
10005464:	180b883a 	mov	r5,r3
10005468:	1025883a 	mov	r18,r2
1000546c:	1827883a 	mov	r19,r3
10005470:	b829883a 	mov	r20,r23
10005474:	000dc0c0 	call	1000dc0c <__eqdf2>
10005478:	103f8a26 	beq	r2,zero,100052a4 <__alt_data_end+0xf80052a4>
1000547c:	800d883a 	mov	r6,r16
10005480:	880f883a 	mov	r7,r17
10005484:	9009883a 	mov	r4,r18
10005488:	980b883a 	mov	r5,r19
1000548c:	000d23c0 	call	1000d23c <__divdf3>
10005490:	180b883a 	mov	r5,r3
10005494:	1009883a 	mov	r4,r2
10005498:	000efcc0 	call	1000efcc <__fixdfsi>
1000549c:	1009883a 	mov	r4,r2
100054a0:	102b883a 	mov	r21,r2
100054a4:	000f04c0 	call	1000f04c <__floatsidf>
100054a8:	800d883a 	mov	r6,r16
100054ac:	880f883a 	mov	r7,r17
100054b0:	1009883a 	mov	r4,r2
100054b4:	180b883a 	mov	r5,r3
100054b8:	000de640 	call	1000de64 <__muldf3>
100054bc:	100d883a 	mov	r6,r2
100054c0:	180f883a 	mov	r7,r3
100054c4:	9009883a 	mov	r4,r18
100054c8:	980b883a 	mov	r5,r19
100054cc:	000e6d00 	call	1000e6d0 <__subdf3>
100054d0:	aa000c04 	addi	r8,r21,48
100054d4:	a2000005 	stb	r8,0(r20)
100054d8:	000d883a 	mov	r6,zero
100054dc:	01d00934 	movhi	r7,16420
100054e0:	1009883a 	mov	r4,r2
100054e4:	180b883a 	mov	r5,r3
100054e8:	a5c00044 	addi	r23,r20,1
100054ec:	b53fd91e 	bne	r22,r20,10005454 <__alt_data_end+0xf8005454>
100054f0:	100d883a 	mov	r6,r2
100054f4:	180f883a 	mov	r7,r3
100054f8:	1009883a 	mov	r4,r2
100054fc:	180b883a 	mov	r5,r3
10005500:	000c9900 	call	1000c990 <__adddf3>
10005504:	100d883a 	mov	r6,r2
10005508:	180f883a 	mov	r7,r3
1000550c:	8009883a 	mov	r4,r16
10005510:	880b883a 	mov	r5,r17
10005514:	1027883a 	mov	r19,r2
10005518:	1825883a 	mov	r18,r3
1000551c:	000dd700 	call	1000dd70 <__ledf2>
10005520:	10000816 	blt	r2,zero,10005544 <_dtoa_r+0x948>
10005524:	980d883a 	mov	r6,r19
10005528:	900f883a 	mov	r7,r18
1000552c:	8009883a 	mov	r4,r16
10005530:	880b883a 	mov	r5,r17
10005534:	000dc0c0 	call	1000dc0c <__eqdf2>
10005538:	103f5a1e 	bne	r2,zero,100052a4 <__alt_data_end+0xf80052a4>
1000553c:	ad40004c 	andi	r21,r21,1
10005540:	a83f5826 	beq	r21,zero,100052a4 <__alt_data_end+0xf80052a4>
10005544:	bd3fffc3 	ldbu	r20,-1(r23)
10005548:	b8bfffc4 	addi	r2,r23,-1
1000554c:	1007883a 	mov	r3,r2
10005550:	01400e44 	movi	r5,57
10005554:	d9800717 	ldw	r6,28(sp)
10005558:	00000506 	br	10005570 <_dtoa_r+0x974>
1000555c:	18ffffc4 	addi	r3,r3,-1
10005560:	11824726 	beq	r2,r6,10005e80 <_dtoa_r+0x1284>
10005564:	1d000003 	ldbu	r20,0(r3)
10005568:	102f883a 	mov	r23,r2
1000556c:	10bfffc4 	addi	r2,r2,-1
10005570:	a1003fcc 	andi	r4,r20,255
10005574:	2100201c 	xori	r4,r4,128
10005578:	213fe004 	addi	r4,r4,-128
1000557c:	217ff726 	beq	r4,r5,1000555c <__alt_data_end+0xf800555c>
10005580:	a2000044 	addi	r8,r20,1
10005584:	12000005 	stb	r8,0(r2)
10005588:	003f4606 	br	100052a4 <__alt_data_end+0xf80052a4>
1000558c:	d9000b17 	ldw	r4,44(sp)
10005590:	2000c826 	beq	r4,zero,100058b4 <_dtoa_r+0xcb8>
10005594:	d9800317 	ldw	r6,12(sp)
10005598:	00c00044 	movi	r3,1
1000559c:	1980f90e 	bge	r3,r6,10005984 <_dtoa_r+0xd88>
100055a0:	d8800617 	ldw	r2,24(sp)
100055a4:	d8c00a17 	ldw	r3,40(sp)
100055a8:	157fffc4 	addi	r21,r2,-1
100055ac:	1d41f316 	blt	r3,r21,10005d7c <_dtoa_r+0x1180>
100055b0:	1d6bc83a 	sub	r21,r3,r21
100055b4:	d9c00617 	ldw	r7,24(sp)
100055b8:	3802aa16 	blt	r7,zero,10006064 <_dtoa_r+0x1468>
100055bc:	dd000817 	ldw	r20,32(sp)
100055c0:	d8800617 	ldw	r2,24(sp)
100055c4:	d8c00817 	ldw	r3,32(sp)
100055c8:	01400044 	movi	r5,1
100055cc:	e009883a 	mov	r4,fp
100055d0:	1887883a 	add	r3,r3,r2
100055d4:	d8c00815 	stw	r3,32(sp)
100055d8:	b0ad883a 	add	r22,r22,r2
100055dc:	00086e80 	call	100086e8 <__i2b>
100055e0:	1023883a 	mov	r17,r2
100055e4:	a0000826 	beq	r20,zero,10005608 <_dtoa_r+0xa0c>
100055e8:	0580070e 	bge	zero,r22,10005608 <_dtoa_r+0xa0c>
100055ec:	a005883a 	mov	r2,r20
100055f0:	b500b916 	blt	r22,r20,100058d8 <_dtoa_r+0xcdc>
100055f4:	d9000817 	ldw	r4,32(sp)
100055f8:	a0a9c83a 	sub	r20,r20,r2
100055fc:	b0adc83a 	sub	r22,r22,r2
10005600:	2089c83a 	sub	r4,r4,r2
10005604:	d9000815 	stw	r4,32(sp)
10005608:	d9800a17 	ldw	r6,40(sp)
1000560c:	0181810e 	bge	zero,r6,10005c14 <_dtoa_r+0x1018>
10005610:	d9c00b17 	ldw	r7,44(sp)
10005614:	3800b326 	beq	r7,zero,100058e4 <_dtoa_r+0xce8>
10005618:	a800b226 	beq	r21,zero,100058e4 <_dtoa_r+0xce8>
1000561c:	880b883a 	mov	r5,r17
10005620:	a80d883a 	mov	r6,r21
10005624:	e009883a 	mov	r4,fp
10005628:	00089b00 	call	100089b0 <__pow5mult>
1000562c:	d9800917 	ldw	r6,36(sp)
10005630:	100b883a 	mov	r5,r2
10005634:	e009883a 	mov	r4,fp
10005638:	1023883a 	mov	r17,r2
1000563c:	00087240 	call	10008724 <__multiply>
10005640:	1021883a 	mov	r16,r2
10005644:	d8800a17 	ldw	r2,40(sp)
10005648:	d9400917 	ldw	r5,36(sp)
1000564c:	e009883a 	mov	r4,fp
10005650:	1545c83a 	sub	r2,r2,r21
10005654:	d8800a15 	stw	r2,40(sp)
10005658:	000835c0 	call	1000835c <_Bfree>
1000565c:	d8c00a17 	ldw	r3,40(sp)
10005660:	18009f1e 	bne	r3,zero,100058e0 <_dtoa_r+0xce4>
10005664:	05c00044 	movi	r23,1
10005668:	e009883a 	mov	r4,fp
1000566c:	b80b883a 	mov	r5,r23
10005670:	00086e80 	call	100086e8 <__i2b>
10005674:	d9000d17 	ldw	r4,52(sp)
10005678:	102b883a 	mov	r21,r2
1000567c:	2000ce26 	beq	r4,zero,100059b8 <_dtoa_r+0xdbc>
10005680:	200d883a 	mov	r6,r4
10005684:	100b883a 	mov	r5,r2
10005688:	e009883a 	mov	r4,fp
1000568c:	00089b00 	call	100089b0 <__pow5mult>
10005690:	d9800317 	ldw	r6,12(sp)
10005694:	102b883a 	mov	r21,r2
10005698:	b981810e 	bge	r23,r6,10005ca0 <_dtoa_r+0x10a4>
1000569c:	0027883a 	mov	r19,zero
100056a0:	a8800417 	ldw	r2,16(r21)
100056a4:	05c00804 	movi	r23,32
100056a8:	10800104 	addi	r2,r2,4
100056ac:	1085883a 	add	r2,r2,r2
100056b0:	1085883a 	add	r2,r2,r2
100056b4:	a885883a 	add	r2,r21,r2
100056b8:	11000017 	ldw	r4,0(r2)
100056bc:	00085d00 	call	100085d0 <__hi0bits>
100056c0:	b885c83a 	sub	r2,r23,r2
100056c4:	1585883a 	add	r2,r2,r22
100056c8:	108007cc 	andi	r2,r2,31
100056cc:	1000b326 	beq	r2,zero,1000599c <_dtoa_r+0xda0>
100056d0:	00c00804 	movi	r3,32
100056d4:	1887c83a 	sub	r3,r3,r2
100056d8:	01000104 	movi	r4,4
100056dc:	20c2cd0e 	bge	r4,r3,10006214 <_dtoa_r+0x1618>
100056e0:	00c00704 	movi	r3,28
100056e4:	1885c83a 	sub	r2,r3,r2
100056e8:	d8c00817 	ldw	r3,32(sp)
100056ec:	a0a9883a 	add	r20,r20,r2
100056f0:	b0ad883a 	add	r22,r22,r2
100056f4:	1887883a 	add	r3,r3,r2
100056f8:	d8c00815 	stw	r3,32(sp)
100056fc:	d9800817 	ldw	r6,32(sp)
10005700:	0180040e 	bge	zero,r6,10005714 <_dtoa_r+0xb18>
10005704:	800b883a 	mov	r5,r16
10005708:	e009883a 	mov	r4,fp
1000570c:	0008af00 	call	10008af0 <__lshift>
10005710:	1021883a 	mov	r16,r2
10005714:	0580050e 	bge	zero,r22,1000572c <_dtoa_r+0xb30>
10005718:	a80b883a 	mov	r5,r21
1000571c:	b00d883a 	mov	r6,r22
10005720:	e009883a 	mov	r4,fp
10005724:	0008af00 	call	10008af0 <__lshift>
10005728:	102b883a 	mov	r21,r2
1000572c:	d9c00e17 	ldw	r7,56(sp)
10005730:	3801211e 	bne	r7,zero,10005bb8 <_dtoa_r+0xfbc>
10005734:	d9800617 	ldw	r6,24(sp)
10005738:	0181380e 	bge	zero,r6,10005c1c <_dtoa_r+0x1020>
1000573c:	d8c00b17 	ldw	r3,44(sp)
10005740:	1800ab1e 	bne	r3,zero,100059f0 <_dtoa_r+0xdf4>
10005744:	dc800717 	ldw	r18,28(sp)
10005748:	dcc00617 	ldw	r19,24(sp)
1000574c:	9029883a 	mov	r20,r18
10005750:	00000206 	br	1000575c <_dtoa_r+0xb60>
10005754:	00083840 	call	10008384 <__multadd>
10005758:	1021883a 	mov	r16,r2
1000575c:	a80b883a 	mov	r5,r21
10005760:	8009883a 	mov	r4,r16
10005764:	00049d40 	call	100049d4 <quorem>
10005768:	10800c04 	addi	r2,r2,48
1000576c:	90800005 	stb	r2,0(r18)
10005770:	94800044 	addi	r18,r18,1
10005774:	9507c83a 	sub	r3,r18,r20
10005778:	000f883a 	mov	r7,zero
1000577c:	01800284 	movi	r6,10
10005780:	800b883a 	mov	r5,r16
10005784:	e009883a 	mov	r4,fp
10005788:	1cfff216 	blt	r3,r19,10005754 <__alt_data_end+0xf8005754>
1000578c:	1011883a 	mov	r8,r2
10005790:	d8800617 	ldw	r2,24(sp)
10005794:	0082370e 	bge	zero,r2,10006074 <_dtoa_r+0x1478>
10005798:	d9000717 	ldw	r4,28(sp)
1000579c:	0025883a 	mov	r18,zero
100057a0:	20af883a 	add	r23,r4,r2
100057a4:	01800044 	movi	r6,1
100057a8:	800b883a 	mov	r5,r16
100057ac:	e009883a 	mov	r4,fp
100057b0:	da001715 	stw	r8,92(sp)
100057b4:	0008af00 	call	10008af0 <__lshift>
100057b8:	a80b883a 	mov	r5,r21
100057bc:	1009883a 	mov	r4,r2
100057c0:	d8800915 	stw	r2,36(sp)
100057c4:	0008c380 	call	10008c38 <__mcmp>
100057c8:	da001717 	ldw	r8,92(sp)
100057cc:	0081800e 	bge	zero,r2,10005dd0 <_dtoa_r+0x11d4>
100057d0:	b93fffc3 	ldbu	r4,-1(r23)
100057d4:	b8bfffc4 	addi	r2,r23,-1
100057d8:	1007883a 	mov	r3,r2
100057dc:	01800e44 	movi	r6,57
100057e0:	d9c00717 	ldw	r7,28(sp)
100057e4:	00000506 	br	100057fc <_dtoa_r+0xc00>
100057e8:	18ffffc4 	addi	r3,r3,-1
100057ec:	11c12326 	beq	r2,r7,10005c7c <_dtoa_r+0x1080>
100057f0:	19000003 	ldbu	r4,0(r3)
100057f4:	102f883a 	mov	r23,r2
100057f8:	10bfffc4 	addi	r2,r2,-1
100057fc:	21403fcc 	andi	r5,r4,255
10005800:	2940201c 	xori	r5,r5,128
10005804:	297fe004 	addi	r5,r5,-128
10005808:	29bff726 	beq	r5,r6,100057e8 <__alt_data_end+0xf80057e8>
1000580c:	21000044 	addi	r4,r4,1
10005810:	11000005 	stb	r4,0(r2)
10005814:	a80b883a 	mov	r5,r21
10005818:	e009883a 	mov	r4,fp
1000581c:	000835c0 	call	1000835c <_Bfree>
10005820:	883ea026 	beq	r17,zero,100052a4 <__alt_data_end+0xf80052a4>
10005824:	90000426 	beq	r18,zero,10005838 <_dtoa_r+0xc3c>
10005828:	94400326 	beq	r18,r17,10005838 <_dtoa_r+0xc3c>
1000582c:	900b883a 	mov	r5,r18
10005830:	e009883a 	mov	r4,fp
10005834:	000835c0 	call	1000835c <_Bfree>
10005838:	880b883a 	mov	r5,r17
1000583c:	e009883a 	mov	r4,fp
10005840:	000835c0 	call	1000835c <_Bfree>
10005844:	003e9706 	br	100052a4 <__alt_data_end+0xf80052a4>
10005848:	01800044 	movi	r6,1
1000584c:	d9800e15 	stw	r6,56(sp)
10005850:	003d9606 	br	10004eac <__alt_data_end+0xf8004eac>
10005854:	d8800817 	ldw	r2,32(sp)
10005858:	d8c00517 	ldw	r3,20(sp)
1000585c:	d8000d15 	stw	zero,52(sp)
10005860:	10c5c83a 	sub	r2,r2,r3
10005864:	00c9c83a 	sub	r4,zero,r3
10005868:	d8800815 	stw	r2,32(sp)
1000586c:	d9000a15 	stw	r4,40(sp)
10005870:	003d9706 	br	10004ed0 <__alt_data_end+0xf8004ed0>
10005874:	05adc83a 	sub	r22,zero,r22
10005878:	dd800815 	stw	r22,32(sp)
1000587c:	002d883a 	mov	r22,zero
10005880:	003d8e06 	br	10004ebc <__alt_data_end+0xf8004ebc>
10005884:	d9000517 	ldw	r4,20(sp)
10005888:	000f04c0 	call	1000f04c <__floatsidf>
1000588c:	100d883a 	mov	r6,r2
10005890:	180f883a 	mov	r7,r3
10005894:	a009883a 	mov	r4,r20
10005898:	880b883a 	mov	r5,r17
1000589c:	000dc0c0 	call	1000dc0c <__eqdf2>
100058a0:	103d7126 	beq	r2,zero,10004e68 <__alt_data_end+0xf8004e68>
100058a4:	d9c00517 	ldw	r7,20(sp)
100058a8:	39ffffc4 	addi	r7,r7,-1
100058ac:	d9c00515 	stw	r7,20(sp)
100058b0:	003d6d06 	br	10004e68 <__alt_data_end+0xf8004e68>
100058b4:	dd400a17 	ldw	r21,40(sp)
100058b8:	dd000817 	ldw	r20,32(sp)
100058bc:	0023883a 	mov	r17,zero
100058c0:	003f4806 	br	100055e4 <__alt_data_end+0xf80055e4>
100058c4:	10e3c83a 	sub	r17,r2,r3
100058c8:	9448983a 	sll	r4,r18,r17
100058cc:	003d3206 	br	10004d98 <__alt_data_end+0xf8004d98>
100058d0:	d8000e15 	stw	zero,56(sp)
100058d4:	003d7506 	br	10004eac <__alt_data_end+0xf8004eac>
100058d8:	b005883a 	mov	r2,r22
100058dc:	003f4506 	br	100055f4 <__alt_data_end+0xf80055f4>
100058e0:	dc000915 	stw	r16,36(sp)
100058e4:	d9800a17 	ldw	r6,40(sp)
100058e8:	d9400917 	ldw	r5,36(sp)
100058ec:	e009883a 	mov	r4,fp
100058f0:	00089b00 	call	100089b0 <__pow5mult>
100058f4:	1021883a 	mov	r16,r2
100058f8:	003f5a06 	br	10005664 <__alt_data_end+0xf8005664>
100058fc:	01c00044 	movi	r7,1
10005900:	d9c00b15 	stw	r7,44(sp)
10005904:	d8802217 	ldw	r2,136(sp)
10005908:	0081280e 	bge	zero,r2,10005dac <_dtoa_r+0x11b0>
1000590c:	100d883a 	mov	r6,r2
10005910:	1021883a 	mov	r16,r2
10005914:	d8800c15 	stw	r2,48(sp)
10005918:	d8800615 	stw	r2,24(sp)
1000591c:	003d8806 	br	10004f40 <__alt_data_end+0xf8004f40>
10005920:	d8800617 	ldw	r2,24(sp)
10005924:	00be9b16 	blt	zero,r2,10005394 <__alt_data_end+0xf8005394>
10005928:	10010f1e 	bne	r2,zero,10005d68 <_dtoa_r+0x116c>
1000592c:	880b883a 	mov	r5,r17
10005930:	000d883a 	mov	r6,zero
10005934:	01d00534 	movhi	r7,16404
10005938:	8009883a 	mov	r4,r16
1000593c:	000de640 	call	1000de64 <__muldf3>
10005940:	900d883a 	mov	r6,r18
10005944:	980f883a 	mov	r7,r19
10005948:	1009883a 	mov	r4,r2
1000594c:	180b883a 	mov	r5,r3
10005950:	000dc940 	call	1000dc94 <__gedf2>
10005954:	002b883a 	mov	r21,zero
10005958:	0023883a 	mov	r17,zero
1000595c:	1000bf16 	blt	r2,zero,10005c5c <_dtoa_r+0x1060>
10005960:	d9802217 	ldw	r6,136(sp)
10005964:	ddc00717 	ldw	r23,28(sp)
10005968:	018c303a 	nor	r6,zero,r6
1000596c:	d9800515 	stw	r6,20(sp)
10005970:	a80b883a 	mov	r5,r21
10005974:	e009883a 	mov	r4,fp
10005978:	000835c0 	call	1000835c <_Bfree>
1000597c:	883e4926 	beq	r17,zero,100052a4 <__alt_data_end+0xf80052a4>
10005980:	003fad06 	br	10005838 <__alt_data_end+0xf8005838>
10005984:	d9c01117 	ldw	r7,68(sp)
10005988:	3801bc26 	beq	r7,zero,1000607c <_dtoa_r+0x1480>
1000598c:	10810cc4 	addi	r2,r2,1075
10005990:	dd400a17 	ldw	r21,40(sp)
10005994:	dd000817 	ldw	r20,32(sp)
10005998:	003f0a06 	br	100055c4 <__alt_data_end+0xf80055c4>
1000599c:	00800704 	movi	r2,28
100059a0:	d9000817 	ldw	r4,32(sp)
100059a4:	a0a9883a 	add	r20,r20,r2
100059a8:	b0ad883a 	add	r22,r22,r2
100059ac:	2089883a 	add	r4,r4,r2
100059b0:	d9000815 	stw	r4,32(sp)
100059b4:	003f5106 	br	100056fc <__alt_data_end+0xf80056fc>
100059b8:	d8c00317 	ldw	r3,12(sp)
100059bc:	b8c1fc0e 	bge	r23,r3,100061b0 <_dtoa_r+0x15b4>
100059c0:	0027883a 	mov	r19,zero
100059c4:	b805883a 	mov	r2,r23
100059c8:	003f3e06 	br	100056c4 <__alt_data_end+0xf80056c4>
100059cc:	880b883a 	mov	r5,r17
100059d0:	e009883a 	mov	r4,fp
100059d4:	000f883a 	mov	r7,zero
100059d8:	01800284 	movi	r6,10
100059dc:	00083840 	call	10008384 <__multadd>
100059e0:	d9000c17 	ldw	r4,48(sp)
100059e4:	1023883a 	mov	r17,r2
100059e8:	0102040e 	bge	zero,r4,100061fc <_dtoa_r+0x1600>
100059ec:	d9000615 	stw	r4,24(sp)
100059f0:	0500050e 	bge	zero,r20,10005a08 <_dtoa_r+0xe0c>
100059f4:	880b883a 	mov	r5,r17
100059f8:	a00d883a 	mov	r6,r20
100059fc:	e009883a 	mov	r4,fp
10005a00:	0008af00 	call	10008af0 <__lshift>
10005a04:	1023883a 	mov	r17,r2
10005a08:	9801241e 	bne	r19,zero,10005e9c <_dtoa_r+0x12a0>
10005a0c:	8829883a 	mov	r20,r17
10005a10:	d9000617 	ldw	r4,24(sp)
10005a14:	dcc00717 	ldw	r19,28(sp)
10005a18:	9480004c 	andi	r18,r18,1
10005a1c:	20bfffc4 	addi	r2,r4,-1
10005a20:	9885883a 	add	r2,r19,r2
10005a24:	d8800415 	stw	r2,16(sp)
10005a28:	dc800615 	stw	r18,24(sp)
10005a2c:	a80b883a 	mov	r5,r21
10005a30:	8009883a 	mov	r4,r16
10005a34:	00049d40 	call	100049d4 <quorem>
10005a38:	880b883a 	mov	r5,r17
10005a3c:	8009883a 	mov	r4,r16
10005a40:	102f883a 	mov	r23,r2
10005a44:	0008c380 	call	10008c38 <__mcmp>
10005a48:	a80b883a 	mov	r5,r21
10005a4c:	a00d883a 	mov	r6,r20
10005a50:	e009883a 	mov	r4,fp
10005a54:	102d883a 	mov	r22,r2
10005a58:	0008c980 	call	10008c98 <__mdiff>
10005a5c:	1007883a 	mov	r3,r2
10005a60:	10800317 	ldw	r2,12(r2)
10005a64:	bc800c04 	addi	r18,r23,48
10005a68:	180b883a 	mov	r5,r3
10005a6c:	10004e1e 	bne	r2,zero,10005ba8 <_dtoa_r+0xfac>
10005a70:	8009883a 	mov	r4,r16
10005a74:	d8c01615 	stw	r3,88(sp)
10005a78:	0008c380 	call	10008c38 <__mcmp>
10005a7c:	d8c01617 	ldw	r3,88(sp)
10005a80:	e009883a 	mov	r4,fp
10005a84:	d8801615 	stw	r2,88(sp)
10005a88:	180b883a 	mov	r5,r3
10005a8c:	000835c0 	call	1000835c <_Bfree>
10005a90:	d8801617 	ldw	r2,88(sp)
10005a94:	1000041e 	bne	r2,zero,10005aa8 <_dtoa_r+0xeac>
10005a98:	d9800317 	ldw	r6,12(sp)
10005a9c:	3000021e 	bne	r6,zero,10005aa8 <_dtoa_r+0xeac>
10005aa0:	d8c00617 	ldw	r3,24(sp)
10005aa4:	18003726 	beq	r3,zero,10005b84 <_dtoa_r+0xf88>
10005aa8:	b0002016 	blt	r22,zero,10005b2c <_dtoa_r+0xf30>
10005aac:	b000041e 	bne	r22,zero,10005ac0 <_dtoa_r+0xec4>
10005ab0:	d9000317 	ldw	r4,12(sp)
10005ab4:	2000021e 	bne	r4,zero,10005ac0 <_dtoa_r+0xec4>
10005ab8:	d8c00617 	ldw	r3,24(sp)
10005abc:	18001b26 	beq	r3,zero,10005b2c <_dtoa_r+0xf30>
10005ac0:	00810716 	blt	zero,r2,10005ee0 <_dtoa_r+0x12e4>
10005ac4:	d8c00417 	ldw	r3,16(sp)
10005ac8:	9d800044 	addi	r22,r19,1
10005acc:	9c800005 	stb	r18,0(r19)
10005ad0:	b02f883a 	mov	r23,r22
10005ad4:	98c10626 	beq	r19,r3,10005ef0 <_dtoa_r+0x12f4>
10005ad8:	800b883a 	mov	r5,r16
10005adc:	000f883a 	mov	r7,zero
10005ae0:	01800284 	movi	r6,10
10005ae4:	e009883a 	mov	r4,fp
10005ae8:	00083840 	call	10008384 <__multadd>
10005aec:	1021883a 	mov	r16,r2
10005af0:	000f883a 	mov	r7,zero
10005af4:	01800284 	movi	r6,10
10005af8:	880b883a 	mov	r5,r17
10005afc:	e009883a 	mov	r4,fp
10005b00:	8d002526 	beq	r17,r20,10005b98 <_dtoa_r+0xf9c>
10005b04:	00083840 	call	10008384 <__multadd>
10005b08:	a00b883a 	mov	r5,r20
10005b0c:	000f883a 	mov	r7,zero
10005b10:	01800284 	movi	r6,10
10005b14:	e009883a 	mov	r4,fp
10005b18:	1023883a 	mov	r17,r2
10005b1c:	00083840 	call	10008384 <__multadd>
10005b20:	1029883a 	mov	r20,r2
10005b24:	b027883a 	mov	r19,r22
10005b28:	003fc006 	br	10005a2c <__alt_data_end+0xf8005a2c>
10005b2c:	9011883a 	mov	r8,r18
10005b30:	00800e0e 	bge	zero,r2,10005b6c <_dtoa_r+0xf70>
10005b34:	800b883a 	mov	r5,r16
10005b38:	01800044 	movi	r6,1
10005b3c:	e009883a 	mov	r4,fp
10005b40:	da001715 	stw	r8,92(sp)
10005b44:	0008af00 	call	10008af0 <__lshift>
10005b48:	a80b883a 	mov	r5,r21
10005b4c:	1009883a 	mov	r4,r2
10005b50:	1021883a 	mov	r16,r2
10005b54:	0008c380 	call	10008c38 <__mcmp>
10005b58:	da001717 	ldw	r8,92(sp)
10005b5c:	0081960e 	bge	zero,r2,100061b8 <_dtoa_r+0x15bc>
10005b60:	00800e44 	movi	r2,57
10005b64:	40817026 	beq	r8,r2,10006128 <_dtoa_r+0x152c>
10005b68:	ba000c44 	addi	r8,r23,49
10005b6c:	8825883a 	mov	r18,r17
10005b70:	9dc00044 	addi	r23,r19,1
10005b74:	9a000005 	stb	r8,0(r19)
10005b78:	a023883a 	mov	r17,r20
10005b7c:	dc000915 	stw	r16,36(sp)
10005b80:	003f2406 	br	10005814 <__alt_data_end+0xf8005814>
10005b84:	00800e44 	movi	r2,57
10005b88:	9011883a 	mov	r8,r18
10005b8c:	90816626 	beq	r18,r2,10006128 <_dtoa_r+0x152c>
10005b90:	05bff516 	blt	zero,r22,10005b68 <__alt_data_end+0xf8005b68>
10005b94:	003ff506 	br	10005b6c <__alt_data_end+0xf8005b6c>
10005b98:	00083840 	call	10008384 <__multadd>
10005b9c:	1023883a 	mov	r17,r2
10005ba0:	1029883a 	mov	r20,r2
10005ba4:	003fdf06 	br	10005b24 <__alt_data_end+0xf8005b24>
10005ba8:	e009883a 	mov	r4,fp
10005bac:	000835c0 	call	1000835c <_Bfree>
10005bb0:	00800044 	movi	r2,1
10005bb4:	003fbc06 	br	10005aa8 <__alt_data_end+0xf8005aa8>
10005bb8:	a80b883a 	mov	r5,r21
10005bbc:	8009883a 	mov	r4,r16
10005bc0:	0008c380 	call	10008c38 <__mcmp>
10005bc4:	103edb0e 	bge	r2,zero,10005734 <__alt_data_end+0xf8005734>
10005bc8:	800b883a 	mov	r5,r16
10005bcc:	000f883a 	mov	r7,zero
10005bd0:	01800284 	movi	r6,10
10005bd4:	e009883a 	mov	r4,fp
10005bd8:	00083840 	call	10008384 <__multadd>
10005bdc:	1021883a 	mov	r16,r2
10005be0:	d8800517 	ldw	r2,20(sp)
10005be4:	d8c00b17 	ldw	r3,44(sp)
10005be8:	10bfffc4 	addi	r2,r2,-1
10005bec:	d8800515 	stw	r2,20(sp)
10005bf0:	183f761e 	bne	r3,zero,100059cc <__alt_data_end+0xf80059cc>
10005bf4:	d9000c17 	ldw	r4,48(sp)
10005bf8:	0101730e 	bge	zero,r4,100061c8 <_dtoa_r+0x15cc>
10005bfc:	d9000615 	stw	r4,24(sp)
10005c00:	003ed006 	br	10005744 <__alt_data_end+0xf8005744>
10005c04:	00800084 	movi	r2,2
10005c08:	3081861e 	bne	r6,r2,10006224 <_dtoa_r+0x1628>
10005c0c:	d8000b15 	stw	zero,44(sp)
10005c10:	003f3c06 	br	10005904 <__alt_data_end+0xf8005904>
10005c14:	dc000917 	ldw	r16,36(sp)
10005c18:	003e9206 	br	10005664 <__alt_data_end+0xf8005664>
10005c1c:	d9c00317 	ldw	r7,12(sp)
10005c20:	00800084 	movi	r2,2
10005c24:	11fec50e 	bge	r2,r7,1000573c <__alt_data_end+0xf800573c>
10005c28:	d9000617 	ldw	r4,24(sp)
10005c2c:	20013c1e 	bne	r4,zero,10006120 <_dtoa_r+0x1524>
10005c30:	a80b883a 	mov	r5,r21
10005c34:	000f883a 	mov	r7,zero
10005c38:	01800144 	movi	r6,5
10005c3c:	e009883a 	mov	r4,fp
10005c40:	00083840 	call	10008384 <__multadd>
10005c44:	100b883a 	mov	r5,r2
10005c48:	8009883a 	mov	r4,r16
10005c4c:	102b883a 	mov	r21,r2
10005c50:	0008c380 	call	10008c38 <__mcmp>
10005c54:	dc000915 	stw	r16,36(sp)
10005c58:	00bf410e 	bge	zero,r2,10005960 <__alt_data_end+0xf8005960>
10005c5c:	d9c00717 	ldw	r7,28(sp)
10005c60:	00800c44 	movi	r2,49
10005c64:	38800005 	stb	r2,0(r7)
10005c68:	d8800517 	ldw	r2,20(sp)
10005c6c:	3dc00044 	addi	r23,r7,1
10005c70:	10800044 	addi	r2,r2,1
10005c74:	d8800515 	stw	r2,20(sp)
10005c78:	003f3d06 	br	10005970 <__alt_data_end+0xf8005970>
10005c7c:	d9800517 	ldw	r6,20(sp)
10005c80:	d9c00717 	ldw	r7,28(sp)
10005c84:	00800c44 	movi	r2,49
10005c88:	31800044 	addi	r6,r6,1
10005c8c:	d9800515 	stw	r6,20(sp)
10005c90:	38800005 	stb	r2,0(r7)
10005c94:	003edf06 	br	10005814 <__alt_data_end+0xf8005814>
10005c98:	d8000b15 	stw	zero,44(sp)
10005c9c:	003c9f06 	br	10004f1c <__alt_data_end+0xf8004f1c>
10005ca0:	903e7e1e 	bne	r18,zero,1000569c <__alt_data_end+0xf800569c>
10005ca4:	00800434 	movhi	r2,16
10005ca8:	10bfffc4 	addi	r2,r2,-1
10005cac:	9884703a 	and	r2,r19,r2
10005cb0:	1000ea1e 	bne	r2,zero,1000605c <_dtoa_r+0x1460>
10005cb4:	9cdffc2c 	andhi	r19,r19,32752
10005cb8:	9800e826 	beq	r19,zero,1000605c <_dtoa_r+0x1460>
10005cbc:	d9c00817 	ldw	r7,32(sp)
10005cc0:	b5800044 	addi	r22,r22,1
10005cc4:	04c00044 	movi	r19,1
10005cc8:	39c00044 	addi	r7,r7,1
10005ccc:	d9c00815 	stw	r7,32(sp)
10005cd0:	d8800d17 	ldw	r2,52(sp)
10005cd4:	103e721e 	bne	r2,zero,100056a0 <__alt_data_end+0xf80056a0>
10005cd8:	00800044 	movi	r2,1
10005cdc:	003e7906 	br	100056c4 <__alt_data_end+0xf80056c4>
10005ce0:	8009883a 	mov	r4,r16
10005ce4:	000f04c0 	call	1000f04c <__floatsidf>
10005ce8:	d9800f17 	ldw	r6,60(sp)
10005cec:	d9c01017 	ldw	r7,64(sp)
10005cf0:	1009883a 	mov	r4,r2
10005cf4:	180b883a 	mov	r5,r3
10005cf8:	000de640 	call	1000de64 <__muldf3>
10005cfc:	000d883a 	mov	r6,zero
10005d00:	01d00734 	movhi	r7,16412
10005d04:	1009883a 	mov	r4,r2
10005d08:	180b883a 	mov	r5,r3
10005d0c:	000c9900 	call	1000c990 <__adddf3>
10005d10:	047f3034 	movhi	r17,64704
10005d14:	1021883a 	mov	r16,r2
10005d18:	1c63883a 	add	r17,r3,r17
10005d1c:	d9000f17 	ldw	r4,60(sp)
10005d20:	d9401017 	ldw	r5,64(sp)
10005d24:	000d883a 	mov	r6,zero
10005d28:	01d00534 	movhi	r7,16404
10005d2c:	000e6d00 	call	1000e6d0 <__subdf3>
10005d30:	800d883a 	mov	r6,r16
10005d34:	880f883a 	mov	r7,r17
10005d38:	1009883a 	mov	r4,r2
10005d3c:	180b883a 	mov	r5,r3
10005d40:	102b883a 	mov	r21,r2
10005d44:	1829883a 	mov	r20,r3
10005d48:	000dc940 	call	1000dc94 <__gedf2>
10005d4c:	00806c16 	blt	zero,r2,10005f00 <_dtoa_r+0x1304>
10005d50:	89e0003c 	xorhi	r7,r17,32768
10005d54:	800d883a 	mov	r6,r16
10005d58:	a809883a 	mov	r4,r21
10005d5c:	a00b883a 	mov	r5,r20
10005d60:	000dd700 	call	1000dd70 <__ledf2>
10005d64:	103d7e0e 	bge	r2,zero,10005360 <__alt_data_end+0xf8005360>
10005d68:	002b883a 	mov	r21,zero
10005d6c:	0023883a 	mov	r17,zero
10005d70:	003efb06 	br	10005960 <__alt_data_end+0xf8005960>
10005d74:	d8800717 	ldw	r2,28(sp)
10005d78:	003bd006 	br	10004cbc <__alt_data_end+0xf8004cbc>
10005d7c:	d9000a17 	ldw	r4,40(sp)
10005d80:	d9800d17 	ldw	r6,52(sp)
10005d84:	dd400a15 	stw	r21,40(sp)
10005d88:	a905c83a 	sub	r2,r21,r4
10005d8c:	308d883a 	add	r6,r6,r2
10005d90:	d9800d15 	stw	r6,52(sp)
10005d94:	002b883a 	mov	r21,zero
10005d98:	003e0606 	br	100055b4 <__alt_data_end+0xf80055b4>
10005d9c:	9023883a 	mov	r17,r18
10005da0:	9829883a 	mov	r20,r19
10005da4:	04000084 	movi	r16,2
10005da8:	003c9206 	br	10004ff4 <__alt_data_end+0xf8004ff4>
10005dac:	04000044 	movi	r16,1
10005db0:	dc000c15 	stw	r16,48(sp)
10005db4:	dc000615 	stw	r16,24(sp)
10005db8:	dc002215 	stw	r16,136(sp)
10005dbc:	e0001115 	stw	zero,68(fp)
10005dc0:	000b883a 	mov	r5,zero
10005dc4:	003c6906 	br	10004f6c <__alt_data_end+0xf8004f6c>
10005dc8:	3021883a 	mov	r16,r6
10005dcc:	003ffb06 	br	10005dbc <__alt_data_end+0xf8005dbc>
10005dd0:	1000021e 	bne	r2,zero,10005ddc <_dtoa_r+0x11e0>
10005dd4:	4200004c 	andi	r8,r8,1
10005dd8:	403e7d1e 	bne	r8,zero,100057d0 <__alt_data_end+0xf80057d0>
10005ddc:	01000c04 	movi	r4,48
10005de0:	00000106 	br	10005de8 <_dtoa_r+0x11ec>
10005de4:	102f883a 	mov	r23,r2
10005de8:	b8bfffc4 	addi	r2,r23,-1
10005dec:	10c00007 	ldb	r3,0(r2)
10005df0:	193ffc26 	beq	r3,r4,10005de4 <__alt_data_end+0xf8005de4>
10005df4:	003e8706 	br	10005814 <__alt_data_end+0xf8005814>
10005df8:	d8800517 	ldw	r2,20(sp)
10005dfc:	00a3c83a 	sub	r17,zero,r2
10005e00:	8800a426 	beq	r17,zero,10006094 <_dtoa_r+0x1498>
10005e04:	888003cc 	andi	r2,r17,15
10005e08:	100490fa 	slli	r2,r2,3
10005e0c:	00c40074 	movhi	r3,4097
10005e10:	18c8b704 	addi	r3,r3,8924
10005e14:	1885883a 	add	r2,r3,r2
10005e18:	11800017 	ldw	r6,0(r2)
10005e1c:	11c00117 	ldw	r7,4(r2)
10005e20:	9009883a 	mov	r4,r18
10005e24:	980b883a 	mov	r5,r19
10005e28:	8823d13a 	srai	r17,r17,4
10005e2c:	000de640 	call	1000de64 <__muldf3>
10005e30:	d8800f15 	stw	r2,60(sp)
10005e34:	d8c01015 	stw	r3,64(sp)
10005e38:	8800e826 	beq	r17,zero,100061dc <_dtoa_r+0x15e0>
10005e3c:	05040074 	movhi	r20,4097
10005e40:	a508ad04 	addi	r20,r20,8884
10005e44:	04000084 	movi	r16,2
10005e48:	8980004c 	andi	r6,r17,1
10005e4c:	1009883a 	mov	r4,r2
10005e50:	8823d07a 	srai	r17,r17,1
10005e54:	180b883a 	mov	r5,r3
10005e58:	30000426 	beq	r6,zero,10005e6c <_dtoa_r+0x1270>
10005e5c:	a1800017 	ldw	r6,0(r20)
10005e60:	a1c00117 	ldw	r7,4(r20)
10005e64:	84000044 	addi	r16,r16,1
10005e68:	000de640 	call	1000de64 <__muldf3>
10005e6c:	a5000204 	addi	r20,r20,8
10005e70:	883ff51e 	bne	r17,zero,10005e48 <__alt_data_end+0xf8005e48>
10005e74:	d8800f15 	stw	r2,60(sp)
10005e78:	d8c01015 	stw	r3,64(sp)
10005e7c:	003c7606 	br	10005058 <__alt_data_end+0xf8005058>
10005e80:	00c00c04 	movi	r3,48
10005e84:	10c00005 	stb	r3,0(r2)
10005e88:	d8c00517 	ldw	r3,20(sp)
10005e8c:	bd3fffc3 	ldbu	r20,-1(r23)
10005e90:	18c00044 	addi	r3,r3,1
10005e94:	d8c00515 	stw	r3,20(sp)
10005e98:	003db906 	br	10005580 <__alt_data_end+0xf8005580>
10005e9c:	89400117 	ldw	r5,4(r17)
10005ea0:	e009883a 	mov	r4,fp
10005ea4:	00082b40 	call	100082b4 <_Balloc>
10005ea8:	89800417 	ldw	r6,16(r17)
10005eac:	89400304 	addi	r5,r17,12
10005eb0:	11000304 	addi	r4,r2,12
10005eb4:	31800084 	addi	r6,r6,2
10005eb8:	318d883a 	add	r6,r6,r6
10005ebc:	318d883a 	add	r6,r6,r6
10005ec0:	1027883a 	mov	r19,r2
10005ec4:	0007ee80 	call	10007ee8 <memcpy>
10005ec8:	01800044 	movi	r6,1
10005ecc:	980b883a 	mov	r5,r19
10005ed0:	e009883a 	mov	r4,fp
10005ed4:	0008af00 	call	10008af0 <__lshift>
10005ed8:	1029883a 	mov	r20,r2
10005edc:	003ecc06 	br	10005a10 <__alt_data_end+0xf8005a10>
10005ee0:	00800e44 	movi	r2,57
10005ee4:	90809026 	beq	r18,r2,10006128 <_dtoa_r+0x152c>
10005ee8:	92000044 	addi	r8,r18,1
10005eec:	003f1f06 	br	10005b6c <__alt_data_end+0xf8005b6c>
10005ef0:	9011883a 	mov	r8,r18
10005ef4:	8825883a 	mov	r18,r17
10005ef8:	a023883a 	mov	r17,r20
10005efc:	003e2906 	br	100057a4 <__alt_data_end+0xf80057a4>
10005f00:	002b883a 	mov	r21,zero
10005f04:	0023883a 	mov	r17,zero
10005f08:	003f5406 	br	10005c5c <__alt_data_end+0xf8005c5c>
10005f0c:	61bfffc4 	addi	r6,r12,-1
10005f10:	300490fa 	slli	r2,r6,3
10005f14:	00c40074 	movhi	r3,4097
10005f18:	18c8b704 	addi	r3,r3,8924
10005f1c:	1885883a 	add	r2,r3,r2
10005f20:	11000017 	ldw	r4,0(r2)
10005f24:	11400117 	ldw	r5,4(r2)
10005f28:	d8800717 	ldw	r2,28(sp)
10005f2c:	880f883a 	mov	r7,r17
10005f30:	d9801215 	stw	r6,72(sp)
10005f34:	800d883a 	mov	r6,r16
10005f38:	db001615 	stw	r12,88(sp)
10005f3c:	15c00044 	addi	r23,r2,1
10005f40:	000de640 	call	1000de64 <__muldf3>
10005f44:	d9401017 	ldw	r5,64(sp)
10005f48:	d9000f17 	ldw	r4,60(sp)
10005f4c:	d8c01515 	stw	r3,84(sp)
10005f50:	d8801415 	stw	r2,80(sp)
10005f54:	000efcc0 	call	1000efcc <__fixdfsi>
10005f58:	1009883a 	mov	r4,r2
10005f5c:	1021883a 	mov	r16,r2
10005f60:	000f04c0 	call	1000f04c <__floatsidf>
10005f64:	d9000f17 	ldw	r4,60(sp)
10005f68:	d9401017 	ldw	r5,64(sp)
10005f6c:	100d883a 	mov	r6,r2
10005f70:	180f883a 	mov	r7,r3
10005f74:	000e6d00 	call	1000e6d0 <__subdf3>
10005f78:	1829883a 	mov	r20,r3
10005f7c:	d8c00717 	ldw	r3,28(sp)
10005f80:	84000c04 	addi	r16,r16,48
10005f84:	1023883a 	mov	r17,r2
10005f88:	1c000005 	stb	r16,0(r3)
10005f8c:	db001617 	ldw	r12,88(sp)
10005f90:	00800044 	movi	r2,1
10005f94:	60802226 	beq	r12,r2,10006020 <_dtoa_r+0x1424>
10005f98:	d9c00717 	ldw	r7,28(sp)
10005f9c:	8805883a 	mov	r2,r17
10005fa0:	b82b883a 	mov	r21,r23
10005fa4:	3b19883a 	add	r12,r7,r12
10005fa8:	6023883a 	mov	r17,r12
10005fac:	a007883a 	mov	r3,r20
10005fb0:	dc800f15 	stw	r18,60(sp)
10005fb4:	000d883a 	mov	r6,zero
10005fb8:	01d00934 	movhi	r7,16420
10005fbc:	1009883a 	mov	r4,r2
10005fc0:	180b883a 	mov	r5,r3
10005fc4:	000de640 	call	1000de64 <__muldf3>
10005fc8:	180b883a 	mov	r5,r3
10005fcc:	1009883a 	mov	r4,r2
10005fd0:	1829883a 	mov	r20,r3
10005fd4:	1025883a 	mov	r18,r2
10005fd8:	000efcc0 	call	1000efcc <__fixdfsi>
10005fdc:	1009883a 	mov	r4,r2
10005fe0:	1021883a 	mov	r16,r2
10005fe4:	000f04c0 	call	1000f04c <__floatsidf>
10005fe8:	100d883a 	mov	r6,r2
10005fec:	180f883a 	mov	r7,r3
10005ff0:	9009883a 	mov	r4,r18
10005ff4:	a00b883a 	mov	r5,r20
10005ff8:	84000c04 	addi	r16,r16,48
10005ffc:	000e6d00 	call	1000e6d0 <__subdf3>
10006000:	ad400044 	addi	r21,r21,1
10006004:	ac3fffc5 	stb	r16,-1(r21)
10006008:	ac7fea1e 	bne	r21,r17,10005fb4 <__alt_data_end+0xf8005fb4>
1000600c:	1023883a 	mov	r17,r2
10006010:	d8801217 	ldw	r2,72(sp)
10006014:	dc800f17 	ldw	r18,60(sp)
10006018:	1829883a 	mov	r20,r3
1000601c:	b8af883a 	add	r23,r23,r2
10006020:	d9001417 	ldw	r4,80(sp)
10006024:	d9401517 	ldw	r5,84(sp)
10006028:	000d883a 	mov	r6,zero
1000602c:	01cff834 	movhi	r7,16352
10006030:	000c9900 	call	1000c990 <__adddf3>
10006034:	880d883a 	mov	r6,r17
10006038:	a00f883a 	mov	r7,r20
1000603c:	1009883a 	mov	r4,r2
10006040:	180b883a 	mov	r5,r3
10006044:	000dd700 	call	1000dd70 <__ledf2>
10006048:	10003e0e 	bge	r2,zero,10006144 <_dtoa_r+0x1548>
1000604c:	d9001317 	ldw	r4,76(sp)
10006050:	bd3fffc3 	ldbu	r20,-1(r23)
10006054:	d9000515 	stw	r4,20(sp)
10006058:	003d3b06 	br	10005548 <__alt_data_end+0xf8005548>
1000605c:	0027883a 	mov	r19,zero
10006060:	003f1b06 	br	10005cd0 <__alt_data_end+0xf8005cd0>
10006064:	d8800817 	ldw	r2,32(sp)
10006068:	11e9c83a 	sub	r20,r2,r7
1000606c:	0005883a 	mov	r2,zero
10006070:	003d5406 	br	100055c4 <__alt_data_end+0xf80055c4>
10006074:	00800044 	movi	r2,1
10006078:	003dc706 	br	10005798 <__alt_data_end+0xf8005798>
1000607c:	d8c00217 	ldw	r3,8(sp)
10006080:	00800d84 	movi	r2,54
10006084:	dd400a17 	ldw	r21,40(sp)
10006088:	10c5c83a 	sub	r2,r2,r3
1000608c:	dd000817 	ldw	r20,32(sp)
10006090:	003d4c06 	br	100055c4 <__alt_data_end+0xf80055c4>
10006094:	dc800f15 	stw	r18,60(sp)
10006098:	dcc01015 	stw	r19,64(sp)
1000609c:	04000084 	movi	r16,2
100060a0:	003bed06 	br	10005058 <__alt_data_end+0xf8005058>
100060a4:	d9000617 	ldw	r4,24(sp)
100060a8:	203f0d26 	beq	r4,zero,10005ce0 <__alt_data_end+0xf8005ce0>
100060ac:	d9800c17 	ldw	r6,48(sp)
100060b0:	01bcab0e 	bge	zero,r6,10005360 <__alt_data_end+0xf8005360>
100060b4:	d9401017 	ldw	r5,64(sp)
100060b8:	d9000f17 	ldw	r4,60(sp)
100060bc:	000d883a 	mov	r6,zero
100060c0:	01d00934 	movhi	r7,16420
100060c4:	000de640 	call	1000de64 <__muldf3>
100060c8:	81000044 	addi	r4,r16,1
100060cc:	d8800f15 	stw	r2,60(sp)
100060d0:	d8c01015 	stw	r3,64(sp)
100060d4:	000f04c0 	call	1000f04c <__floatsidf>
100060d8:	d9800f17 	ldw	r6,60(sp)
100060dc:	d9c01017 	ldw	r7,64(sp)
100060e0:	1009883a 	mov	r4,r2
100060e4:	180b883a 	mov	r5,r3
100060e8:	000de640 	call	1000de64 <__muldf3>
100060ec:	01d00734 	movhi	r7,16412
100060f0:	000d883a 	mov	r6,zero
100060f4:	1009883a 	mov	r4,r2
100060f8:	180b883a 	mov	r5,r3
100060fc:	000c9900 	call	1000c990 <__adddf3>
10006100:	d9c00517 	ldw	r7,20(sp)
10006104:	047f3034 	movhi	r17,64704
10006108:	1021883a 	mov	r16,r2
1000610c:	39ffffc4 	addi	r7,r7,-1
10006110:	d9c01315 	stw	r7,76(sp)
10006114:	1c63883a 	add	r17,r3,r17
10006118:	db000c17 	ldw	r12,48(sp)
1000611c:	003bea06 	br	100050c8 <__alt_data_end+0xf80050c8>
10006120:	dc000915 	stw	r16,36(sp)
10006124:	003e0e06 	br	10005960 <__alt_data_end+0xf8005960>
10006128:	01000e44 	movi	r4,57
1000612c:	8825883a 	mov	r18,r17
10006130:	9dc00044 	addi	r23,r19,1
10006134:	99000005 	stb	r4,0(r19)
10006138:	a023883a 	mov	r17,r20
1000613c:	dc000915 	stw	r16,36(sp)
10006140:	003da406 	br	100057d4 <__alt_data_end+0xf80057d4>
10006144:	d9801417 	ldw	r6,80(sp)
10006148:	d9c01517 	ldw	r7,84(sp)
1000614c:	0009883a 	mov	r4,zero
10006150:	014ff834 	movhi	r5,16352
10006154:	000e6d00 	call	1000e6d0 <__subdf3>
10006158:	880d883a 	mov	r6,r17
1000615c:	a00f883a 	mov	r7,r20
10006160:	1009883a 	mov	r4,r2
10006164:	180b883a 	mov	r5,r3
10006168:	000dc940 	call	1000dc94 <__gedf2>
1000616c:	00bc7c0e 	bge	zero,r2,10005360 <__alt_data_end+0xf8005360>
10006170:	01000c04 	movi	r4,48
10006174:	00000106 	br	1000617c <_dtoa_r+0x1580>
10006178:	102f883a 	mov	r23,r2
1000617c:	b8bfffc4 	addi	r2,r23,-1
10006180:	10c00007 	ldb	r3,0(r2)
10006184:	193ffc26 	beq	r3,r4,10006178 <__alt_data_end+0xf8006178>
10006188:	d9801317 	ldw	r6,76(sp)
1000618c:	d9800515 	stw	r6,20(sp)
10006190:	003c4406 	br	100052a4 <__alt_data_end+0xf80052a4>
10006194:	d9801317 	ldw	r6,76(sp)
10006198:	d9800515 	stw	r6,20(sp)
1000619c:	003cea06 	br	10005548 <__alt_data_end+0xf8005548>
100061a0:	dd800f17 	ldw	r22,60(sp)
100061a4:	dcc01017 	ldw	r19,64(sp)
100061a8:	dc801217 	ldw	r18,72(sp)
100061ac:	003c6c06 	br	10005360 <__alt_data_end+0xf8005360>
100061b0:	903e031e 	bne	r18,zero,100059c0 <__alt_data_end+0xf80059c0>
100061b4:	003ebb06 	br	10005ca4 <__alt_data_end+0xf8005ca4>
100061b8:	103e6c1e 	bne	r2,zero,10005b6c <__alt_data_end+0xf8005b6c>
100061bc:	4080004c 	andi	r2,r8,1
100061c0:	103e6a26 	beq	r2,zero,10005b6c <__alt_data_end+0xf8005b6c>
100061c4:	003e6606 	br	10005b60 <__alt_data_end+0xf8005b60>
100061c8:	d8c00317 	ldw	r3,12(sp)
100061cc:	00800084 	movi	r2,2
100061d0:	10c02916 	blt	r2,r3,10006278 <_dtoa_r+0x167c>
100061d4:	d9000c17 	ldw	r4,48(sp)
100061d8:	003e8806 	br	10005bfc <__alt_data_end+0xf8005bfc>
100061dc:	04000084 	movi	r16,2
100061e0:	003b9d06 	br	10005058 <__alt_data_end+0xf8005058>
100061e4:	d9001317 	ldw	r4,76(sp)
100061e8:	d9000515 	stw	r4,20(sp)
100061ec:	003cd606 	br	10005548 <__alt_data_end+0xf8005548>
100061f0:	d8801317 	ldw	r2,76(sp)
100061f4:	d8800515 	stw	r2,20(sp)
100061f8:	003c2a06 	br	100052a4 <__alt_data_end+0xf80052a4>
100061fc:	d9800317 	ldw	r6,12(sp)
10006200:	00800084 	movi	r2,2
10006204:	11801516 	blt	r2,r6,1000625c <_dtoa_r+0x1660>
10006208:	d9c00c17 	ldw	r7,48(sp)
1000620c:	d9c00615 	stw	r7,24(sp)
10006210:	003df706 	br	100059f0 <__alt_data_end+0xf80059f0>
10006214:	193d3926 	beq	r3,r4,100056fc <__alt_data_end+0xf80056fc>
10006218:	00c00f04 	movi	r3,60
1000621c:	1885c83a 	sub	r2,r3,r2
10006220:	003ddf06 	br	100059a0 <__alt_data_end+0xf80059a0>
10006224:	e009883a 	mov	r4,fp
10006228:	e0001115 	stw	zero,68(fp)
1000622c:	000b883a 	mov	r5,zero
10006230:	00082b40 	call	100082b4 <_Balloc>
10006234:	d8800715 	stw	r2,28(sp)
10006238:	d8c00717 	ldw	r3,28(sp)
1000623c:	00bfffc4 	movi	r2,-1
10006240:	01000044 	movi	r4,1
10006244:	d8800c15 	stw	r2,48(sp)
10006248:	e0c01015 	stw	r3,64(fp)
1000624c:	d9000b15 	stw	r4,44(sp)
10006250:	d8800615 	stw	r2,24(sp)
10006254:	d8002215 	stw	zero,136(sp)
10006258:	003c4106 	br	10005360 <__alt_data_end+0xf8005360>
1000625c:	d8c00c17 	ldw	r3,48(sp)
10006260:	d8c00615 	stw	r3,24(sp)
10006264:	003e7006 	br	10005c28 <__alt_data_end+0xf8005c28>
10006268:	04400044 	movi	r17,1
1000626c:	003b2006 	br	10004ef0 <__alt_data_end+0xf8004ef0>
10006270:	000b883a 	mov	r5,zero
10006274:	003b3d06 	br	10004f6c <__alt_data_end+0xf8004f6c>
10006278:	d8800c17 	ldw	r2,48(sp)
1000627c:	d8800615 	stw	r2,24(sp)
10006280:	003e6906 	br	10005c28 <__alt_data_end+0xf8005c28>

10006284 <__sflush_r>:
10006284:	2880030b 	ldhu	r2,12(r5)
10006288:	defffb04 	addi	sp,sp,-20
1000628c:	dcc00315 	stw	r19,12(sp)
10006290:	dc400115 	stw	r17,4(sp)
10006294:	dfc00415 	stw	ra,16(sp)
10006298:	dc800215 	stw	r18,8(sp)
1000629c:	dc000015 	stw	r16,0(sp)
100062a0:	10c0020c 	andi	r3,r2,8
100062a4:	2823883a 	mov	r17,r5
100062a8:	2027883a 	mov	r19,r4
100062ac:	1800311e 	bne	r3,zero,10006374 <__sflush_r+0xf0>
100062b0:	28c00117 	ldw	r3,4(r5)
100062b4:	10820014 	ori	r2,r2,2048
100062b8:	2880030d 	sth	r2,12(r5)
100062bc:	00c04b0e 	bge	zero,r3,100063ec <__sflush_r+0x168>
100062c0:	8a000a17 	ldw	r8,40(r17)
100062c4:	40002326 	beq	r8,zero,10006354 <__sflush_r+0xd0>
100062c8:	9c000017 	ldw	r16,0(r19)
100062cc:	10c4000c 	andi	r3,r2,4096
100062d0:	98000015 	stw	zero,0(r19)
100062d4:	18004826 	beq	r3,zero,100063f8 <__sflush_r+0x174>
100062d8:	89801417 	ldw	r6,80(r17)
100062dc:	10c0010c 	andi	r3,r2,4
100062e0:	18000626 	beq	r3,zero,100062fc <__sflush_r+0x78>
100062e4:	88c00117 	ldw	r3,4(r17)
100062e8:	88800c17 	ldw	r2,48(r17)
100062ec:	30cdc83a 	sub	r6,r6,r3
100062f0:	10000226 	beq	r2,zero,100062fc <__sflush_r+0x78>
100062f4:	88800f17 	ldw	r2,60(r17)
100062f8:	308dc83a 	sub	r6,r6,r2
100062fc:	89400717 	ldw	r5,28(r17)
10006300:	000f883a 	mov	r7,zero
10006304:	9809883a 	mov	r4,r19
10006308:	403ee83a 	callr	r8
1000630c:	00ffffc4 	movi	r3,-1
10006310:	10c04426 	beq	r2,r3,10006424 <__sflush_r+0x1a0>
10006314:	88c0030b 	ldhu	r3,12(r17)
10006318:	89000417 	ldw	r4,16(r17)
1000631c:	88000115 	stw	zero,4(r17)
10006320:	197dffcc 	andi	r5,r3,63487
10006324:	8940030d 	sth	r5,12(r17)
10006328:	89000015 	stw	r4,0(r17)
1000632c:	18c4000c 	andi	r3,r3,4096
10006330:	18002c1e 	bne	r3,zero,100063e4 <__sflush_r+0x160>
10006334:	89400c17 	ldw	r5,48(r17)
10006338:	9c000015 	stw	r16,0(r19)
1000633c:	28000526 	beq	r5,zero,10006354 <__sflush_r+0xd0>
10006340:	88801004 	addi	r2,r17,64
10006344:	28800226 	beq	r5,r2,10006350 <__sflush_r+0xcc>
10006348:	9809883a 	mov	r4,r19
1000634c:	0006a000 	call	10006a00 <_free_r>
10006350:	88000c15 	stw	zero,48(r17)
10006354:	0005883a 	mov	r2,zero
10006358:	dfc00417 	ldw	ra,16(sp)
1000635c:	dcc00317 	ldw	r19,12(sp)
10006360:	dc800217 	ldw	r18,8(sp)
10006364:	dc400117 	ldw	r17,4(sp)
10006368:	dc000017 	ldw	r16,0(sp)
1000636c:	dec00504 	addi	sp,sp,20
10006370:	f800283a 	ret
10006374:	2c800417 	ldw	r18,16(r5)
10006378:	903ff626 	beq	r18,zero,10006354 <__alt_data_end+0xf8006354>
1000637c:	2c000017 	ldw	r16,0(r5)
10006380:	108000cc 	andi	r2,r2,3
10006384:	2c800015 	stw	r18,0(r5)
10006388:	84a1c83a 	sub	r16,r16,r18
1000638c:	1000131e 	bne	r2,zero,100063dc <__sflush_r+0x158>
10006390:	28800517 	ldw	r2,20(r5)
10006394:	88800215 	stw	r2,8(r17)
10006398:	04000316 	blt	zero,r16,100063a8 <__sflush_r+0x124>
1000639c:	003fed06 	br	10006354 <__alt_data_end+0xf8006354>
100063a0:	90a5883a 	add	r18,r18,r2
100063a4:	043feb0e 	bge	zero,r16,10006354 <__alt_data_end+0xf8006354>
100063a8:	88800917 	ldw	r2,36(r17)
100063ac:	89400717 	ldw	r5,28(r17)
100063b0:	800f883a 	mov	r7,r16
100063b4:	900d883a 	mov	r6,r18
100063b8:	9809883a 	mov	r4,r19
100063bc:	103ee83a 	callr	r2
100063c0:	80a1c83a 	sub	r16,r16,r2
100063c4:	00bff616 	blt	zero,r2,100063a0 <__alt_data_end+0xf80063a0>
100063c8:	88c0030b 	ldhu	r3,12(r17)
100063cc:	00bfffc4 	movi	r2,-1
100063d0:	18c01014 	ori	r3,r3,64
100063d4:	88c0030d 	sth	r3,12(r17)
100063d8:	003fdf06 	br	10006358 <__alt_data_end+0xf8006358>
100063dc:	0005883a 	mov	r2,zero
100063e0:	003fec06 	br	10006394 <__alt_data_end+0xf8006394>
100063e4:	88801415 	stw	r2,80(r17)
100063e8:	003fd206 	br	10006334 <__alt_data_end+0xf8006334>
100063ec:	28c00f17 	ldw	r3,60(r5)
100063f0:	00ffb316 	blt	zero,r3,100062c0 <__alt_data_end+0xf80062c0>
100063f4:	003fd706 	br	10006354 <__alt_data_end+0xf8006354>
100063f8:	89400717 	ldw	r5,28(r17)
100063fc:	000d883a 	mov	r6,zero
10006400:	01c00044 	movi	r7,1
10006404:	9809883a 	mov	r4,r19
10006408:	403ee83a 	callr	r8
1000640c:	100d883a 	mov	r6,r2
10006410:	00bfffc4 	movi	r2,-1
10006414:	30801426 	beq	r6,r2,10006468 <__sflush_r+0x1e4>
10006418:	8880030b 	ldhu	r2,12(r17)
1000641c:	8a000a17 	ldw	r8,40(r17)
10006420:	003fae06 	br	100062dc <__alt_data_end+0xf80062dc>
10006424:	98c00017 	ldw	r3,0(r19)
10006428:	183fba26 	beq	r3,zero,10006314 <__alt_data_end+0xf8006314>
1000642c:	01000744 	movi	r4,29
10006430:	19000626 	beq	r3,r4,1000644c <__sflush_r+0x1c8>
10006434:	01000584 	movi	r4,22
10006438:	19000426 	beq	r3,r4,1000644c <__sflush_r+0x1c8>
1000643c:	88c0030b 	ldhu	r3,12(r17)
10006440:	18c01014 	ori	r3,r3,64
10006444:	88c0030d 	sth	r3,12(r17)
10006448:	003fc306 	br	10006358 <__alt_data_end+0xf8006358>
1000644c:	8880030b 	ldhu	r2,12(r17)
10006450:	88c00417 	ldw	r3,16(r17)
10006454:	88000115 	stw	zero,4(r17)
10006458:	10bdffcc 	andi	r2,r2,63487
1000645c:	8880030d 	sth	r2,12(r17)
10006460:	88c00015 	stw	r3,0(r17)
10006464:	003fb306 	br	10006334 <__alt_data_end+0xf8006334>
10006468:	98800017 	ldw	r2,0(r19)
1000646c:	103fea26 	beq	r2,zero,10006418 <__alt_data_end+0xf8006418>
10006470:	00c00744 	movi	r3,29
10006474:	10c00226 	beq	r2,r3,10006480 <__sflush_r+0x1fc>
10006478:	00c00584 	movi	r3,22
1000647c:	10c0031e 	bne	r2,r3,1000648c <__sflush_r+0x208>
10006480:	9c000015 	stw	r16,0(r19)
10006484:	0005883a 	mov	r2,zero
10006488:	003fb306 	br	10006358 <__alt_data_end+0xf8006358>
1000648c:	88c0030b 	ldhu	r3,12(r17)
10006490:	3005883a 	mov	r2,r6
10006494:	18c01014 	ori	r3,r3,64
10006498:	88c0030d 	sth	r3,12(r17)
1000649c:	003fae06 	br	10006358 <__alt_data_end+0xf8006358>

100064a0 <_fflush_r>:
100064a0:	defffd04 	addi	sp,sp,-12
100064a4:	dc000115 	stw	r16,4(sp)
100064a8:	dfc00215 	stw	ra,8(sp)
100064ac:	2021883a 	mov	r16,r4
100064b0:	20000226 	beq	r4,zero,100064bc <_fflush_r+0x1c>
100064b4:	20800e17 	ldw	r2,56(r4)
100064b8:	10000c26 	beq	r2,zero,100064ec <_fflush_r+0x4c>
100064bc:	2880030f 	ldh	r2,12(r5)
100064c0:	1000051e 	bne	r2,zero,100064d8 <_fflush_r+0x38>
100064c4:	0005883a 	mov	r2,zero
100064c8:	dfc00217 	ldw	ra,8(sp)
100064cc:	dc000117 	ldw	r16,4(sp)
100064d0:	dec00304 	addi	sp,sp,12
100064d4:	f800283a 	ret
100064d8:	8009883a 	mov	r4,r16
100064dc:	dfc00217 	ldw	ra,8(sp)
100064e0:	dc000117 	ldw	r16,4(sp)
100064e4:	dec00304 	addi	sp,sp,12
100064e8:	00062841 	jmpi	10006284 <__sflush_r>
100064ec:	d9400015 	stw	r5,0(sp)
100064f0:	000688c0 	call	1000688c <__sinit>
100064f4:	d9400017 	ldw	r5,0(sp)
100064f8:	003ff006 	br	100064bc <__alt_data_end+0xf80064bc>

100064fc <fflush>:
100064fc:	20000526 	beq	r4,zero,10006514 <fflush+0x18>
10006500:	00840074 	movhi	r2,4097
10006504:	108fea04 	addi	r2,r2,16296
10006508:	200b883a 	mov	r5,r4
1000650c:	11000017 	ldw	r4,0(r2)
10006510:	00064a01 	jmpi	100064a0 <_fflush_r>
10006514:	00840074 	movhi	r2,4097
10006518:	108fe904 	addi	r2,r2,16292
1000651c:	11000017 	ldw	r4,0(r2)
10006520:	01440034 	movhi	r5,4096
10006524:	29592804 	addi	r5,r5,25760
10006528:	000729c1 	jmpi	1000729c <_fwalk_reent>

1000652c <__fp_unlock>:
1000652c:	0005883a 	mov	r2,zero
10006530:	f800283a 	ret

10006534 <_cleanup_r>:
10006534:	01440074 	movhi	r5,4097
10006538:	296d0e04 	addi	r5,r5,-19400
1000653c:	000729c1 	jmpi	1000729c <_fwalk_reent>

10006540 <__sinit.part.1>:
10006540:	defff704 	addi	sp,sp,-36
10006544:	00c40034 	movhi	r3,4096
10006548:	dfc00815 	stw	ra,32(sp)
1000654c:	ddc00715 	stw	r23,28(sp)
10006550:	dd800615 	stw	r22,24(sp)
10006554:	dd400515 	stw	r21,20(sp)
10006558:	dd000415 	stw	r20,16(sp)
1000655c:	dcc00315 	stw	r19,12(sp)
10006560:	dc800215 	stw	r18,8(sp)
10006564:	dc400115 	stw	r17,4(sp)
10006568:	dc000015 	stw	r16,0(sp)
1000656c:	18d94d04 	addi	r3,r3,25908
10006570:	24000117 	ldw	r16,4(r4)
10006574:	20c00f15 	stw	r3,60(r4)
10006578:	2080bb04 	addi	r2,r4,748
1000657c:	00c000c4 	movi	r3,3
10006580:	20c0b915 	stw	r3,740(r4)
10006584:	2080ba15 	stw	r2,744(r4)
10006588:	2000b815 	stw	zero,736(r4)
1000658c:	05c00204 	movi	r23,8
10006590:	00800104 	movi	r2,4
10006594:	2025883a 	mov	r18,r4
10006598:	b80d883a 	mov	r6,r23
1000659c:	81001704 	addi	r4,r16,92
100065a0:	000b883a 	mov	r5,zero
100065a4:	80000015 	stw	zero,0(r16)
100065a8:	80000115 	stw	zero,4(r16)
100065ac:	80000215 	stw	zero,8(r16)
100065b0:	8080030d 	sth	r2,12(r16)
100065b4:	80001915 	stw	zero,100(r16)
100065b8:	8000038d 	sth	zero,14(r16)
100065bc:	80000415 	stw	zero,16(r16)
100065c0:	80000515 	stw	zero,20(r16)
100065c4:	80000615 	stw	zero,24(r16)
100065c8:	000818c0 	call	1000818c <memset>
100065cc:	05840074 	movhi	r22,4097
100065d0:	94400217 	ldw	r17,8(r18)
100065d4:	05440074 	movhi	r21,4097
100065d8:	05040074 	movhi	r20,4097
100065dc:	04c40074 	movhi	r19,4097
100065e0:	b5a66604 	addi	r22,r22,-26216
100065e4:	ad667d04 	addi	r21,r21,-26124
100065e8:	a5269c04 	addi	r20,r20,-26000
100065ec:	9ce6b304 	addi	r19,r19,-25908
100065f0:	85800815 	stw	r22,32(r16)
100065f4:	85400915 	stw	r21,36(r16)
100065f8:	85000a15 	stw	r20,40(r16)
100065fc:	84c00b15 	stw	r19,44(r16)
10006600:	84000715 	stw	r16,28(r16)
10006604:	00800284 	movi	r2,10
10006608:	8880030d 	sth	r2,12(r17)
1000660c:	00800044 	movi	r2,1
10006610:	b80d883a 	mov	r6,r23
10006614:	89001704 	addi	r4,r17,92
10006618:	000b883a 	mov	r5,zero
1000661c:	88000015 	stw	zero,0(r17)
10006620:	88000115 	stw	zero,4(r17)
10006624:	88000215 	stw	zero,8(r17)
10006628:	88001915 	stw	zero,100(r17)
1000662c:	8880038d 	sth	r2,14(r17)
10006630:	88000415 	stw	zero,16(r17)
10006634:	88000515 	stw	zero,20(r17)
10006638:	88000615 	stw	zero,24(r17)
1000663c:	000818c0 	call	1000818c <memset>
10006640:	94000317 	ldw	r16,12(r18)
10006644:	00800484 	movi	r2,18
10006648:	8c400715 	stw	r17,28(r17)
1000664c:	8d800815 	stw	r22,32(r17)
10006650:	8d400915 	stw	r21,36(r17)
10006654:	8d000a15 	stw	r20,40(r17)
10006658:	8cc00b15 	stw	r19,44(r17)
1000665c:	8080030d 	sth	r2,12(r16)
10006660:	00800084 	movi	r2,2
10006664:	80000015 	stw	zero,0(r16)
10006668:	80000115 	stw	zero,4(r16)
1000666c:	80000215 	stw	zero,8(r16)
10006670:	80001915 	stw	zero,100(r16)
10006674:	8080038d 	sth	r2,14(r16)
10006678:	80000415 	stw	zero,16(r16)
1000667c:	80000515 	stw	zero,20(r16)
10006680:	80000615 	stw	zero,24(r16)
10006684:	b80d883a 	mov	r6,r23
10006688:	000b883a 	mov	r5,zero
1000668c:	81001704 	addi	r4,r16,92
10006690:	000818c0 	call	1000818c <memset>
10006694:	00800044 	movi	r2,1
10006698:	84000715 	stw	r16,28(r16)
1000669c:	85800815 	stw	r22,32(r16)
100066a0:	85400915 	stw	r21,36(r16)
100066a4:	85000a15 	stw	r20,40(r16)
100066a8:	84c00b15 	stw	r19,44(r16)
100066ac:	90800e15 	stw	r2,56(r18)
100066b0:	dfc00817 	ldw	ra,32(sp)
100066b4:	ddc00717 	ldw	r23,28(sp)
100066b8:	dd800617 	ldw	r22,24(sp)
100066bc:	dd400517 	ldw	r21,20(sp)
100066c0:	dd000417 	ldw	r20,16(sp)
100066c4:	dcc00317 	ldw	r19,12(sp)
100066c8:	dc800217 	ldw	r18,8(sp)
100066cc:	dc400117 	ldw	r17,4(sp)
100066d0:	dc000017 	ldw	r16,0(sp)
100066d4:	dec00904 	addi	sp,sp,36
100066d8:	f800283a 	ret

100066dc <__fp_lock>:
100066dc:	0005883a 	mov	r2,zero
100066e0:	f800283a 	ret

100066e4 <__sfmoreglue>:
100066e4:	defffc04 	addi	sp,sp,-16
100066e8:	dc800215 	stw	r18,8(sp)
100066ec:	2825883a 	mov	r18,r5
100066f0:	dc000015 	stw	r16,0(sp)
100066f4:	01401a04 	movi	r5,104
100066f8:	2021883a 	mov	r16,r4
100066fc:	913fffc4 	addi	r4,r18,-1
10006700:	dfc00315 	stw	ra,12(sp)
10006704:	dc400115 	stw	r17,4(sp)
10006708:	000c9680 	call	1000c968 <__mulsi3>
1000670c:	8009883a 	mov	r4,r16
10006710:	11401d04 	addi	r5,r2,116
10006714:	1023883a 	mov	r17,r2
10006718:	00075f80 	call	100075f8 <_malloc_r>
1000671c:	1021883a 	mov	r16,r2
10006720:	10000726 	beq	r2,zero,10006740 <__sfmoreglue+0x5c>
10006724:	11000304 	addi	r4,r2,12
10006728:	10000015 	stw	zero,0(r2)
1000672c:	14800115 	stw	r18,4(r2)
10006730:	11000215 	stw	r4,8(r2)
10006734:	89801a04 	addi	r6,r17,104
10006738:	000b883a 	mov	r5,zero
1000673c:	000818c0 	call	1000818c <memset>
10006740:	8005883a 	mov	r2,r16
10006744:	dfc00317 	ldw	ra,12(sp)
10006748:	dc800217 	ldw	r18,8(sp)
1000674c:	dc400117 	ldw	r17,4(sp)
10006750:	dc000017 	ldw	r16,0(sp)
10006754:	dec00404 	addi	sp,sp,16
10006758:	f800283a 	ret

1000675c <__sfp>:
1000675c:	defffb04 	addi	sp,sp,-20
10006760:	dc000015 	stw	r16,0(sp)
10006764:	04040074 	movhi	r16,4097
10006768:	840fe904 	addi	r16,r16,16292
1000676c:	dcc00315 	stw	r19,12(sp)
10006770:	2027883a 	mov	r19,r4
10006774:	81000017 	ldw	r4,0(r16)
10006778:	dfc00415 	stw	ra,16(sp)
1000677c:	dc800215 	stw	r18,8(sp)
10006780:	20800e17 	ldw	r2,56(r4)
10006784:	dc400115 	stw	r17,4(sp)
10006788:	1000021e 	bne	r2,zero,10006794 <__sfp+0x38>
1000678c:	00065400 	call	10006540 <__sinit.part.1>
10006790:	81000017 	ldw	r4,0(r16)
10006794:	2480b804 	addi	r18,r4,736
10006798:	047fffc4 	movi	r17,-1
1000679c:	91000117 	ldw	r4,4(r18)
100067a0:	94000217 	ldw	r16,8(r18)
100067a4:	213fffc4 	addi	r4,r4,-1
100067a8:	20000a16 	blt	r4,zero,100067d4 <__sfp+0x78>
100067ac:	8080030f 	ldh	r2,12(r16)
100067b0:	10000c26 	beq	r2,zero,100067e4 <__sfp+0x88>
100067b4:	80c01d04 	addi	r3,r16,116
100067b8:	00000206 	br	100067c4 <__sfp+0x68>
100067bc:	18bfe60f 	ldh	r2,-104(r3)
100067c0:	10000826 	beq	r2,zero,100067e4 <__sfp+0x88>
100067c4:	213fffc4 	addi	r4,r4,-1
100067c8:	1c3ffd04 	addi	r16,r3,-12
100067cc:	18c01a04 	addi	r3,r3,104
100067d0:	247ffa1e 	bne	r4,r17,100067bc <__alt_data_end+0xf80067bc>
100067d4:	90800017 	ldw	r2,0(r18)
100067d8:	10001d26 	beq	r2,zero,10006850 <__sfp+0xf4>
100067dc:	1025883a 	mov	r18,r2
100067e0:	003fee06 	br	1000679c <__alt_data_end+0xf800679c>
100067e4:	00bfffc4 	movi	r2,-1
100067e8:	8080038d 	sth	r2,14(r16)
100067ec:	00800044 	movi	r2,1
100067f0:	8080030d 	sth	r2,12(r16)
100067f4:	80001915 	stw	zero,100(r16)
100067f8:	80000015 	stw	zero,0(r16)
100067fc:	80000215 	stw	zero,8(r16)
10006800:	80000115 	stw	zero,4(r16)
10006804:	80000415 	stw	zero,16(r16)
10006808:	80000515 	stw	zero,20(r16)
1000680c:	80000615 	stw	zero,24(r16)
10006810:	01800204 	movi	r6,8
10006814:	000b883a 	mov	r5,zero
10006818:	81001704 	addi	r4,r16,92
1000681c:	000818c0 	call	1000818c <memset>
10006820:	8005883a 	mov	r2,r16
10006824:	80000c15 	stw	zero,48(r16)
10006828:	80000d15 	stw	zero,52(r16)
1000682c:	80001115 	stw	zero,68(r16)
10006830:	80001215 	stw	zero,72(r16)
10006834:	dfc00417 	ldw	ra,16(sp)
10006838:	dcc00317 	ldw	r19,12(sp)
1000683c:	dc800217 	ldw	r18,8(sp)
10006840:	dc400117 	ldw	r17,4(sp)
10006844:	dc000017 	ldw	r16,0(sp)
10006848:	dec00504 	addi	sp,sp,20
1000684c:	f800283a 	ret
10006850:	01400104 	movi	r5,4
10006854:	9809883a 	mov	r4,r19
10006858:	00066e40 	call	100066e4 <__sfmoreglue>
1000685c:	90800015 	stw	r2,0(r18)
10006860:	103fde1e 	bne	r2,zero,100067dc <__alt_data_end+0xf80067dc>
10006864:	00800304 	movi	r2,12
10006868:	98800015 	stw	r2,0(r19)
1000686c:	0005883a 	mov	r2,zero
10006870:	003ff006 	br	10006834 <__alt_data_end+0xf8006834>

10006874 <_cleanup>:
10006874:	00840074 	movhi	r2,4097
10006878:	108fe904 	addi	r2,r2,16292
1000687c:	11000017 	ldw	r4,0(r2)
10006880:	01440074 	movhi	r5,4097
10006884:	296d0e04 	addi	r5,r5,-19400
10006888:	000729c1 	jmpi	1000729c <_fwalk_reent>

1000688c <__sinit>:
1000688c:	20800e17 	ldw	r2,56(r4)
10006890:	10000126 	beq	r2,zero,10006898 <__sinit+0xc>
10006894:	f800283a 	ret
10006898:	00065401 	jmpi	10006540 <__sinit.part.1>

1000689c <__sfp_lock_acquire>:
1000689c:	f800283a 	ret

100068a0 <__sfp_lock_release>:
100068a0:	f800283a 	ret

100068a4 <__sinit_lock_acquire>:
100068a4:	f800283a 	ret

100068a8 <__sinit_lock_release>:
100068a8:	f800283a 	ret

100068ac <__fp_lock_all>:
100068ac:	00840074 	movhi	r2,4097
100068b0:	108fea04 	addi	r2,r2,16296
100068b4:	11000017 	ldw	r4,0(r2)
100068b8:	01440034 	movhi	r5,4096
100068bc:	2959b704 	addi	r5,r5,26332
100068c0:	00071d81 	jmpi	100071d8 <_fwalk>

100068c4 <__fp_unlock_all>:
100068c4:	00840074 	movhi	r2,4097
100068c8:	108fea04 	addi	r2,r2,16296
100068cc:	11000017 	ldw	r4,0(r2)
100068d0:	01440034 	movhi	r5,4096
100068d4:	29594b04 	addi	r5,r5,25900
100068d8:	00071d81 	jmpi	100071d8 <_fwalk>

100068dc <_malloc_trim_r>:
100068dc:	defffb04 	addi	sp,sp,-20
100068e0:	dcc00315 	stw	r19,12(sp)
100068e4:	04c40074 	movhi	r19,4097
100068e8:	dc800215 	stw	r18,8(sp)
100068ec:	dc400115 	stw	r17,4(sp)
100068f0:	dc000015 	stw	r16,0(sp)
100068f4:	dfc00415 	stw	ra,16(sp)
100068f8:	2821883a 	mov	r16,r5
100068fc:	9cca6504 	addi	r19,r19,10644
10006900:	2025883a 	mov	r18,r4
10006904:	000f7d00 	call	1000f7d0 <__malloc_lock>
10006908:	98800217 	ldw	r2,8(r19)
1000690c:	14400117 	ldw	r17,4(r2)
10006910:	00bfff04 	movi	r2,-4
10006914:	88a2703a 	and	r17,r17,r2
10006918:	8c21c83a 	sub	r16,r17,r16
1000691c:	8403fbc4 	addi	r16,r16,4079
10006920:	8020d33a 	srli	r16,r16,12
10006924:	0083ffc4 	movi	r2,4095
10006928:	843fffc4 	addi	r16,r16,-1
1000692c:	8020933a 	slli	r16,r16,12
10006930:	1400060e 	bge	r2,r16,1000694c <_malloc_trim_r+0x70>
10006934:	000b883a 	mov	r5,zero
10006938:	9009883a 	mov	r4,r18
1000693c:	00099440 	call	10009944 <_sbrk_r>
10006940:	98c00217 	ldw	r3,8(r19)
10006944:	1c47883a 	add	r3,r3,r17
10006948:	10c00a26 	beq	r2,r3,10006974 <_malloc_trim_r+0x98>
1000694c:	9009883a 	mov	r4,r18
10006950:	000f7f40 	call	1000f7f4 <__malloc_unlock>
10006954:	0005883a 	mov	r2,zero
10006958:	dfc00417 	ldw	ra,16(sp)
1000695c:	dcc00317 	ldw	r19,12(sp)
10006960:	dc800217 	ldw	r18,8(sp)
10006964:	dc400117 	ldw	r17,4(sp)
10006968:	dc000017 	ldw	r16,0(sp)
1000696c:	dec00504 	addi	sp,sp,20
10006970:	f800283a 	ret
10006974:	040bc83a 	sub	r5,zero,r16
10006978:	9009883a 	mov	r4,r18
1000697c:	00099440 	call	10009944 <_sbrk_r>
10006980:	00ffffc4 	movi	r3,-1
10006984:	10c00d26 	beq	r2,r3,100069bc <_malloc_trim_r+0xe0>
10006988:	00c40074 	movhi	r3,4097
1000698c:	18d6c304 	addi	r3,r3,23308
10006990:	18800017 	ldw	r2,0(r3)
10006994:	99000217 	ldw	r4,8(r19)
10006998:	8c23c83a 	sub	r17,r17,r16
1000699c:	8c400054 	ori	r17,r17,1
100069a0:	1421c83a 	sub	r16,r2,r16
100069a4:	24400115 	stw	r17,4(r4)
100069a8:	9009883a 	mov	r4,r18
100069ac:	1c000015 	stw	r16,0(r3)
100069b0:	000f7f40 	call	1000f7f4 <__malloc_unlock>
100069b4:	00800044 	movi	r2,1
100069b8:	003fe706 	br	10006958 <__alt_data_end+0xf8006958>
100069bc:	000b883a 	mov	r5,zero
100069c0:	9009883a 	mov	r4,r18
100069c4:	00099440 	call	10009944 <_sbrk_r>
100069c8:	99000217 	ldw	r4,8(r19)
100069cc:	014003c4 	movi	r5,15
100069d0:	1107c83a 	sub	r3,r2,r4
100069d4:	28ffdd0e 	bge	r5,r3,1000694c <__alt_data_end+0xf800694c>
100069d8:	01440074 	movhi	r5,4097
100069dc:	294fec04 	addi	r5,r5,16304
100069e0:	29400017 	ldw	r5,0(r5)
100069e4:	18c00054 	ori	r3,r3,1
100069e8:	20c00115 	stw	r3,4(r4)
100069ec:	00c40074 	movhi	r3,4097
100069f0:	1145c83a 	sub	r2,r2,r5
100069f4:	18d6c304 	addi	r3,r3,23308
100069f8:	18800015 	stw	r2,0(r3)
100069fc:	003fd306 	br	1000694c <__alt_data_end+0xf800694c>

10006a00 <_free_r>:
10006a00:	28004126 	beq	r5,zero,10006b08 <_free_r+0x108>
10006a04:	defffd04 	addi	sp,sp,-12
10006a08:	dc400115 	stw	r17,4(sp)
10006a0c:	dc000015 	stw	r16,0(sp)
10006a10:	2023883a 	mov	r17,r4
10006a14:	2821883a 	mov	r16,r5
10006a18:	dfc00215 	stw	ra,8(sp)
10006a1c:	000f7d00 	call	1000f7d0 <__malloc_lock>
10006a20:	81ffff17 	ldw	r7,-4(r16)
10006a24:	00bfff84 	movi	r2,-2
10006a28:	01040074 	movhi	r4,4097
10006a2c:	81bffe04 	addi	r6,r16,-8
10006a30:	3884703a 	and	r2,r7,r2
10006a34:	210a6504 	addi	r4,r4,10644
10006a38:	308b883a 	add	r5,r6,r2
10006a3c:	2a400117 	ldw	r9,4(r5)
10006a40:	22000217 	ldw	r8,8(r4)
10006a44:	00ffff04 	movi	r3,-4
10006a48:	48c6703a 	and	r3,r9,r3
10006a4c:	2a005726 	beq	r5,r8,10006bac <_free_r+0x1ac>
10006a50:	28c00115 	stw	r3,4(r5)
10006a54:	39c0004c 	andi	r7,r7,1
10006a58:	3800091e 	bne	r7,zero,10006a80 <_free_r+0x80>
10006a5c:	823ffe17 	ldw	r8,-8(r16)
10006a60:	22400204 	addi	r9,r4,8
10006a64:	320dc83a 	sub	r6,r6,r8
10006a68:	31c00217 	ldw	r7,8(r6)
10006a6c:	1205883a 	add	r2,r2,r8
10006a70:	3a406526 	beq	r7,r9,10006c08 <_free_r+0x208>
10006a74:	32000317 	ldw	r8,12(r6)
10006a78:	3a000315 	stw	r8,12(r7)
10006a7c:	41c00215 	stw	r7,8(r8)
10006a80:	28cf883a 	add	r7,r5,r3
10006a84:	39c00117 	ldw	r7,4(r7)
10006a88:	39c0004c 	andi	r7,r7,1
10006a8c:	38003a26 	beq	r7,zero,10006b78 <_free_r+0x178>
10006a90:	10c00054 	ori	r3,r2,1
10006a94:	30c00115 	stw	r3,4(r6)
10006a98:	3087883a 	add	r3,r6,r2
10006a9c:	18800015 	stw	r2,0(r3)
10006aa0:	00c07fc4 	movi	r3,511
10006aa4:	18801936 	bltu	r3,r2,10006b0c <_free_r+0x10c>
10006aa8:	1004d0fa 	srli	r2,r2,3
10006aac:	01c00044 	movi	r7,1
10006ab0:	21400117 	ldw	r5,4(r4)
10006ab4:	10c00044 	addi	r3,r2,1
10006ab8:	18c7883a 	add	r3,r3,r3
10006abc:	1005d0ba 	srai	r2,r2,2
10006ac0:	18c7883a 	add	r3,r3,r3
10006ac4:	18c7883a 	add	r3,r3,r3
10006ac8:	1907883a 	add	r3,r3,r4
10006acc:	3884983a 	sll	r2,r7,r2
10006ad0:	19c00017 	ldw	r7,0(r3)
10006ad4:	1a3ffe04 	addi	r8,r3,-8
10006ad8:	1144b03a 	or	r2,r2,r5
10006adc:	32000315 	stw	r8,12(r6)
10006ae0:	31c00215 	stw	r7,8(r6)
10006ae4:	20800115 	stw	r2,4(r4)
10006ae8:	19800015 	stw	r6,0(r3)
10006aec:	39800315 	stw	r6,12(r7)
10006af0:	8809883a 	mov	r4,r17
10006af4:	dfc00217 	ldw	ra,8(sp)
10006af8:	dc400117 	ldw	r17,4(sp)
10006afc:	dc000017 	ldw	r16,0(sp)
10006b00:	dec00304 	addi	sp,sp,12
10006b04:	000f7f41 	jmpi	1000f7f4 <__malloc_unlock>
10006b08:	f800283a 	ret
10006b0c:	100ad27a 	srli	r5,r2,9
10006b10:	00c00104 	movi	r3,4
10006b14:	19404a36 	bltu	r3,r5,10006c40 <_free_r+0x240>
10006b18:	100ad1ba 	srli	r5,r2,6
10006b1c:	28c00e44 	addi	r3,r5,57
10006b20:	18c7883a 	add	r3,r3,r3
10006b24:	29400e04 	addi	r5,r5,56
10006b28:	18c7883a 	add	r3,r3,r3
10006b2c:	18c7883a 	add	r3,r3,r3
10006b30:	1909883a 	add	r4,r3,r4
10006b34:	20c00017 	ldw	r3,0(r4)
10006b38:	01c40074 	movhi	r7,4097
10006b3c:	213ffe04 	addi	r4,r4,-8
10006b40:	39ca6504 	addi	r7,r7,10644
10006b44:	20c04426 	beq	r4,r3,10006c58 <_free_r+0x258>
10006b48:	01ffff04 	movi	r7,-4
10006b4c:	19400117 	ldw	r5,4(r3)
10006b50:	29ca703a 	and	r5,r5,r7
10006b54:	1140022e 	bgeu	r2,r5,10006b60 <_free_r+0x160>
10006b58:	18c00217 	ldw	r3,8(r3)
10006b5c:	20fffb1e 	bne	r4,r3,10006b4c <__alt_data_end+0xf8006b4c>
10006b60:	19000317 	ldw	r4,12(r3)
10006b64:	31000315 	stw	r4,12(r6)
10006b68:	30c00215 	stw	r3,8(r6)
10006b6c:	21800215 	stw	r6,8(r4)
10006b70:	19800315 	stw	r6,12(r3)
10006b74:	003fde06 	br	10006af0 <__alt_data_end+0xf8006af0>
10006b78:	29c00217 	ldw	r7,8(r5)
10006b7c:	10c5883a 	add	r2,r2,r3
10006b80:	00c40074 	movhi	r3,4097
10006b84:	18ca6704 	addi	r3,r3,10652
10006b88:	38c03b26 	beq	r7,r3,10006c78 <_free_r+0x278>
10006b8c:	2a000317 	ldw	r8,12(r5)
10006b90:	11400054 	ori	r5,r2,1
10006b94:	3087883a 	add	r3,r6,r2
10006b98:	3a000315 	stw	r8,12(r7)
10006b9c:	41c00215 	stw	r7,8(r8)
10006ba0:	31400115 	stw	r5,4(r6)
10006ba4:	18800015 	stw	r2,0(r3)
10006ba8:	003fbd06 	br	10006aa0 <__alt_data_end+0xf8006aa0>
10006bac:	39c0004c 	andi	r7,r7,1
10006bb0:	10c5883a 	add	r2,r2,r3
10006bb4:	3800071e 	bne	r7,zero,10006bd4 <_free_r+0x1d4>
10006bb8:	81fffe17 	ldw	r7,-8(r16)
10006bbc:	31cdc83a 	sub	r6,r6,r7
10006bc0:	30c00317 	ldw	r3,12(r6)
10006bc4:	31400217 	ldw	r5,8(r6)
10006bc8:	11c5883a 	add	r2,r2,r7
10006bcc:	28c00315 	stw	r3,12(r5)
10006bd0:	19400215 	stw	r5,8(r3)
10006bd4:	10c00054 	ori	r3,r2,1
10006bd8:	30c00115 	stw	r3,4(r6)
10006bdc:	00c40074 	movhi	r3,4097
10006be0:	18cfed04 	addi	r3,r3,16308
10006be4:	18c00017 	ldw	r3,0(r3)
10006be8:	21800215 	stw	r6,8(r4)
10006bec:	10ffc036 	bltu	r2,r3,10006af0 <__alt_data_end+0xf8006af0>
10006bf0:	00840074 	movhi	r2,4097
10006bf4:	1096ba04 	addi	r2,r2,23272
10006bf8:	11400017 	ldw	r5,0(r2)
10006bfc:	8809883a 	mov	r4,r17
10006c00:	00068dc0 	call	100068dc <_malloc_trim_r>
10006c04:	003fba06 	br	10006af0 <__alt_data_end+0xf8006af0>
10006c08:	28c9883a 	add	r4,r5,r3
10006c0c:	21000117 	ldw	r4,4(r4)
10006c10:	2100004c 	andi	r4,r4,1
10006c14:	2000391e 	bne	r4,zero,10006cfc <_free_r+0x2fc>
10006c18:	29c00217 	ldw	r7,8(r5)
10006c1c:	29000317 	ldw	r4,12(r5)
10006c20:	1885883a 	add	r2,r3,r2
10006c24:	10c00054 	ori	r3,r2,1
10006c28:	39000315 	stw	r4,12(r7)
10006c2c:	21c00215 	stw	r7,8(r4)
10006c30:	30c00115 	stw	r3,4(r6)
10006c34:	308d883a 	add	r6,r6,r2
10006c38:	30800015 	stw	r2,0(r6)
10006c3c:	003fac06 	br	10006af0 <__alt_data_end+0xf8006af0>
10006c40:	00c00504 	movi	r3,20
10006c44:	19401536 	bltu	r3,r5,10006c9c <_free_r+0x29c>
10006c48:	28c01704 	addi	r3,r5,92
10006c4c:	18c7883a 	add	r3,r3,r3
10006c50:	294016c4 	addi	r5,r5,91
10006c54:	003fb406 	br	10006b28 <__alt_data_end+0xf8006b28>
10006c58:	280bd0ba 	srai	r5,r5,2
10006c5c:	00c00044 	movi	r3,1
10006c60:	38800117 	ldw	r2,4(r7)
10006c64:	194a983a 	sll	r5,r3,r5
10006c68:	2007883a 	mov	r3,r4
10006c6c:	2884b03a 	or	r2,r5,r2
10006c70:	38800115 	stw	r2,4(r7)
10006c74:	003fbb06 	br	10006b64 <__alt_data_end+0xf8006b64>
10006c78:	21800515 	stw	r6,20(r4)
10006c7c:	21800415 	stw	r6,16(r4)
10006c80:	10c00054 	ori	r3,r2,1
10006c84:	31c00315 	stw	r7,12(r6)
10006c88:	31c00215 	stw	r7,8(r6)
10006c8c:	30c00115 	stw	r3,4(r6)
10006c90:	308d883a 	add	r6,r6,r2
10006c94:	30800015 	stw	r2,0(r6)
10006c98:	003f9506 	br	10006af0 <__alt_data_end+0xf8006af0>
10006c9c:	00c01504 	movi	r3,84
10006ca0:	19400536 	bltu	r3,r5,10006cb8 <_free_r+0x2b8>
10006ca4:	100ad33a 	srli	r5,r2,12
10006ca8:	28c01bc4 	addi	r3,r5,111
10006cac:	18c7883a 	add	r3,r3,r3
10006cb0:	29401b84 	addi	r5,r5,110
10006cb4:	003f9c06 	br	10006b28 <__alt_data_end+0xf8006b28>
10006cb8:	00c05504 	movi	r3,340
10006cbc:	19400536 	bltu	r3,r5,10006cd4 <_free_r+0x2d4>
10006cc0:	100ad3fa 	srli	r5,r2,15
10006cc4:	28c01e04 	addi	r3,r5,120
10006cc8:	18c7883a 	add	r3,r3,r3
10006ccc:	29401dc4 	addi	r5,r5,119
10006cd0:	003f9506 	br	10006b28 <__alt_data_end+0xf8006b28>
10006cd4:	00c15504 	movi	r3,1364
10006cd8:	19400536 	bltu	r3,r5,10006cf0 <_free_r+0x2f0>
10006cdc:	100ad4ba 	srli	r5,r2,18
10006ce0:	28c01f44 	addi	r3,r5,125
10006ce4:	18c7883a 	add	r3,r3,r3
10006ce8:	29401f04 	addi	r5,r5,124
10006cec:	003f8e06 	br	10006b28 <__alt_data_end+0xf8006b28>
10006cf0:	00c03f84 	movi	r3,254
10006cf4:	01401f84 	movi	r5,126
10006cf8:	003f8b06 	br	10006b28 <__alt_data_end+0xf8006b28>
10006cfc:	10c00054 	ori	r3,r2,1
10006d00:	30c00115 	stw	r3,4(r6)
10006d04:	308d883a 	add	r6,r6,r2
10006d08:	30800015 	stw	r2,0(r6)
10006d0c:	003f7806 	br	10006af0 <__alt_data_end+0xf8006af0>

10006d10 <__sfvwrite_r>:
10006d10:	30800217 	ldw	r2,8(r6)
10006d14:	10006726 	beq	r2,zero,10006eb4 <__sfvwrite_r+0x1a4>
10006d18:	28c0030b 	ldhu	r3,12(r5)
10006d1c:	defff404 	addi	sp,sp,-48
10006d20:	dd400715 	stw	r21,28(sp)
10006d24:	dd000615 	stw	r20,24(sp)
10006d28:	dc000215 	stw	r16,8(sp)
10006d2c:	dfc00b15 	stw	ra,44(sp)
10006d30:	df000a15 	stw	fp,40(sp)
10006d34:	ddc00915 	stw	r23,36(sp)
10006d38:	dd800815 	stw	r22,32(sp)
10006d3c:	dcc00515 	stw	r19,20(sp)
10006d40:	dc800415 	stw	r18,16(sp)
10006d44:	dc400315 	stw	r17,12(sp)
10006d48:	1880020c 	andi	r2,r3,8
10006d4c:	2821883a 	mov	r16,r5
10006d50:	202b883a 	mov	r21,r4
10006d54:	3029883a 	mov	r20,r6
10006d58:	10002726 	beq	r2,zero,10006df8 <__sfvwrite_r+0xe8>
10006d5c:	28800417 	ldw	r2,16(r5)
10006d60:	10002526 	beq	r2,zero,10006df8 <__sfvwrite_r+0xe8>
10006d64:	1880008c 	andi	r2,r3,2
10006d68:	a4400017 	ldw	r17,0(r20)
10006d6c:	10002a26 	beq	r2,zero,10006e18 <__sfvwrite_r+0x108>
10006d70:	05a00034 	movhi	r22,32768
10006d74:	0027883a 	mov	r19,zero
10006d78:	0025883a 	mov	r18,zero
10006d7c:	b5bf0004 	addi	r22,r22,-1024
10006d80:	980d883a 	mov	r6,r19
10006d84:	a809883a 	mov	r4,r21
10006d88:	90004626 	beq	r18,zero,10006ea4 <__sfvwrite_r+0x194>
10006d8c:	900f883a 	mov	r7,r18
10006d90:	b480022e 	bgeu	r22,r18,10006d9c <__sfvwrite_r+0x8c>
10006d94:	01e00034 	movhi	r7,32768
10006d98:	39ff0004 	addi	r7,r7,-1024
10006d9c:	80800917 	ldw	r2,36(r16)
10006da0:	81400717 	ldw	r5,28(r16)
10006da4:	103ee83a 	callr	r2
10006da8:	00805a0e 	bge	zero,r2,10006f14 <__sfvwrite_r+0x204>
10006dac:	a0c00217 	ldw	r3,8(r20)
10006db0:	98a7883a 	add	r19,r19,r2
10006db4:	90a5c83a 	sub	r18,r18,r2
10006db8:	1885c83a 	sub	r2,r3,r2
10006dbc:	a0800215 	stw	r2,8(r20)
10006dc0:	103fef1e 	bne	r2,zero,10006d80 <__alt_data_end+0xf8006d80>
10006dc4:	0005883a 	mov	r2,zero
10006dc8:	dfc00b17 	ldw	ra,44(sp)
10006dcc:	df000a17 	ldw	fp,40(sp)
10006dd0:	ddc00917 	ldw	r23,36(sp)
10006dd4:	dd800817 	ldw	r22,32(sp)
10006dd8:	dd400717 	ldw	r21,28(sp)
10006ddc:	dd000617 	ldw	r20,24(sp)
10006de0:	dcc00517 	ldw	r19,20(sp)
10006de4:	dc800417 	ldw	r18,16(sp)
10006de8:	dc400317 	ldw	r17,12(sp)
10006dec:	dc000217 	ldw	r16,8(sp)
10006df0:	dec00c04 	addi	sp,sp,48
10006df4:	f800283a 	ret
10006df8:	800b883a 	mov	r5,r16
10006dfc:	a809883a 	mov	r4,r21
10006e00:	00048800 	call	10004880 <__swsetup_r>
10006e04:	1000ee1e 	bne	r2,zero,100071c0 <__sfvwrite_r+0x4b0>
10006e08:	80c0030b 	ldhu	r3,12(r16)
10006e0c:	a4400017 	ldw	r17,0(r20)
10006e10:	1880008c 	andi	r2,r3,2
10006e14:	103fd61e 	bne	r2,zero,10006d70 <__alt_data_end+0xf8006d70>
10006e18:	1880004c 	andi	r2,r3,1
10006e1c:	1000421e 	bne	r2,zero,10006f28 <__sfvwrite_r+0x218>
10006e20:	0039883a 	mov	fp,zero
10006e24:	0025883a 	mov	r18,zero
10006e28:	90001a26 	beq	r18,zero,10006e94 <__sfvwrite_r+0x184>
10006e2c:	1880800c 	andi	r2,r3,512
10006e30:	84c00217 	ldw	r19,8(r16)
10006e34:	10002126 	beq	r2,zero,10006ebc <__sfvwrite_r+0x1ac>
10006e38:	982f883a 	mov	r23,r19
10006e3c:	94c09636 	bltu	r18,r19,10007098 <__sfvwrite_r+0x388>
10006e40:	1881200c 	andi	r2,r3,1152
10006e44:	1000a11e 	bne	r2,zero,100070cc <__sfvwrite_r+0x3bc>
10006e48:	81000017 	ldw	r4,0(r16)
10006e4c:	b80d883a 	mov	r6,r23
10006e50:	e00b883a 	mov	r5,fp
10006e54:	00080300 	call	10008030 <memmove>
10006e58:	80c00217 	ldw	r3,8(r16)
10006e5c:	81000017 	ldw	r4,0(r16)
10006e60:	9005883a 	mov	r2,r18
10006e64:	1ce7c83a 	sub	r19,r3,r19
10006e68:	25cf883a 	add	r7,r4,r23
10006e6c:	84c00215 	stw	r19,8(r16)
10006e70:	81c00015 	stw	r7,0(r16)
10006e74:	a0c00217 	ldw	r3,8(r20)
10006e78:	e0b9883a 	add	fp,fp,r2
10006e7c:	90a5c83a 	sub	r18,r18,r2
10006e80:	18a7c83a 	sub	r19,r3,r2
10006e84:	a4c00215 	stw	r19,8(r20)
10006e88:	983fce26 	beq	r19,zero,10006dc4 <__alt_data_end+0xf8006dc4>
10006e8c:	80c0030b 	ldhu	r3,12(r16)
10006e90:	903fe61e 	bne	r18,zero,10006e2c <__alt_data_end+0xf8006e2c>
10006e94:	8f000017 	ldw	fp,0(r17)
10006e98:	8c800117 	ldw	r18,4(r17)
10006e9c:	8c400204 	addi	r17,r17,8
10006ea0:	003fe106 	br	10006e28 <__alt_data_end+0xf8006e28>
10006ea4:	8cc00017 	ldw	r19,0(r17)
10006ea8:	8c800117 	ldw	r18,4(r17)
10006eac:	8c400204 	addi	r17,r17,8
10006eb0:	003fb306 	br	10006d80 <__alt_data_end+0xf8006d80>
10006eb4:	0005883a 	mov	r2,zero
10006eb8:	f800283a 	ret
10006ebc:	81000017 	ldw	r4,0(r16)
10006ec0:	80800417 	ldw	r2,16(r16)
10006ec4:	11005a36 	bltu	r2,r4,10007030 <__sfvwrite_r+0x320>
10006ec8:	85c00517 	ldw	r23,20(r16)
10006ecc:	95c05836 	bltu	r18,r23,10007030 <__sfvwrite_r+0x320>
10006ed0:	00a00034 	movhi	r2,32768
10006ed4:	10bfffc4 	addi	r2,r2,-1
10006ed8:	9009883a 	mov	r4,r18
10006edc:	1480012e 	bgeu	r2,r18,10006ee4 <__sfvwrite_r+0x1d4>
10006ee0:	1009883a 	mov	r4,r2
10006ee4:	b80b883a 	mov	r5,r23
10006ee8:	000c7b40 	call	1000c7b4 <__divsi3>
10006eec:	b80b883a 	mov	r5,r23
10006ef0:	1009883a 	mov	r4,r2
10006ef4:	000c9680 	call	1000c968 <__mulsi3>
10006ef8:	81400717 	ldw	r5,28(r16)
10006efc:	80c00917 	ldw	r3,36(r16)
10006f00:	100f883a 	mov	r7,r2
10006f04:	e00d883a 	mov	r6,fp
10006f08:	a809883a 	mov	r4,r21
10006f0c:	183ee83a 	callr	r3
10006f10:	00bfd816 	blt	zero,r2,10006e74 <__alt_data_end+0xf8006e74>
10006f14:	8080030b 	ldhu	r2,12(r16)
10006f18:	10801014 	ori	r2,r2,64
10006f1c:	8080030d 	sth	r2,12(r16)
10006f20:	00bfffc4 	movi	r2,-1
10006f24:	003fa806 	br	10006dc8 <__alt_data_end+0xf8006dc8>
10006f28:	0027883a 	mov	r19,zero
10006f2c:	0011883a 	mov	r8,zero
10006f30:	0039883a 	mov	fp,zero
10006f34:	0025883a 	mov	r18,zero
10006f38:	90001f26 	beq	r18,zero,10006fb8 <__sfvwrite_r+0x2a8>
10006f3c:	40005a26 	beq	r8,zero,100070a8 <__sfvwrite_r+0x398>
10006f40:	982d883a 	mov	r22,r19
10006f44:	94c0012e 	bgeu	r18,r19,10006f4c <__sfvwrite_r+0x23c>
10006f48:	902d883a 	mov	r22,r18
10006f4c:	81000017 	ldw	r4,0(r16)
10006f50:	80800417 	ldw	r2,16(r16)
10006f54:	b02f883a 	mov	r23,r22
10006f58:	81c00517 	ldw	r7,20(r16)
10006f5c:	1100032e 	bgeu	r2,r4,10006f6c <__sfvwrite_r+0x25c>
10006f60:	80c00217 	ldw	r3,8(r16)
10006f64:	38c7883a 	add	r3,r7,r3
10006f68:	1d801816 	blt	r3,r22,10006fcc <__sfvwrite_r+0x2bc>
10006f6c:	b1c03e16 	blt	r22,r7,10007068 <__sfvwrite_r+0x358>
10006f70:	80800917 	ldw	r2,36(r16)
10006f74:	81400717 	ldw	r5,28(r16)
10006f78:	e00d883a 	mov	r6,fp
10006f7c:	da000115 	stw	r8,4(sp)
10006f80:	a809883a 	mov	r4,r21
10006f84:	103ee83a 	callr	r2
10006f88:	102f883a 	mov	r23,r2
10006f8c:	da000117 	ldw	r8,4(sp)
10006f90:	00bfe00e 	bge	zero,r2,10006f14 <__alt_data_end+0xf8006f14>
10006f94:	9de7c83a 	sub	r19,r19,r23
10006f98:	98001f26 	beq	r19,zero,10007018 <__sfvwrite_r+0x308>
10006f9c:	a0800217 	ldw	r2,8(r20)
10006fa0:	e5f9883a 	add	fp,fp,r23
10006fa4:	95e5c83a 	sub	r18,r18,r23
10006fa8:	15efc83a 	sub	r23,r2,r23
10006fac:	a5c00215 	stw	r23,8(r20)
10006fb0:	b83f8426 	beq	r23,zero,10006dc4 <__alt_data_end+0xf8006dc4>
10006fb4:	903fe11e 	bne	r18,zero,10006f3c <__alt_data_end+0xf8006f3c>
10006fb8:	8f000017 	ldw	fp,0(r17)
10006fbc:	8c800117 	ldw	r18,4(r17)
10006fc0:	0011883a 	mov	r8,zero
10006fc4:	8c400204 	addi	r17,r17,8
10006fc8:	003fdb06 	br	10006f38 <__alt_data_end+0xf8006f38>
10006fcc:	180d883a 	mov	r6,r3
10006fd0:	e00b883a 	mov	r5,fp
10006fd4:	da000115 	stw	r8,4(sp)
10006fd8:	d8c00015 	stw	r3,0(sp)
10006fdc:	00080300 	call	10008030 <memmove>
10006fe0:	d8c00017 	ldw	r3,0(sp)
10006fe4:	80800017 	ldw	r2,0(r16)
10006fe8:	800b883a 	mov	r5,r16
10006fec:	a809883a 	mov	r4,r21
10006ff0:	10c5883a 	add	r2,r2,r3
10006ff4:	80800015 	stw	r2,0(r16)
10006ff8:	d8c00015 	stw	r3,0(sp)
10006ffc:	00064a00 	call	100064a0 <_fflush_r>
10007000:	d8c00017 	ldw	r3,0(sp)
10007004:	da000117 	ldw	r8,4(sp)
10007008:	103fc21e 	bne	r2,zero,10006f14 <__alt_data_end+0xf8006f14>
1000700c:	182f883a 	mov	r23,r3
10007010:	9de7c83a 	sub	r19,r19,r23
10007014:	983fe11e 	bne	r19,zero,10006f9c <__alt_data_end+0xf8006f9c>
10007018:	800b883a 	mov	r5,r16
1000701c:	a809883a 	mov	r4,r21
10007020:	00064a00 	call	100064a0 <_fflush_r>
10007024:	103fbb1e 	bne	r2,zero,10006f14 <__alt_data_end+0xf8006f14>
10007028:	0011883a 	mov	r8,zero
1000702c:	003fdb06 	br	10006f9c <__alt_data_end+0xf8006f9c>
10007030:	94c0012e 	bgeu	r18,r19,10007038 <__sfvwrite_r+0x328>
10007034:	9027883a 	mov	r19,r18
10007038:	980d883a 	mov	r6,r19
1000703c:	e00b883a 	mov	r5,fp
10007040:	00080300 	call	10008030 <memmove>
10007044:	80800217 	ldw	r2,8(r16)
10007048:	80c00017 	ldw	r3,0(r16)
1000704c:	14c5c83a 	sub	r2,r2,r19
10007050:	1cc7883a 	add	r3,r3,r19
10007054:	80800215 	stw	r2,8(r16)
10007058:	80c00015 	stw	r3,0(r16)
1000705c:	10004326 	beq	r2,zero,1000716c <__sfvwrite_r+0x45c>
10007060:	9805883a 	mov	r2,r19
10007064:	003f8306 	br	10006e74 <__alt_data_end+0xf8006e74>
10007068:	b00d883a 	mov	r6,r22
1000706c:	e00b883a 	mov	r5,fp
10007070:	da000115 	stw	r8,4(sp)
10007074:	00080300 	call	10008030 <memmove>
10007078:	80800217 	ldw	r2,8(r16)
1000707c:	80c00017 	ldw	r3,0(r16)
10007080:	da000117 	ldw	r8,4(sp)
10007084:	1585c83a 	sub	r2,r2,r22
10007088:	1dad883a 	add	r22,r3,r22
1000708c:	80800215 	stw	r2,8(r16)
10007090:	85800015 	stw	r22,0(r16)
10007094:	003fbf06 	br	10006f94 <__alt_data_end+0xf8006f94>
10007098:	81000017 	ldw	r4,0(r16)
1000709c:	9027883a 	mov	r19,r18
100070a0:	902f883a 	mov	r23,r18
100070a4:	003f6906 	br	10006e4c <__alt_data_end+0xf8006e4c>
100070a8:	900d883a 	mov	r6,r18
100070ac:	01400284 	movi	r5,10
100070b0:	e009883a 	mov	r4,fp
100070b4:	0007e040 	call	10007e04 <memchr>
100070b8:	10003e26 	beq	r2,zero,100071b4 <__sfvwrite_r+0x4a4>
100070bc:	10800044 	addi	r2,r2,1
100070c0:	1727c83a 	sub	r19,r2,fp
100070c4:	02000044 	movi	r8,1
100070c8:	003f9d06 	br	10006f40 <__alt_data_end+0xf8006f40>
100070cc:	80800517 	ldw	r2,20(r16)
100070d0:	81400417 	ldw	r5,16(r16)
100070d4:	81c00017 	ldw	r7,0(r16)
100070d8:	10a7883a 	add	r19,r2,r2
100070dc:	9885883a 	add	r2,r19,r2
100070e0:	1026d7fa 	srli	r19,r2,31
100070e4:	396dc83a 	sub	r22,r7,r5
100070e8:	b1000044 	addi	r4,r22,1
100070ec:	9885883a 	add	r2,r19,r2
100070f0:	1027d07a 	srai	r19,r2,1
100070f4:	2485883a 	add	r2,r4,r18
100070f8:	980d883a 	mov	r6,r19
100070fc:	9880022e 	bgeu	r19,r2,10007108 <__sfvwrite_r+0x3f8>
10007100:	1027883a 	mov	r19,r2
10007104:	100d883a 	mov	r6,r2
10007108:	18c1000c 	andi	r3,r3,1024
1000710c:	18001c26 	beq	r3,zero,10007180 <__sfvwrite_r+0x470>
10007110:	300b883a 	mov	r5,r6
10007114:	a809883a 	mov	r4,r21
10007118:	00075f80 	call	100075f8 <_malloc_r>
1000711c:	102f883a 	mov	r23,r2
10007120:	10002926 	beq	r2,zero,100071c8 <__sfvwrite_r+0x4b8>
10007124:	81400417 	ldw	r5,16(r16)
10007128:	b00d883a 	mov	r6,r22
1000712c:	1009883a 	mov	r4,r2
10007130:	0007ee80 	call	10007ee8 <memcpy>
10007134:	8080030b 	ldhu	r2,12(r16)
10007138:	00fedfc4 	movi	r3,-1153
1000713c:	10c4703a 	and	r2,r2,r3
10007140:	10802014 	ori	r2,r2,128
10007144:	8080030d 	sth	r2,12(r16)
10007148:	bd89883a 	add	r4,r23,r22
1000714c:	9d8fc83a 	sub	r7,r19,r22
10007150:	85c00415 	stw	r23,16(r16)
10007154:	84c00515 	stw	r19,20(r16)
10007158:	81000015 	stw	r4,0(r16)
1000715c:	9027883a 	mov	r19,r18
10007160:	81c00215 	stw	r7,8(r16)
10007164:	902f883a 	mov	r23,r18
10007168:	003f3806 	br	10006e4c <__alt_data_end+0xf8006e4c>
1000716c:	800b883a 	mov	r5,r16
10007170:	a809883a 	mov	r4,r21
10007174:	00064a00 	call	100064a0 <_fflush_r>
10007178:	103fb926 	beq	r2,zero,10007060 <__alt_data_end+0xf8007060>
1000717c:	003f6506 	br	10006f14 <__alt_data_end+0xf8006f14>
10007180:	a809883a 	mov	r4,r21
10007184:	000936c0 	call	1000936c <_realloc_r>
10007188:	102f883a 	mov	r23,r2
1000718c:	103fee1e 	bne	r2,zero,10007148 <__alt_data_end+0xf8007148>
10007190:	81400417 	ldw	r5,16(r16)
10007194:	a809883a 	mov	r4,r21
10007198:	0006a000 	call	10006a00 <_free_r>
1000719c:	8080030b 	ldhu	r2,12(r16)
100071a0:	00ffdfc4 	movi	r3,-129
100071a4:	1884703a 	and	r2,r3,r2
100071a8:	00c00304 	movi	r3,12
100071ac:	a8c00015 	stw	r3,0(r21)
100071b0:	003f5906 	br	10006f18 <__alt_data_end+0xf8006f18>
100071b4:	94c00044 	addi	r19,r18,1
100071b8:	02000044 	movi	r8,1
100071bc:	003f6006 	br	10006f40 <__alt_data_end+0xf8006f40>
100071c0:	00bfffc4 	movi	r2,-1
100071c4:	003f0006 	br	10006dc8 <__alt_data_end+0xf8006dc8>
100071c8:	00800304 	movi	r2,12
100071cc:	a8800015 	stw	r2,0(r21)
100071d0:	8080030b 	ldhu	r2,12(r16)
100071d4:	003f5006 	br	10006f18 <__alt_data_end+0xf8006f18>

100071d8 <_fwalk>:
100071d8:	defff704 	addi	sp,sp,-36
100071dc:	dd000415 	stw	r20,16(sp)
100071e0:	dfc00815 	stw	ra,32(sp)
100071e4:	ddc00715 	stw	r23,28(sp)
100071e8:	dd800615 	stw	r22,24(sp)
100071ec:	dd400515 	stw	r21,20(sp)
100071f0:	dcc00315 	stw	r19,12(sp)
100071f4:	dc800215 	stw	r18,8(sp)
100071f8:	dc400115 	stw	r17,4(sp)
100071fc:	dc000015 	stw	r16,0(sp)
10007200:	2500b804 	addi	r20,r4,736
10007204:	a0002326 	beq	r20,zero,10007294 <_fwalk+0xbc>
10007208:	282b883a 	mov	r21,r5
1000720c:	002f883a 	mov	r23,zero
10007210:	05800044 	movi	r22,1
10007214:	04ffffc4 	movi	r19,-1
10007218:	a4400117 	ldw	r17,4(r20)
1000721c:	a4800217 	ldw	r18,8(r20)
10007220:	8c7fffc4 	addi	r17,r17,-1
10007224:	88000d16 	blt	r17,zero,1000725c <_fwalk+0x84>
10007228:	94000304 	addi	r16,r18,12
1000722c:	94800384 	addi	r18,r18,14
10007230:	8080000b 	ldhu	r2,0(r16)
10007234:	8c7fffc4 	addi	r17,r17,-1
10007238:	813ffd04 	addi	r4,r16,-12
1000723c:	b080042e 	bgeu	r22,r2,10007250 <_fwalk+0x78>
10007240:	9080000f 	ldh	r2,0(r18)
10007244:	14c00226 	beq	r2,r19,10007250 <_fwalk+0x78>
10007248:	a83ee83a 	callr	r21
1000724c:	b8aeb03a 	or	r23,r23,r2
10007250:	84001a04 	addi	r16,r16,104
10007254:	94801a04 	addi	r18,r18,104
10007258:	8cfff51e 	bne	r17,r19,10007230 <__alt_data_end+0xf8007230>
1000725c:	a5000017 	ldw	r20,0(r20)
10007260:	a03fed1e 	bne	r20,zero,10007218 <__alt_data_end+0xf8007218>
10007264:	b805883a 	mov	r2,r23
10007268:	dfc00817 	ldw	ra,32(sp)
1000726c:	ddc00717 	ldw	r23,28(sp)
10007270:	dd800617 	ldw	r22,24(sp)
10007274:	dd400517 	ldw	r21,20(sp)
10007278:	dd000417 	ldw	r20,16(sp)
1000727c:	dcc00317 	ldw	r19,12(sp)
10007280:	dc800217 	ldw	r18,8(sp)
10007284:	dc400117 	ldw	r17,4(sp)
10007288:	dc000017 	ldw	r16,0(sp)
1000728c:	dec00904 	addi	sp,sp,36
10007290:	f800283a 	ret
10007294:	002f883a 	mov	r23,zero
10007298:	003ff206 	br	10007264 <__alt_data_end+0xf8007264>

1000729c <_fwalk_reent>:
1000729c:	defff704 	addi	sp,sp,-36
100072a0:	dd000415 	stw	r20,16(sp)
100072a4:	dfc00815 	stw	ra,32(sp)
100072a8:	ddc00715 	stw	r23,28(sp)
100072ac:	dd800615 	stw	r22,24(sp)
100072b0:	dd400515 	stw	r21,20(sp)
100072b4:	dcc00315 	stw	r19,12(sp)
100072b8:	dc800215 	stw	r18,8(sp)
100072bc:	dc400115 	stw	r17,4(sp)
100072c0:	dc000015 	stw	r16,0(sp)
100072c4:	2500b804 	addi	r20,r4,736
100072c8:	a0002326 	beq	r20,zero,10007358 <_fwalk_reent+0xbc>
100072cc:	282b883a 	mov	r21,r5
100072d0:	2027883a 	mov	r19,r4
100072d4:	002f883a 	mov	r23,zero
100072d8:	05800044 	movi	r22,1
100072dc:	04bfffc4 	movi	r18,-1
100072e0:	a4400117 	ldw	r17,4(r20)
100072e4:	a4000217 	ldw	r16,8(r20)
100072e8:	8c7fffc4 	addi	r17,r17,-1
100072ec:	88000c16 	blt	r17,zero,10007320 <_fwalk_reent+0x84>
100072f0:	84000304 	addi	r16,r16,12
100072f4:	8080000b 	ldhu	r2,0(r16)
100072f8:	8c7fffc4 	addi	r17,r17,-1
100072fc:	817ffd04 	addi	r5,r16,-12
10007300:	b080052e 	bgeu	r22,r2,10007318 <_fwalk_reent+0x7c>
10007304:	8080008f 	ldh	r2,2(r16)
10007308:	9809883a 	mov	r4,r19
1000730c:	14800226 	beq	r2,r18,10007318 <_fwalk_reent+0x7c>
10007310:	a83ee83a 	callr	r21
10007314:	b8aeb03a 	or	r23,r23,r2
10007318:	84001a04 	addi	r16,r16,104
1000731c:	8cbff51e 	bne	r17,r18,100072f4 <__alt_data_end+0xf80072f4>
10007320:	a5000017 	ldw	r20,0(r20)
10007324:	a03fee1e 	bne	r20,zero,100072e0 <__alt_data_end+0xf80072e0>
10007328:	b805883a 	mov	r2,r23
1000732c:	dfc00817 	ldw	ra,32(sp)
10007330:	ddc00717 	ldw	r23,28(sp)
10007334:	dd800617 	ldw	r22,24(sp)
10007338:	dd400517 	ldw	r21,20(sp)
1000733c:	dd000417 	ldw	r20,16(sp)
10007340:	dcc00317 	ldw	r19,12(sp)
10007344:	dc800217 	ldw	r18,8(sp)
10007348:	dc400117 	ldw	r17,4(sp)
1000734c:	dc000017 	ldw	r16,0(sp)
10007350:	dec00904 	addi	sp,sp,36
10007354:	f800283a 	ret
10007358:	002f883a 	mov	r23,zero
1000735c:	003ff206 	br	10007328 <__alt_data_end+0xf8007328>

10007360 <_setlocale_r>:
10007360:	30001b26 	beq	r6,zero,100073d0 <_setlocale_r+0x70>
10007364:	01440074 	movhi	r5,4097
10007368:	defffe04 	addi	sp,sp,-8
1000736c:	29489d04 	addi	r5,r5,8820
10007370:	3009883a 	mov	r4,r6
10007374:	dc000015 	stw	r16,0(sp)
10007378:	dfc00115 	stw	ra,4(sp)
1000737c:	3021883a 	mov	r16,r6
10007380:	0009ad40 	call	10009ad4 <strcmp>
10007384:	1000061e 	bne	r2,zero,100073a0 <_setlocale_r+0x40>
10007388:	00840074 	movhi	r2,4097
1000738c:	10889c04 	addi	r2,r2,8816
10007390:	dfc00117 	ldw	ra,4(sp)
10007394:	dc000017 	ldw	r16,0(sp)
10007398:	dec00204 	addi	sp,sp,8
1000739c:	f800283a 	ret
100073a0:	01440074 	movhi	r5,4097
100073a4:	29489c04 	addi	r5,r5,8816
100073a8:	8009883a 	mov	r4,r16
100073ac:	0009ad40 	call	10009ad4 <strcmp>
100073b0:	103ff526 	beq	r2,zero,10007388 <__alt_data_end+0xf8007388>
100073b4:	01440074 	movhi	r5,4097
100073b8:	29488704 	addi	r5,r5,8732
100073bc:	8009883a 	mov	r4,r16
100073c0:	0009ad40 	call	10009ad4 <strcmp>
100073c4:	103ff026 	beq	r2,zero,10007388 <__alt_data_end+0xf8007388>
100073c8:	0005883a 	mov	r2,zero
100073cc:	003ff006 	br	10007390 <__alt_data_end+0xf8007390>
100073d0:	00840074 	movhi	r2,4097
100073d4:	10889c04 	addi	r2,r2,8816
100073d8:	f800283a 	ret

100073dc <__locale_charset>:
100073dc:	00840074 	movhi	r2,4097
100073e0:	108a4f04 	addi	r2,r2,10556
100073e4:	f800283a 	ret

100073e8 <__locale_mb_cur_max>:
100073e8:	00840074 	movhi	r2,4097
100073ec:	108feb04 	addi	r2,r2,16300
100073f0:	10800017 	ldw	r2,0(r2)
100073f4:	f800283a 	ret

100073f8 <__locale_msgcharset>:
100073f8:	00840074 	movhi	r2,4097
100073fc:	108a4704 	addi	r2,r2,10524
10007400:	f800283a 	ret

10007404 <__locale_cjk_lang>:
10007404:	0005883a 	mov	r2,zero
10007408:	f800283a 	ret

1000740c <_localeconv_r>:
1000740c:	00840074 	movhi	r2,4097
10007410:	108a5704 	addi	r2,r2,10588
10007414:	f800283a 	ret

10007418 <setlocale>:
10007418:	00840074 	movhi	r2,4097
1000741c:	108fea04 	addi	r2,r2,16296
10007420:	280d883a 	mov	r6,r5
10007424:	200b883a 	mov	r5,r4
10007428:	11000017 	ldw	r4,0(r2)
1000742c:	00073601 	jmpi	10007360 <_setlocale_r>

10007430 <localeconv>:
10007430:	00840074 	movhi	r2,4097
10007434:	108a5704 	addi	r2,r2,10588
10007438:	f800283a 	ret

1000743c <__smakebuf_r>:
1000743c:	2880030b 	ldhu	r2,12(r5)
10007440:	10c0008c 	andi	r3,r2,2
10007444:	1800411e 	bne	r3,zero,1000754c <__smakebuf_r+0x110>
10007448:	deffec04 	addi	sp,sp,-80
1000744c:	dc000f15 	stw	r16,60(sp)
10007450:	2821883a 	mov	r16,r5
10007454:	2940038f 	ldh	r5,14(r5)
10007458:	dc401015 	stw	r17,64(sp)
1000745c:	dfc01315 	stw	ra,76(sp)
10007460:	dcc01215 	stw	r19,72(sp)
10007464:	dc801115 	stw	r18,68(sp)
10007468:	2023883a 	mov	r17,r4
1000746c:	28001c16 	blt	r5,zero,100074e0 <__smakebuf_r+0xa4>
10007470:	d80d883a 	mov	r6,sp
10007474:	000b7440 	call	1000b744 <_fstat_r>
10007478:	10001816 	blt	r2,zero,100074dc <__smakebuf_r+0xa0>
1000747c:	d8800117 	ldw	r2,4(sp)
10007480:	00e00014 	movui	r3,32768
10007484:	10bc000c 	andi	r2,r2,61440
10007488:	14c80020 	cmpeqi	r19,r2,8192
1000748c:	10c03726 	beq	r2,r3,1000756c <__smakebuf_r+0x130>
10007490:	80c0030b 	ldhu	r3,12(r16)
10007494:	18c20014 	ori	r3,r3,2048
10007498:	80c0030d 	sth	r3,12(r16)
1000749c:	00c80004 	movi	r3,8192
100074a0:	10c0521e 	bne	r2,r3,100075ec <__smakebuf_r+0x1b0>
100074a4:	8140038f 	ldh	r5,14(r16)
100074a8:	8809883a 	mov	r4,r17
100074ac:	000b7a00 	call	1000b7a0 <_isatty_r>
100074b0:	10004c26 	beq	r2,zero,100075e4 <__smakebuf_r+0x1a8>
100074b4:	8080030b 	ldhu	r2,12(r16)
100074b8:	80c010c4 	addi	r3,r16,67
100074bc:	80c00015 	stw	r3,0(r16)
100074c0:	10800054 	ori	r2,r2,1
100074c4:	8080030d 	sth	r2,12(r16)
100074c8:	00800044 	movi	r2,1
100074cc:	80c00415 	stw	r3,16(r16)
100074d0:	80800515 	stw	r2,20(r16)
100074d4:	04810004 	movi	r18,1024
100074d8:	00000706 	br	100074f8 <__smakebuf_r+0xbc>
100074dc:	8080030b 	ldhu	r2,12(r16)
100074e0:	10c0200c 	andi	r3,r2,128
100074e4:	18001f1e 	bne	r3,zero,10007564 <__smakebuf_r+0x128>
100074e8:	04810004 	movi	r18,1024
100074ec:	10820014 	ori	r2,r2,2048
100074f0:	8080030d 	sth	r2,12(r16)
100074f4:	0027883a 	mov	r19,zero
100074f8:	900b883a 	mov	r5,r18
100074fc:	8809883a 	mov	r4,r17
10007500:	00075f80 	call	100075f8 <_malloc_r>
10007504:	10002c26 	beq	r2,zero,100075b8 <__smakebuf_r+0x17c>
10007508:	80c0030b 	ldhu	r3,12(r16)
1000750c:	01040034 	movhi	r4,4096
10007510:	21194d04 	addi	r4,r4,25908
10007514:	89000f15 	stw	r4,60(r17)
10007518:	18c02014 	ori	r3,r3,128
1000751c:	80c0030d 	sth	r3,12(r16)
10007520:	80800015 	stw	r2,0(r16)
10007524:	80800415 	stw	r2,16(r16)
10007528:	84800515 	stw	r18,20(r16)
1000752c:	98001a1e 	bne	r19,zero,10007598 <__smakebuf_r+0x15c>
10007530:	dfc01317 	ldw	ra,76(sp)
10007534:	dcc01217 	ldw	r19,72(sp)
10007538:	dc801117 	ldw	r18,68(sp)
1000753c:	dc401017 	ldw	r17,64(sp)
10007540:	dc000f17 	ldw	r16,60(sp)
10007544:	dec01404 	addi	sp,sp,80
10007548:	f800283a 	ret
1000754c:	288010c4 	addi	r2,r5,67
10007550:	28800015 	stw	r2,0(r5)
10007554:	28800415 	stw	r2,16(r5)
10007558:	00800044 	movi	r2,1
1000755c:	28800515 	stw	r2,20(r5)
10007560:	f800283a 	ret
10007564:	04801004 	movi	r18,64
10007568:	003fe006 	br	100074ec <__alt_data_end+0xf80074ec>
1000756c:	81000a17 	ldw	r4,40(r16)
10007570:	00c40074 	movhi	r3,4097
10007574:	18e69c04 	addi	r3,r3,-26000
10007578:	20ffc51e 	bne	r4,r3,10007490 <__alt_data_end+0xf8007490>
1000757c:	8080030b 	ldhu	r2,12(r16)
10007580:	04810004 	movi	r18,1024
10007584:	84801315 	stw	r18,76(r16)
10007588:	1484b03a 	or	r2,r2,r18
1000758c:	8080030d 	sth	r2,12(r16)
10007590:	0027883a 	mov	r19,zero
10007594:	003fd806 	br	100074f8 <__alt_data_end+0xf80074f8>
10007598:	8140038f 	ldh	r5,14(r16)
1000759c:	8809883a 	mov	r4,r17
100075a0:	000b7a00 	call	1000b7a0 <_isatty_r>
100075a4:	103fe226 	beq	r2,zero,10007530 <__alt_data_end+0xf8007530>
100075a8:	8080030b 	ldhu	r2,12(r16)
100075ac:	10800054 	ori	r2,r2,1
100075b0:	8080030d 	sth	r2,12(r16)
100075b4:	003fde06 	br	10007530 <__alt_data_end+0xf8007530>
100075b8:	8080030b 	ldhu	r2,12(r16)
100075bc:	10c0800c 	andi	r3,r2,512
100075c0:	183fdb1e 	bne	r3,zero,10007530 <__alt_data_end+0xf8007530>
100075c4:	10800094 	ori	r2,r2,2
100075c8:	80c010c4 	addi	r3,r16,67
100075cc:	8080030d 	sth	r2,12(r16)
100075d0:	00800044 	movi	r2,1
100075d4:	80c00015 	stw	r3,0(r16)
100075d8:	80c00415 	stw	r3,16(r16)
100075dc:	80800515 	stw	r2,20(r16)
100075e0:	003fd306 	br	10007530 <__alt_data_end+0xf8007530>
100075e4:	04810004 	movi	r18,1024
100075e8:	003fc306 	br	100074f8 <__alt_data_end+0xf80074f8>
100075ec:	0027883a 	mov	r19,zero
100075f0:	04810004 	movi	r18,1024
100075f4:	003fc006 	br	100074f8 <__alt_data_end+0xf80074f8>

100075f8 <_malloc_r>:
100075f8:	defff504 	addi	sp,sp,-44
100075fc:	dc800315 	stw	r18,12(sp)
10007600:	dfc00a15 	stw	ra,40(sp)
10007604:	df000915 	stw	fp,36(sp)
10007608:	ddc00815 	stw	r23,32(sp)
1000760c:	dd800715 	stw	r22,28(sp)
10007610:	dd400615 	stw	r21,24(sp)
10007614:	dd000515 	stw	r20,20(sp)
10007618:	dcc00415 	stw	r19,16(sp)
1000761c:	dc400215 	stw	r17,8(sp)
10007620:	dc000115 	stw	r16,4(sp)
10007624:	288002c4 	addi	r2,r5,11
10007628:	00c00584 	movi	r3,22
1000762c:	2025883a 	mov	r18,r4
10007630:	18807f2e 	bgeu	r3,r2,10007830 <_malloc_r+0x238>
10007634:	047ffe04 	movi	r17,-8
10007638:	1462703a 	and	r17,r2,r17
1000763c:	8800a316 	blt	r17,zero,100078cc <_malloc_r+0x2d4>
10007640:	8940a236 	bltu	r17,r5,100078cc <_malloc_r+0x2d4>
10007644:	000f7d00 	call	1000f7d0 <__malloc_lock>
10007648:	00807dc4 	movi	r2,503
1000764c:	1441e92e 	bgeu	r2,r17,10007df4 <_malloc_r+0x7fc>
10007650:	8804d27a 	srli	r2,r17,9
10007654:	1000a126 	beq	r2,zero,100078dc <_malloc_r+0x2e4>
10007658:	00c00104 	movi	r3,4
1000765c:	18811e36 	bltu	r3,r2,10007ad8 <_malloc_r+0x4e0>
10007660:	8804d1ba 	srli	r2,r17,6
10007664:	12000e44 	addi	r8,r2,57
10007668:	11c00e04 	addi	r7,r2,56
1000766c:	4209883a 	add	r4,r8,r8
10007670:	04c40074 	movhi	r19,4097
10007674:	2109883a 	add	r4,r4,r4
10007678:	9cca6504 	addi	r19,r19,10644
1000767c:	2109883a 	add	r4,r4,r4
10007680:	9909883a 	add	r4,r19,r4
10007684:	24000117 	ldw	r16,4(r4)
10007688:	213ffe04 	addi	r4,r4,-8
1000768c:	24009726 	beq	r4,r16,100078ec <_malloc_r+0x2f4>
10007690:	80800117 	ldw	r2,4(r16)
10007694:	01bfff04 	movi	r6,-4
10007698:	014003c4 	movi	r5,15
1000769c:	1184703a 	and	r2,r2,r6
100076a0:	1447c83a 	sub	r3,r2,r17
100076a4:	28c00716 	blt	r5,r3,100076c4 <_malloc_r+0xcc>
100076a8:	1800920e 	bge	r3,zero,100078f4 <_malloc_r+0x2fc>
100076ac:	84000317 	ldw	r16,12(r16)
100076b0:	24008e26 	beq	r4,r16,100078ec <_malloc_r+0x2f4>
100076b4:	80800117 	ldw	r2,4(r16)
100076b8:	1184703a 	and	r2,r2,r6
100076bc:	1447c83a 	sub	r3,r2,r17
100076c0:	28fff90e 	bge	r5,r3,100076a8 <__alt_data_end+0xf80076a8>
100076c4:	3809883a 	mov	r4,r7
100076c8:	01840074 	movhi	r6,4097
100076cc:	9c000417 	ldw	r16,16(r19)
100076d0:	318a6504 	addi	r6,r6,10644
100076d4:	32000204 	addi	r8,r6,8
100076d8:	82013426 	beq	r16,r8,10007bac <_malloc_r+0x5b4>
100076dc:	80c00117 	ldw	r3,4(r16)
100076e0:	00bfff04 	movi	r2,-4
100076e4:	188e703a 	and	r7,r3,r2
100076e8:	3c45c83a 	sub	r2,r7,r17
100076ec:	00c003c4 	movi	r3,15
100076f0:	18811f16 	blt	r3,r2,10007b70 <_malloc_r+0x578>
100076f4:	32000515 	stw	r8,20(r6)
100076f8:	32000415 	stw	r8,16(r6)
100076fc:	10007f0e 	bge	r2,zero,100078fc <_malloc_r+0x304>
10007700:	00807fc4 	movi	r2,511
10007704:	11c0fd36 	bltu	r2,r7,10007afc <_malloc_r+0x504>
10007708:	3806d0fa 	srli	r3,r7,3
1000770c:	01c00044 	movi	r7,1
10007710:	30800117 	ldw	r2,4(r6)
10007714:	19400044 	addi	r5,r3,1
10007718:	294b883a 	add	r5,r5,r5
1000771c:	1807d0ba 	srai	r3,r3,2
10007720:	294b883a 	add	r5,r5,r5
10007724:	294b883a 	add	r5,r5,r5
10007728:	298b883a 	add	r5,r5,r6
1000772c:	38c6983a 	sll	r3,r7,r3
10007730:	29c00017 	ldw	r7,0(r5)
10007734:	2a7ffe04 	addi	r9,r5,-8
10007738:	1886b03a 	or	r3,r3,r2
1000773c:	82400315 	stw	r9,12(r16)
10007740:	81c00215 	stw	r7,8(r16)
10007744:	30c00115 	stw	r3,4(r6)
10007748:	2c000015 	stw	r16,0(r5)
1000774c:	3c000315 	stw	r16,12(r7)
10007750:	2005d0ba 	srai	r2,r4,2
10007754:	01400044 	movi	r5,1
10007758:	288a983a 	sll	r5,r5,r2
1000775c:	19406f36 	bltu	r3,r5,1000791c <_malloc_r+0x324>
10007760:	28c4703a 	and	r2,r5,r3
10007764:	10000a1e 	bne	r2,zero,10007790 <_malloc_r+0x198>
10007768:	00bfff04 	movi	r2,-4
1000776c:	294b883a 	add	r5,r5,r5
10007770:	2088703a 	and	r4,r4,r2
10007774:	28c4703a 	and	r2,r5,r3
10007778:	21000104 	addi	r4,r4,4
1000777c:	1000041e 	bne	r2,zero,10007790 <_malloc_r+0x198>
10007780:	294b883a 	add	r5,r5,r5
10007784:	28c4703a 	and	r2,r5,r3
10007788:	21000104 	addi	r4,r4,4
1000778c:	103ffc26 	beq	r2,zero,10007780 <__alt_data_end+0xf8007780>
10007790:	02bfff04 	movi	r10,-4
10007794:	024003c4 	movi	r9,15
10007798:	21800044 	addi	r6,r4,1
1000779c:	318d883a 	add	r6,r6,r6
100077a0:	318d883a 	add	r6,r6,r6
100077a4:	318d883a 	add	r6,r6,r6
100077a8:	998d883a 	add	r6,r19,r6
100077ac:	333ffe04 	addi	r12,r6,-8
100077b0:	2017883a 	mov	r11,r4
100077b4:	31800104 	addi	r6,r6,4
100077b8:	34000017 	ldw	r16,0(r6)
100077bc:	31fffd04 	addi	r7,r6,-12
100077c0:	81c0041e 	bne	r16,r7,100077d4 <_malloc_r+0x1dc>
100077c4:	0000fb06 	br	10007bb4 <_malloc_r+0x5bc>
100077c8:	1801030e 	bge	r3,zero,10007bd8 <_malloc_r+0x5e0>
100077cc:	84000317 	ldw	r16,12(r16)
100077d0:	81c0f826 	beq	r16,r7,10007bb4 <_malloc_r+0x5bc>
100077d4:	80800117 	ldw	r2,4(r16)
100077d8:	1284703a 	and	r2,r2,r10
100077dc:	1447c83a 	sub	r3,r2,r17
100077e0:	48fff90e 	bge	r9,r3,100077c8 <__alt_data_end+0xf80077c8>
100077e4:	80800317 	ldw	r2,12(r16)
100077e8:	81000217 	ldw	r4,8(r16)
100077ec:	89400054 	ori	r5,r17,1
100077f0:	81400115 	stw	r5,4(r16)
100077f4:	20800315 	stw	r2,12(r4)
100077f8:	11000215 	stw	r4,8(r2)
100077fc:	8463883a 	add	r17,r16,r17
10007800:	9c400515 	stw	r17,20(r19)
10007804:	9c400415 	stw	r17,16(r19)
10007808:	18800054 	ori	r2,r3,1
1000780c:	88800115 	stw	r2,4(r17)
10007810:	8a000315 	stw	r8,12(r17)
10007814:	8a000215 	stw	r8,8(r17)
10007818:	88e3883a 	add	r17,r17,r3
1000781c:	88c00015 	stw	r3,0(r17)
10007820:	9009883a 	mov	r4,r18
10007824:	000f7f40 	call	1000f7f4 <__malloc_unlock>
10007828:	80800204 	addi	r2,r16,8
1000782c:	00001b06 	br	1000789c <_malloc_r+0x2a4>
10007830:	04400404 	movi	r17,16
10007834:	89402536 	bltu	r17,r5,100078cc <_malloc_r+0x2d4>
10007838:	000f7d00 	call	1000f7d0 <__malloc_lock>
1000783c:	00800184 	movi	r2,6
10007840:	01000084 	movi	r4,2
10007844:	04c40074 	movhi	r19,4097
10007848:	1085883a 	add	r2,r2,r2
1000784c:	9cca6504 	addi	r19,r19,10644
10007850:	1085883a 	add	r2,r2,r2
10007854:	9885883a 	add	r2,r19,r2
10007858:	14000117 	ldw	r16,4(r2)
1000785c:	10fffe04 	addi	r3,r2,-8
10007860:	80c0d926 	beq	r16,r3,10007bc8 <_malloc_r+0x5d0>
10007864:	80c00117 	ldw	r3,4(r16)
10007868:	81000317 	ldw	r4,12(r16)
1000786c:	00bfff04 	movi	r2,-4
10007870:	1884703a 	and	r2,r3,r2
10007874:	81400217 	ldw	r5,8(r16)
10007878:	8085883a 	add	r2,r16,r2
1000787c:	10c00117 	ldw	r3,4(r2)
10007880:	29000315 	stw	r4,12(r5)
10007884:	21400215 	stw	r5,8(r4)
10007888:	18c00054 	ori	r3,r3,1
1000788c:	10c00115 	stw	r3,4(r2)
10007890:	9009883a 	mov	r4,r18
10007894:	000f7f40 	call	1000f7f4 <__malloc_unlock>
10007898:	80800204 	addi	r2,r16,8
1000789c:	dfc00a17 	ldw	ra,40(sp)
100078a0:	df000917 	ldw	fp,36(sp)
100078a4:	ddc00817 	ldw	r23,32(sp)
100078a8:	dd800717 	ldw	r22,28(sp)
100078ac:	dd400617 	ldw	r21,24(sp)
100078b0:	dd000517 	ldw	r20,20(sp)
100078b4:	dcc00417 	ldw	r19,16(sp)
100078b8:	dc800317 	ldw	r18,12(sp)
100078bc:	dc400217 	ldw	r17,8(sp)
100078c0:	dc000117 	ldw	r16,4(sp)
100078c4:	dec00b04 	addi	sp,sp,44
100078c8:	f800283a 	ret
100078cc:	00800304 	movi	r2,12
100078d0:	90800015 	stw	r2,0(r18)
100078d4:	0005883a 	mov	r2,zero
100078d8:	003ff006 	br	1000789c <__alt_data_end+0xf800789c>
100078dc:	01002004 	movi	r4,128
100078e0:	02001004 	movi	r8,64
100078e4:	01c00fc4 	movi	r7,63
100078e8:	003f6106 	br	10007670 <__alt_data_end+0xf8007670>
100078ec:	4009883a 	mov	r4,r8
100078f0:	003f7506 	br	100076c8 <__alt_data_end+0xf80076c8>
100078f4:	81000317 	ldw	r4,12(r16)
100078f8:	003fde06 	br	10007874 <__alt_data_end+0xf8007874>
100078fc:	81c5883a 	add	r2,r16,r7
10007900:	11400117 	ldw	r5,4(r2)
10007904:	9009883a 	mov	r4,r18
10007908:	29400054 	ori	r5,r5,1
1000790c:	11400115 	stw	r5,4(r2)
10007910:	000f7f40 	call	1000f7f4 <__malloc_unlock>
10007914:	80800204 	addi	r2,r16,8
10007918:	003fe006 	br	1000789c <__alt_data_end+0xf800789c>
1000791c:	9c000217 	ldw	r16,8(r19)
10007920:	00bfff04 	movi	r2,-4
10007924:	85800117 	ldw	r22,4(r16)
10007928:	b0ac703a 	and	r22,r22,r2
1000792c:	b4400336 	bltu	r22,r17,1000793c <_malloc_r+0x344>
10007930:	b445c83a 	sub	r2,r22,r17
10007934:	00c003c4 	movi	r3,15
10007938:	18805d16 	blt	r3,r2,10007ab0 <_malloc_r+0x4b8>
1000793c:	05c40074 	movhi	r23,4097
10007940:	00840074 	movhi	r2,4097
10007944:	1096ba04 	addi	r2,r2,23272
10007948:	bdcfec04 	addi	r23,r23,16304
1000794c:	15400017 	ldw	r21,0(r2)
10007950:	b8c00017 	ldw	r3,0(r23)
10007954:	00bfffc4 	movi	r2,-1
10007958:	858d883a 	add	r6,r16,r22
1000795c:	8d6b883a 	add	r21,r17,r21
10007960:	1880ea26 	beq	r3,r2,10007d0c <_malloc_r+0x714>
10007964:	ad4403c4 	addi	r21,r21,4111
10007968:	00bc0004 	movi	r2,-4096
1000796c:	a8aa703a 	and	r21,r21,r2
10007970:	a80b883a 	mov	r5,r21
10007974:	9009883a 	mov	r4,r18
10007978:	d9800015 	stw	r6,0(sp)
1000797c:	00099440 	call	10009944 <_sbrk_r>
10007980:	1029883a 	mov	r20,r2
10007984:	00bfffc4 	movi	r2,-1
10007988:	d9800017 	ldw	r6,0(sp)
1000798c:	a080e826 	beq	r20,r2,10007d30 <_malloc_r+0x738>
10007990:	a180a636 	bltu	r20,r6,10007c2c <_malloc_r+0x634>
10007994:	07040074 	movhi	fp,4097
10007998:	e716c304 	addi	fp,fp,23308
1000799c:	e0800017 	ldw	r2,0(fp)
100079a0:	a887883a 	add	r3,r21,r2
100079a4:	e0c00015 	stw	r3,0(fp)
100079a8:	3500e626 	beq	r6,r20,10007d44 <_malloc_r+0x74c>
100079ac:	b9000017 	ldw	r4,0(r23)
100079b0:	00bfffc4 	movi	r2,-1
100079b4:	2080ee26 	beq	r4,r2,10007d70 <_malloc_r+0x778>
100079b8:	a185c83a 	sub	r2,r20,r6
100079bc:	10c5883a 	add	r2,r2,r3
100079c0:	e0800015 	stw	r2,0(fp)
100079c4:	a0c001cc 	andi	r3,r20,7
100079c8:	1800bc26 	beq	r3,zero,10007cbc <_malloc_r+0x6c4>
100079cc:	a0e9c83a 	sub	r20,r20,r3
100079d0:	00840204 	movi	r2,4104
100079d4:	a5000204 	addi	r20,r20,8
100079d8:	10c7c83a 	sub	r3,r2,r3
100079dc:	a545883a 	add	r2,r20,r21
100079e0:	1083ffcc 	andi	r2,r2,4095
100079e4:	18abc83a 	sub	r21,r3,r2
100079e8:	a80b883a 	mov	r5,r21
100079ec:	9009883a 	mov	r4,r18
100079f0:	00099440 	call	10009944 <_sbrk_r>
100079f4:	00ffffc4 	movi	r3,-1
100079f8:	10c0e126 	beq	r2,r3,10007d80 <_malloc_r+0x788>
100079fc:	1505c83a 	sub	r2,r2,r20
10007a00:	1545883a 	add	r2,r2,r21
10007a04:	10800054 	ori	r2,r2,1
10007a08:	e0c00017 	ldw	r3,0(fp)
10007a0c:	9d000215 	stw	r20,8(r19)
10007a10:	a0800115 	stw	r2,4(r20)
10007a14:	a8c7883a 	add	r3,r21,r3
10007a18:	e0c00015 	stw	r3,0(fp)
10007a1c:	84c00e26 	beq	r16,r19,10007a58 <_malloc_r+0x460>
10007a20:	018003c4 	movi	r6,15
10007a24:	3580a72e 	bgeu	r6,r22,10007cc4 <_malloc_r+0x6cc>
10007a28:	81400117 	ldw	r5,4(r16)
10007a2c:	013ffe04 	movi	r4,-8
10007a30:	b0bffd04 	addi	r2,r22,-12
10007a34:	1104703a 	and	r2,r2,r4
10007a38:	2900004c 	andi	r4,r5,1
10007a3c:	2088b03a 	or	r4,r4,r2
10007a40:	81000115 	stw	r4,4(r16)
10007a44:	01400144 	movi	r5,5
10007a48:	8089883a 	add	r4,r16,r2
10007a4c:	21400115 	stw	r5,4(r4)
10007a50:	21400215 	stw	r5,8(r4)
10007a54:	3080cd36 	bltu	r6,r2,10007d8c <_malloc_r+0x794>
10007a58:	00840074 	movhi	r2,4097
10007a5c:	1096b904 	addi	r2,r2,23268
10007a60:	11000017 	ldw	r4,0(r2)
10007a64:	20c0012e 	bgeu	r4,r3,10007a6c <_malloc_r+0x474>
10007a68:	10c00015 	stw	r3,0(r2)
10007a6c:	00840074 	movhi	r2,4097
10007a70:	1096b804 	addi	r2,r2,23264
10007a74:	11000017 	ldw	r4,0(r2)
10007a78:	9c000217 	ldw	r16,8(r19)
10007a7c:	20c0012e 	bgeu	r4,r3,10007a84 <_malloc_r+0x48c>
10007a80:	10c00015 	stw	r3,0(r2)
10007a84:	80c00117 	ldw	r3,4(r16)
10007a88:	00bfff04 	movi	r2,-4
10007a8c:	1886703a 	and	r3,r3,r2
10007a90:	1c45c83a 	sub	r2,r3,r17
10007a94:	1c400236 	bltu	r3,r17,10007aa0 <_malloc_r+0x4a8>
10007a98:	00c003c4 	movi	r3,15
10007a9c:	18800416 	blt	r3,r2,10007ab0 <_malloc_r+0x4b8>
10007aa0:	9009883a 	mov	r4,r18
10007aa4:	000f7f40 	call	1000f7f4 <__malloc_unlock>
10007aa8:	0005883a 	mov	r2,zero
10007aac:	003f7b06 	br	1000789c <__alt_data_end+0xf800789c>
10007ab0:	88c00054 	ori	r3,r17,1
10007ab4:	80c00115 	stw	r3,4(r16)
10007ab8:	8463883a 	add	r17,r16,r17
10007abc:	10800054 	ori	r2,r2,1
10007ac0:	9c400215 	stw	r17,8(r19)
10007ac4:	88800115 	stw	r2,4(r17)
10007ac8:	9009883a 	mov	r4,r18
10007acc:	000f7f40 	call	1000f7f4 <__malloc_unlock>
10007ad0:	80800204 	addi	r2,r16,8
10007ad4:	003f7106 	br	1000789c <__alt_data_end+0xf800789c>
10007ad8:	00c00504 	movi	r3,20
10007adc:	18804a2e 	bgeu	r3,r2,10007c08 <_malloc_r+0x610>
10007ae0:	00c01504 	movi	r3,84
10007ae4:	18806e36 	bltu	r3,r2,10007ca0 <_malloc_r+0x6a8>
10007ae8:	8804d33a 	srli	r2,r17,12
10007aec:	12001bc4 	addi	r8,r2,111
10007af0:	11c01b84 	addi	r7,r2,110
10007af4:	4209883a 	add	r4,r8,r8
10007af8:	003edd06 	br	10007670 <__alt_data_end+0xf8007670>
10007afc:	3804d27a 	srli	r2,r7,9
10007b00:	00c00104 	movi	r3,4
10007b04:	1880442e 	bgeu	r3,r2,10007c18 <_malloc_r+0x620>
10007b08:	00c00504 	movi	r3,20
10007b0c:	18808136 	bltu	r3,r2,10007d14 <_malloc_r+0x71c>
10007b10:	11401704 	addi	r5,r2,92
10007b14:	10c016c4 	addi	r3,r2,91
10007b18:	294b883a 	add	r5,r5,r5
10007b1c:	294b883a 	add	r5,r5,r5
10007b20:	294b883a 	add	r5,r5,r5
10007b24:	994b883a 	add	r5,r19,r5
10007b28:	28800017 	ldw	r2,0(r5)
10007b2c:	01840074 	movhi	r6,4097
10007b30:	297ffe04 	addi	r5,r5,-8
10007b34:	318a6504 	addi	r6,r6,10644
10007b38:	28806526 	beq	r5,r2,10007cd0 <_malloc_r+0x6d8>
10007b3c:	01bfff04 	movi	r6,-4
10007b40:	10c00117 	ldw	r3,4(r2)
10007b44:	1986703a 	and	r3,r3,r6
10007b48:	38c0022e 	bgeu	r7,r3,10007b54 <_malloc_r+0x55c>
10007b4c:	10800217 	ldw	r2,8(r2)
10007b50:	28bffb1e 	bne	r5,r2,10007b40 <__alt_data_end+0xf8007b40>
10007b54:	11400317 	ldw	r5,12(r2)
10007b58:	98c00117 	ldw	r3,4(r19)
10007b5c:	81400315 	stw	r5,12(r16)
10007b60:	80800215 	stw	r2,8(r16)
10007b64:	2c000215 	stw	r16,8(r5)
10007b68:	14000315 	stw	r16,12(r2)
10007b6c:	003ef806 	br	10007750 <__alt_data_end+0xf8007750>
10007b70:	88c00054 	ori	r3,r17,1
10007b74:	80c00115 	stw	r3,4(r16)
10007b78:	8463883a 	add	r17,r16,r17
10007b7c:	34400515 	stw	r17,20(r6)
10007b80:	34400415 	stw	r17,16(r6)
10007b84:	10c00054 	ori	r3,r2,1
10007b88:	8a000315 	stw	r8,12(r17)
10007b8c:	8a000215 	stw	r8,8(r17)
10007b90:	88c00115 	stw	r3,4(r17)
10007b94:	88a3883a 	add	r17,r17,r2
10007b98:	88800015 	stw	r2,0(r17)
10007b9c:	9009883a 	mov	r4,r18
10007ba0:	000f7f40 	call	1000f7f4 <__malloc_unlock>
10007ba4:	80800204 	addi	r2,r16,8
10007ba8:	003f3c06 	br	1000789c <__alt_data_end+0xf800789c>
10007bac:	30c00117 	ldw	r3,4(r6)
10007bb0:	003ee706 	br	10007750 <__alt_data_end+0xf8007750>
10007bb4:	5ac00044 	addi	r11,r11,1
10007bb8:	588000cc 	andi	r2,r11,3
10007bbc:	31800204 	addi	r6,r6,8
10007bc0:	103efd1e 	bne	r2,zero,100077b8 <__alt_data_end+0xf80077b8>
10007bc4:	00002406 	br	10007c58 <_malloc_r+0x660>
10007bc8:	14000317 	ldw	r16,12(r2)
10007bcc:	143f251e 	bne	r2,r16,10007864 <__alt_data_end+0xf8007864>
10007bd0:	21000084 	addi	r4,r4,2
10007bd4:	003ebc06 	br	100076c8 <__alt_data_end+0xf80076c8>
10007bd8:	8085883a 	add	r2,r16,r2
10007bdc:	10c00117 	ldw	r3,4(r2)
10007be0:	81000317 	ldw	r4,12(r16)
10007be4:	81400217 	ldw	r5,8(r16)
10007be8:	18c00054 	ori	r3,r3,1
10007bec:	10c00115 	stw	r3,4(r2)
10007bf0:	29000315 	stw	r4,12(r5)
10007bf4:	21400215 	stw	r5,8(r4)
10007bf8:	9009883a 	mov	r4,r18
10007bfc:	000f7f40 	call	1000f7f4 <__malloc_unlock>
10007c00:	80800204 	addi	r2,r16,8
10007c04:	003f2506 	br	1000789c <__alt_data_end+0xf800789c>
10007c08:	12001704 	addi	r8,r2,92
10007c0c:	11c016c4 	addi	r7,r2,91
10007c10:	4209883a 	add	r4,r8,r8
10007c14:	003e9606 	br	10007670 <__alt_data_end+0xf8007670>
10007c18:	3804d1ba 	srli	r2,r7,6
10007c1c:	11400e44 	addi	r5,r2,57
10007c20:	10c00e04 	addi	r3,r2,56
10007c24:	294b883a 	add	r5,r5,r5
10007c28:	003fbc06 	br	10007b1c <__alt_data_end+0xf8007b1c>
10007c2c:	84ff5926 	beq	r16,r19,10007994 <__alt_data_end+0xf8007994>
10007c30:	00840074 	movhi	r2,4097
10007c34:	108a6504 	addi	r2,r2,10644
10007c38:	14000217 	ldw	r16,8(r2)
10007c3c:	00bfff04 	movi	r2,-4
10007c40:	80c00117 	ldw	r3,4(r16)
10007c44:	1886703a 	and	r3,r3,r2
10007c48:	003f9106 	br	10007a90 <__alt_data_end+0xf8007a90>
10007c4c:	60800217 	ldw	r2,8(r12)
10007c50:	213fffc4 	addi	r4,r4,-1
10007c54:	1300651e 	bne	r2,r12,10007dec <_malloc_r+0x7f4>
10007c58:	208000cc 	andi	r2,r4,3
10007c5c:	633ffe04 	addi	r12,r12,-8
10007c60:	103ffa1e 	bne	r2,zero,10007c4c <__alt_data_end+0xf8007c4c>
10007c64:	98800117 	ldw	r2,4(r19)
10007c68:	0146303a 	nor	r3,zero,r5
10007c6c:	1884703a 	and	r2,r3,r2
10007c70:	98800115 	stw	r2,4(r19)
10007c74:	294b883a 	add	r5,r5,r5
10007c78:	117f2836 	bltu	r2,r5,1000791c <__alt_data_end+0xf800791c>
10007c7c:	283f2726 	beq	r5,zero,1000791c <__alt_data_end+0xf800791c>
10007c80:	2886703a 	and	r3,r5,r2
10007c84:	5809883a 	mov	r4,r11
10007c88:	183ec31e 	bne	r3,zero,10007798 <__alt_data_end+0xf8007798>
10007c8c:	294b883a 	add	r5,r5,r5
10007c90:	2886703a 	and	r3,r5,r2
10007c94:	21000104 	addi	r4,r4,4
10007c98:	183ffc26 	beq	r3,zero,10007c8c <__alt_data_end+0xf8007c8c>
10007c9c:	003ebe06 	br	10007798 <__alt_data_end+0xf8007798>
10007ca0:	00c05504 	movi	r3,340
10007ca4:	18801236 	bltu	r3,r2,10007cf0 <_malloc_r+0x6f8>
10007ca8:	8804d3fa 	srli	r2,r17,15
10007cac:	12001e04 	addi	r8,r2,120
10007cb0:	11c01dc4 	addi	r7,r2,119
10007cb4:	4209883a 	add	r4,r8,r8
10007cb8:	003e6d06 	br	10007670 <__alt_data_end+0xf8007670>
10007cbc:	00c40004 	movi	r3,4096
10007cc0:	003f4606 	br	100079dc <__alt_data_end+0xf80079dc>
10007cc4:	00800044 	movi	r2,1
10007cc8:	a0800115 	stw	r2,4(r20)
10007ccc:	003f7406 	br	10007aa0 <__alt_data_end+0xf8007aa0>
10007cd0:	1805d0ba 	srai	r2,r3,2
10007cd4:	01c00044 	movi	r7,1
10007cd8:	30c00117 	ldw	r3,4(r6)
10007cdc:	388e983a 	sll	r7,r7,r2
10007ce0:	2805883a 	mov	r2,r5
10007ce4:	38c6b03a 	or	r3,r7,r3
10007ce8:	30c00115 	stw	r3,4(r6)
10007cec:	003f9b06 	br	10007b5c <__alt_data_end+0xf8007b5c>
10007cf0:	00c15504 	movi	r3,1364
10007cf4:	18801a36 	bltu	r3,r2,10007d60 <_malloc_r+0x768>
10007cf8:	8804d4ba 	srli	r2,r17,18
10007cfc:	12001f44 	addi	r8,r2,125
10007d00:	11c01f04 	addi	r7,r2,124
10007d04:	4209883a 	add	r4,r8,r8
10007d08:	003e5906 	br	10007670 <__alt_data_end+0xf8007670>
10007d0c:	ad400404 	addi	r21,r21,16
10007d10:	003f1706 	br	10007970 <__alt_data_end+0xf8007970>
10007d14:	00c01504 	movi	r3,84
10007d18:	18802336 	bltu	r3,r2,10007da8 <_malloc_r+0x7b0>
10007d1c:	3804d33a 	srli	r2,r7,12
10007d20:	11401bc4 	addi	r5,r2,111
10007d24:	10c01b84 	addi	r3,r2,110
10007d28:	294b883a 	add	r5,r5,r5
10007d2c:	003f7b06 	br	10007b1c <__alt_data_end+0xf8007b1c>
10007d30:	9c000217 	ldw	r16,8(r19)
10007d34:	00bfff04 	movi	r2,-4
10007d38:	80c00117 	ldw	r3,4(r16)
10007d3c:	1886703a 	and	r3,r3,r2
10007d40:	003f5306 	br	10007a90 <__alt_data_end+0xf8007a90>
10007d44:	3083ffcc 	andi	r2,r6,4095
10007d48:	103f181e 	bne	r2,zero,100079ac <__alt_data_end+0xf80079ac>
10007d4c:	99000217 	ldw	r4,8(r19)
10007d50:	b545883a 	add	r2,r22,r21
10007d54:	10800054 	ori	r2,r2,1
10007d58:	20800115 	stw	r2,4(r4)
10007d5c:	003f3e06 	br	10007a58 <__alt_data_end+0xf8007a58>
10007d60:	01003f84 	movi	r4,254
10007d64:	02001fc4 	movi	r8,127
10007d68:	01c01f84 	movi	r7,126
10007d6c:	003e4006 	br	10007670 <__alt_data_end+0xf8007670>
10007d70:	00840074 	movhi	r2,4097
10007d74:	108fec04 	addi	r2,r2,16304
10007d78:	15000015 	stw	r20,0(r2)
10007d7c:	003f1106 	br	100079c4 <__alt_data_end+0xf80079c4>
10007d80:	00800044 	movi	r2,1
10007d84:	002b883a 	mov	r21,zero
10007d88:	003f1f06 	br	10007a08 <__alt_data_end+0xf8007a08>
10007d8c:	81400204 	addi	r5,r16,8
10007d90:	9009883a 	mov	r4,r18
10007d94:	0006a000 	call	10006a00 <_free_r>
10007d98:	00840074 	movhi	r2,4097
10007d9c:	1096c304 	addi	r2,r2,23308
10007da0:	10c00017 	ldw	r3,0(r2)
10007da4:	003f2c06 	br	10007a58 <__alt_data_end+0xf8007a58>
10007da8:	00c05504 	movi	r3,340
10007dac:	18800536 	bltu	r3,r2,10007dc4 <_malloc_r+0x7cc>
10007db0:	3804d3fa 	srli	r2,r7,15
10007db4:	11401e04 	addi	r5,r2,120
10007db8:	10c01dc4 	addi	r3,r2,119
10007dbc:	294b883a 	add	r5,r5,r5
10007dc0:	003f5606 	br	10007b1c <__alt_data_end+0xf8007b1c>
10007dc4:	00c15504 	movi	r3,1364
10007dc8:	18800536 	bltu	r3,r2,10007de0 <_malloc_r+0x7e8>
10007dcc:	3804d4ba 	srli	r2,r7,18
10007dd0:	11401f44 	addi	r5,r2,125
10007dd4:	10c01f04 	addi	r3,r2,124
10007dd8:	294b883a 	add	r5,r5,r5
10007ddc:	003f4f06 	br	10007b1c <__alt_data_end+0xf8007b1c>
10007de0:	01403f84 	movi	r5,254
10007de4:	00c01f84 	movi	r3,126
10007de8:	003f4c06 	br	10007b1c <__alt_data_end+0xf8007b1c>
10007dec:	98800117 	ldw	r2,4(r19)
10007df0:	003fa006 	br	10007c74 <__alt_data_end+0xf8007c74>
10007df4:	8808d0fa 	srli	r4,r17,3
10007df8:	20800044 	addi	r2,r4,1
10007dfc:	1085883a 	add	r2,r2,r2
10007e00:	003e9006 	br	10007844 <__alt_data_end+0xf8007844>

10007e04 <memchr>:
10007e04:	208000cc 	andi	r2,r4,3
10007e08:	280f883a 	mov	r7,r5
10007e0c:	10003426 	beq	r2,zero,10007ee0 <memchr+0xdc>
10007e10:	30bfffc4 	addi	r2,r6,-1
10007e14:	30001a26 	beq	r6,zero,10007e80 <memchr+0x7c>
10007e18:	20c00003 	ldbu	r3,0(r4)
10007e1c:	29803fcc 	andi	r6,r5,255
10007e20:	30c0051e 	bne	r6,r3,10007e38 <memchr+0x34>
10007e24:	00001806 	br	10007e88 <memchr+0x84>
10007e28:	10001526 	beq	r2,zero,10007e80 <memchr+0x7c>
10007e2c:	20c00003 	ldbu	r3,0(r4)
10007e30:	10bfffc4 	addi	r2,r2,-1
10007e34:	30c01426 	beq	r6,r3,10007e88 <memchr+0x84>
10007e38:	21000044 	addi	r4,r4,1
10007e3c:	20c000cc 	andi	r3,r4,3
10007e40:	183ff91e 	bne	r3,zero,10007e28 <__alt_data_end+0xf8007e28>
10007e44:	020000c4 	movi	r8,3
10007e48:	40801136 	bltu	r8,r2,10007e90 <memchr+0x8c>
10007e4c:	10000c26 	beq	r2,zero,10007e80 <memchr+0x7c>
10007e50:	20c00003 	ldbu	r3,0(r4)
10007e54:	29403fcc 	andi	r5,r5,255
10007e58:	28c00b26 	beq	r5,r3,10007e88 <memchr+0x84>
10007e5c:	20c00044 	addi	r3,r4,1
10007e60:	39803fcc 	andi	r6,r7,255
10007e64:	2089883a 	add	r4,r4,r2
10007e68:	00000306 	br	10007e78 <memchr+0x74>
10007e6c:	18c00044 	addi	r3,r3,1
10007e70:	197fffc3 	ldbu	r5,-1(r3)
10007e74:	31400526 	beq	r6,r5,10007e8c <memchr+0x88>
10007e78:	1805883a 	mov	r2,r3
10007e7c:	20fffb1e 	bne	r4,r3,10007e6c <__alt_data_end+0xf8007e6c>
10007e80:	0005883a 	mov	r2,zero
10007e84:	f800283a 	ret
10007e88:	2005883a 	mov	r2,r4
10007e8c:	f800283a 	ret
10007e90:	28c03fcc 	andi	r3,r5,255
10007e94:	1812923a 	slli	r9,r3,8
10007e98:	02ffbff4 	movhi	r11,65279
10007e9c:	02a02074 	movhi	r10,32897
10007ea0:	48d2b03a 	or	r9,r9,r3
10007ea4:	4806943a 	slli	r3,r9,16
10007ea8:	5affbfc4 	addi	r11,r11,-257
10007eac:	52a02004 	addi	r10,r10,-32640
10007eb0:	48d2b03a 	or	r9,r9,r3
10007eb4:	20c00017 	ldw	r3,0(r4)
10007eb8:	48c6f03a 	xor	r3,r9,r3
10007ebc:	1acd883a 	add	r6,r3,r11
10007ec0:	00c6303a 	nor	r3,zero,r3
10007ec4:	30c6703a 	and	r3,r6,r3
10007ec8:	1a86703a 	and	r3,r3,r10
10007ecc:	183fe01e 	bne	r3,zero,10007e50 <__alt_data_end+0xf8007e50>
10007ed0:	10bfff04 	addi	r2,r2,-4
10007ed4:	21000104 	addi	r4,r4,4
10007ed8:	40bff636 	bltu	r8,r2,10007eb4 <__alt_data_end+0xf8007eb4>
10007edc:	003fdb06 	br	10007e4c <__alt_data_end+0xf8007e4c>
10007ee0:	3005883a 	mov	r2,r6
10007ee4:	003fd706 	br	10007e44 <__alt_data_end+0xf8007e44>

10007ee8 <memcpy>:
10007ee8:	defffd04 	addi	sp,sp,-12
10007eec:	dfc00215 	stw	ra,8(sp)
10007ef0:	dc400115 	stw	r17,4(sp)
10007ef4:	dc000015 	stw	r16,0(sp)
10007ef8:	00c003c4 	movi	r3,15
10007efc:	2005883a 	mov	r2,r4
10007f00:	1980452e 	bgeu	r3,r6,10008018 <memcpy+0x130>
10007f04:	2906b03a 	or	r3,r5,r4
10007f08:	18c000cc 	andi	r3,r3,3
10007f0c:	1800441e 	bne	r3,zero,10008020 <memcpy+0x138>
10007f10:	347ffc04 	addi	r17,r6,-16
10007f14:	8822d13a 	srli	r17,r17,4
10007f18:	28c00104 	addi	r3,r5,4
10007f1c:	23400104 	addi	r13,r4,4
10007f20:	8820913a 	slli	r16,r17,4
10007f24:	2b000204 	addi	r12,r5,8
10007f28:	22c00204 	addi	r11,r4,8
10007f2c:	84000504 	addi	r16,r16,20
10007f30:	2a800304 	addi	r10,r5,12
10007f34:	22400304 	addi	r9,r4,12
10007f38:	2c21883a 	add	r16,r5,r16
10007f3c:	2811883a 	mov	r8,r5
10007f40:	200f883a 	mov	r7,r4
10007f44:	41000017 	ldw	r4,0(r8)
10007f48:	1fc00017 	ldw	ra,0(r3)
10007f4c:	63c00017 	ldw	r15,0(r12)
10007f50:	39000015 	stw	r4,0(r7)
10007f54:	53800017 	ldw	r14,0(r10)
10007f58:	6fc00015 	stw	ra,0(r13)
10007f5c:	5bc00015 	stw	r15,0(r11)
10007f60:	4b800015 	stw	r14,0(r9)
10007f64:	18c00404 	addi	r3,r3,16
10007f68:	39c00404 	addi	r7,r7,16
10007f6c:	42000404 	addi	r8,r8,16
10007f70:	6b400404 	addi	r13,r13,16
10007f74:	63000404 	addi	r12,r12,16
10007f78:	5ac00404 	addi	r11,r11,16
10007f7c:	52800404 	addi	r10,r10,16
10007f80:	4a400404 	addi	r9,r9,16
10007f84:	1c3fef1e 	bne	r3,r16,10007f44 <__alt_data_end+0xf8007f44>
10007f88:	89c00044 	addi	r7,r17,1
10007f8c:	380e913a 	slli	r7,r7,4
10007f90:	310003cc 	andi	r4,r6,15
10007f94:	02c000c4 	movi	r11,3
10007f98:	11c7883a 	add	r3,r2,r7
10007f9c:	29cb883a 	add	r5,r5,r7
10007fa0:	5900212e 	bgeu	r11,r4,10008028 <memcpy+0x140>
10007fa4:	1813883a 	mov	r9,r3
10007fa8:	2811883a 	mov	r8,r5
10007fac:	200f883a 	mov	r7,r4
10007fb0:	42800017 	ldw	r10,0(r8)
10007fb4:	4a400104 	addi	r9,r9,4
10007fb8:	39ffff04 	addi	r7,r7,-4
10007fbc:	4abfff15 	stw	r10,-4(r9)
10007fc0:	42000104 	addi	r8,r8,4
10007fc4:	59fffa36 	bltu	r11,r7,10007fb0 <__alt_data_end+0xf8007fb0>
10007fc8:	213fff04 	addi	r4,r4,-4
10007fcc:	2008d0ba 	srli	r4,r4,2
10007fd0:	318000cc 	andi	r6,r6,3
10007fd4:	21000044 	addi	r4,r4,1
10007fd8:	2109883a 	add	r4,r4,r4
10007fdc:	2109883a 	add	r4,r4,r4
10007fe0:	1907883a 	add	r3,r3,r4
10007fe4:	290b883a 	add	r5,r5,r4
10007fe8:	30000626 	beq	r6,zero,10008004 <memcpy+0x11c>
10007fec:	198d883a 	add	r6,r3,r6
10007ff0:	29c00003 	ldbu	r7,0(r5)
10007ff4:	18c00044 	addi	r3,r3,1
10007ff8:	29400044 	addi	r5,r5,1
10007ffc:	19ffffc5 	stb	r7,-1(r3)
10008000:	19bffb1e 	bne	r3,r6,10007ff0 <__alt_data_end+0xf8007ff0>
10008004:	dfc00217 	ldw	ra,8(sp)
10008008:	dc400117 	ldw	r17,4(sp)
1000800c:	dc000017 	ldw	r16,0(sp)
10008010:	dec00304 	addi	sp,sp,12
10008014:	f800283a 	ret
10008018:	2007883a 	mov	r3,r4
1000801c:	003ff206 	br	10007fe8 <__alt_data_end+0xf8007fe8>
10008020:	2007883a 	mov	r3,r4
10008024:	003ff106 	br	10007fec <__alt_data_end+0xf8007fec>
10008028:	200d883a 	mov	r6,r4
1000802c:	003fee06 	br	10007fe8 <__alt_data_end+0xf8007fe8>

10008030 <memmove>:
10008030:	2005883a 	mov	r2,r4
10008034:	29000b2e 	bgeu	r5,r4,10008064 <memmove+0x34>
10008038:	298f883a 	add	r7,r5,r6
1000803c:	21c0092e 	bgeu	r4,r7,10008064 <memmove+0x34>
10008040:	2187883a 	add	r3,r4,r6
10008044:	198bc83a 	sub	r5,r3,r6
10008048:	30004826 	beq	r6,zero,1000816c <memmove+0x13c>
1000804c:	39ffffc4 	addi	r7,r7,-1
10008050:	39000003 	ldbu	r4,0(r7)
10008054:	18ffffc4 	addi	r3,r3,-1
10008058:	19000005 	stb	r4,0(r3)
1000805c:	28fffb1e 	bne	r5,r3,1000804c <__alt_data_end+0xf800804c>
10008060:	f800283a 	ret
10008064:	00c003c4 	movi	r3,15
10008068:	1980412e 	bgeu	r3,r6,10008170 <memmove+0x140>
1000806c:	2886b03a 	or	r3,r5,r2
10008070:	18c000cc 	andi	r3,r3,3
10008074:	1800401e 	bne	r3,zero,10008178 <memmove+0x148>
10008078:	33fffc04 	addi	r15,r6,-16
1000807c:	781ed13a 	srli	r15,r15,4
10008080:	28c00104 	addi	r3,r5,4
10008084:	13400104 	addi	r13,r2,4
10008088:	781c913a 	slli	r14,r15,4
1000808c:	2b000204 	addi	r12,r5,8
10008090:	12c00204 	addi	r11,r2,8
10008094:	73800504 	addi	r14,r14,20
10008098:	2a800304 	addi	r10,r5,12
1000809c:	12400304 	addi	r9,r2,12
100080a0:	2b9d883a 	add	r14,r5,r14
100080a4:	2811883a 	mov	r8,r5
100080a8:	100f883a 	mov	r7,r2
100080ac:	41000017 	ldw	r4,0(r8)
100080b0:	39c00404 	addi	r7,r7,16
100080b4:	18c00404 	addi	r3,r3,16
100080b8:	393ffc15 	stw	r4,-16(r7)
100080bc:	193ffc17 	ldw	r4,-16(r3)
100080c0:	6b400404 	addi	r13,r13,16
100080c4:	5ac00404 	addi	r11,r11,16
100080c8:	693ffc15 	stw	r4,-16(r13)
100080cc:	61000017 	ldw	r4,0(r12)
100080d0:	4a400404 	addi	r9,r9,16
100080d4:	42000404 	addi	r8,r8,16
100080d8:	593ffc15 	stw	r4,-16(r11)
100080dc:	51000017 	ldw	r4,0(r10)
100080e0:	63000404 	addi	r12,r12,16
100080e4:	52800404 	addi	r10,r10,16
100080e8:	493ffc15 	stw	r4,-16(r9)
100080ec:	1bbfef1e 	bne	r3,r14,100080ac <__alt_data_end+0xf80080ac>
100080f0:	79000044 	addi	r4,r15,1
100080f4:	2008913a 	slli	r4,r4,4
100080f8:	328003cc 	andi	r10,r6,15
100080fc:	02c000c4 	movi	r11,3
10008100:	1107883a 	add	r3,r2,r4
10008104:	290b883a 	add	r5,r5,r4
10008108:	5a801e2e 	bgeu	r11,r10,10008184 <memmove+0x154>
1000810c:	1813883a 	mov	r9,r3
10008110:	2811883a 	mov	r8,r5
10008114:	500f883a 	mov	r7,r10
10008118:	41000017 	ldw	r4,0(r8)
1000811c:	4a400104 	addi	r9,r9,4
10008120:	39ffff04 	addi	r7,r7,-4
10008124:	493fff15 	stw	r4,-4(r9)
10008128:	42000104 	addi	r8,r8,4
1000812c:	59fffa36 	bltu	r11,r7,10008118 <__alt_data_end+0xf8008118>
10008130:	513fff04 	addi	r4,r10,-4
10008134:	2008d0ba 	srli	r4,r4,2
10008138:	318000cc 	andi	r6,r6,3
1000813c:	21000044 	addi	r4,r4,1
10008140:	2109883a 	add	r4,r4,r4
10008144:	2109883a 	add	r4,r4,r4
10008148:	1907883a 	add	r3,r3,r4
1000814c:	290b883a 	add	r5,r5,r4
10008150:	30000b26 	beq	r6,zero,10008180 <memmove+0x150>
10008154:	198d883a 	add	r6,r3,r6
10008158:	29c00003 	ldbu	r7,0(r5)
1000815c:	18c00044 	addi	r3,r3,1
10008160:	29400044 	addi	r5,r5,1
10008164:	19ffffc5 	stb	r7,-1(r3)
10008168:	19bffb1e 	bne	r3,r6,10008158 <__alt_data_end+0xf8008158>
1000816c:	f800283a 	ret
10008170:	1007883a 	mov	r3,r2
10008174:	003ff606 	br	10008150 <__alt_data_end+0xf8008150>
10008178:	1007883a 	mov	r3,r2
1000817c:	003ff506 	br	10008154 <__alt_data_end+0xf8008154>
10008180:	f800283a 	ret
10008184:	500d883a 	mov	r6,r10
10008188:	003ff106 	br	10008150 <__alt_data_end+0xf8008150>

1000818c <memset>:
1000818c:	20c000cc 	andi	r3,r4,3
10008190:	2005883a 	mov	r2,r4
10008194:	18004426 	beq	r3,zero,100082a8 <memset+0x11c>
10008198:	31ffffc4 	addi	r7,r6,-1
1000819c:	30004026 	beq	r6,zero,100082a0 <memset+0x114>
100081a0:	2813883a 	mov	r9,r5
100081a4:	200d883a 	mov	r6,r4
100081a8:	2007883a 	mov	r3,r4
100081ac:	00000406 	br	100081c0 <memset+0x34>
100081b0:	3a3fffc4 	addi	r8,r7,-1
100081b4:	31800044 	addi	r6,r6,1
100081b8:	38003926 	beq	r7,zero,100082a0 <memset+0x114>
100081bc:	400f883a 	mov	r7,r8
100081c0:	18c00044 	addi	r3,r3,1
100081c4:	32400005 	stb	r9,0(r6)
100081c8:	1a0000cc 	andi	r8,r3,3
100081cc:	403ff81e 	bne	r8,zero,100081b0 <__alt_data_end+0xf80081b0>
100081d0:	010000c4 	movi	r4,3
100081d4:	21c02d2e 	bgeu	r4,r7,1000828c <memset+0x100>
100081d8:	29003fcc 	andi	r4,r5,255
100081dc:	200c923a 	slli	r6,r4,8
100081e0:	3108b03a 	or	r4,r6,r4
100081e4:	200c943a 	slli	r6,r4,16
100081e8:	218cb03a 	or	r6,r4,r6
100081ec:	010003c4 	movi	r4,15
100081f0:	21c0182e 	bgeu	r4,r7,10008254 <memset+0xc8>
100081f4:	3b3ffc04 	addi	r12,r7,-16
100081f8:	6018d13a 	srli	r12,r12,4
100081fc:	1a000104 	addi	r8,r3,4
10008200:	1ac00204 	addi	r11,r3,8
10008204:	6008913a 	slli	r4,r12,4
10008208:	1a800304 	addi	r10,r3,12
1000820c:	1813883a 	mov	r9,r3
10008210:	21000504 	addi	r4,r4,20
10008214:	1909883a 	add	r4,r3,r4
10008218:	49800015 	stw	r6,0(r9)
1000821c:	41800015 	stw	r6,0(r8)
10008220:	59800015 	stw	r6,0(r11)
10008224:	51800015 	stw	r6,0(r10)
10008228:	42000404 	addi	r8,r8,16
1000822c:	4a400404 	addi	r9,r9,16
10008230:	5ac00404 	addi	r11,r11,16
10008234:	52800404 	addi	r10,r10,16
10008238:	413ff71e 	bne	r8,r4,10008218 <__alt_data_end+0xf8008218>
1000823c:	63000044 	addi	r12,r12,1
10008240:	6018913a 	slli	r12,r12,4
10008244:	39c003cc 	andi	r7,r7,15
10008248:	010000c4 	movi	r4,3
1000824c:	1b07883a 	add	r3,r3,r12
10008250:	21c00e2e 	bgeu	r4,r7,1000828c <memset+0x100>
10008254:	1813883a 	mov	r9,r3
10008258:	3811883a 	mov	r8,r7
1000825c:	010000c4 	movi	r4,3
10008260:	49800015 	stw	r6,0(r9)
10008264:	423fff04 	addi	r8,r8,-4
10008268:	4a400104 	addi	r9,r9,4
1000826c:	223ffc36 	bltu	r4,r8,10008260 <__alt_data_end+0xf8008260>
10008270:	393fff04 	addi	r4,r7,-4
10008274:	2008d0ba 	srli	r4,r4,2
10008278:	39c000cc 	andi	r7,r7,3
1000827c:	21000044 	addi	r4,r4,1
10008280:	2109883a 	add	r4,r4,r4
10008284:	2109883a 	add	r4,r4,r4
10008288:	1907883a 	add	r3,r3,r4
1000828c:	38000526 	beq	r7,zero,100082a4 <memset+0x118>
10008290:	19cf883a 	add	r7,r3,r7
10008294:	19400005 	stb	r5,0(r3)
10008298:	18c00044 	addi	r3,r3,1
1000829c:	38fffd1e 	bne	r7,r3,10008294 <__alt_data_end+0xf8008294>
100082a0:	f800283a 	ret
100082a4:	f800283a 	ret
100082a8:	2007883a 	mov	r3,r4
100082ac:	300f883a 	mov	r7,r6
100082b0:	003fc706 	br	100081d0 <__alt_data_end+0xf80081d0>

100082b4 <_Balloc>:
100082b4:	20801317 	ldw	r2,76(r4)
100082b8:	defffc04 	addi	sp,sp,-16
100082bc:	dc400115 	stw	r17,4(sp)
100082c0:	dc000015 	stw	r16,0(sp)
100082c4:	dfc00315 	stw	ra,12(sp)
100082c8:	dc800215 	stw	r18,8(sp)
100082cc:	2023883a 	mov	r17,r4
100082d0:	2821883a 	mov	r16,r5
100082d4:	10000f26 	beq	r2,zero,10008314 <_Balloc+0x60>
100082d8:	8407883a 	add	r3,r16,r16
100082dc:	18c7883a 	add	r3,r3,r3
100082e0:	10c7883a 	add	r3,r2,r3
100082e4:	18800017 	ldw	r2,0(r3)
100082e8:	10001126 	beq	r2,zero,10008330 <_Balloc+0x7c>
100082ec:	11000017 	ldw	r4,0(r2)
100082f0:	19000015 	stw	r4,0(r3)
100082f4:	10000415 	stw	zero,16(r2)
100082f8:	10000315 	stw	zero,12(r2)
100082fc:	dfc00317 	ldw	ra,12(sp)
10008300:	dc800217 	ldw	r18,8(sp)
10008304:	dc400117 	ldw	r17,4(sp)
10008308:	dc000017 	ldw	r16,0(sp)
1000830c:	dec00404 	addi	sp,sp,16
10008310:	f800283a 	ret
10008314:	01800844 	movi	r6,33
10008318:	01400104 	movi	r5,4
1000831c:	000b35c0 	call	1000b35c <_calloc_r>
10008320:	88801315 	stw	r2,76(r17)
10008324:	103fec1e 	bne	r2,zero,100082d8 <__alt_data_end+0xf80082d8>
10008328:	0005883a 	mov	r2,zero
1000832c:	003ff306 	br	100082fc <__alt_data_end+0xf80082fc>
10008330:	01400044 	movi	r5,1
10008334:	2c24983a 	sll	r18,r5,r16
10008338:	8809883a 	mov	r4,r17
1000833c:	91800144 	addi	r6,r18,5
10008340:	318d883a 	add	r6,r6,r6
10008344:	318d883a 	add	r6,r6,r6
10008348:	000b35c0 	call	1000b35c <_calloc_r>
1000834c:	103ff626 	beq	r2,zero,10008328 <__alt_data_end+0xf8008328>
10008350:	14000115 	stw	r16,4(r2)
10008354:	14800215 	stw	r18,8(r2)
10008358:	003fe606 	br	100082f4 <__alt_data_end+0xf80082f4>

1000835c <_Bfree>:
1000835c:	28000826 	beq	r5,zero,10008380 <_Bfree+0x24>
10008360:	28c00117 	ldw	r3,4(r5)
10008364:	20801317 	ldw	r2,76(r4)
10008368:	18c7883a 	add	r3,r3,r3
1000836c:	18c7883a 	add	r3,r3,r3
10008370:	10c5883a 	add	r2,r2,r3
10008374:	10c00017 	ldw	r3,0(r2)
10008378:	28c00015 	stw	r3,0(r5)
1000837c:	11400015 	stw	r5,0(r2)
10008380:	f800283a 	ret

10008384 <__multadd>:
10008384:	defff704 	addi	sp,sp,-36
10008388:	dc800215 	stw	r18,8(sp)
1000838c:	2c800417 	ldw	r18,16(r5)
10008390:	dd800615 	stw	r22,24(sp)
10008394:	dd400515 	stw	r21,20(sp)
10008398:	dd000415 	stw	r20,16(sp)
1000839c:	dcc00315 	stw	r19,12(sp)
100083a0:	dc400115 	stw	r17,4(sp)
100083a4:	dc000015 	stw	r16,0(sp)
100083a8:	dfc00815 	stw	ra,32(sp)
100083ac:	ddc00715 	stw	r23,28(sp)
100083b0:	2827883a 	mov	r19,r5
100083b4:	2029883a 	mov	r20,r4
100083b8:	3023883a 	mov	r17,r6
100083bc:	3821883a 	mov	r16,r7
100083c0:	2d400504 	addi	r21,r5,20
100083c4:	002d883a 	mov	r22,zero
100083c8:	adc00017 	ldw	r23,0(r21)
100083cc:	880b883a 	mov	r5,r17
100083d0:	ad400104 	addi	r21,r21,4
100083d4:	b93fffcc 	andi	r4,r23,65535
100083d8:	000c9680 	call	1000c968 <__mulsi3>
100083dc:	b808d43a 	srli	r4,r23,16
100083e0:	880b883a 	mov	r5,r17
100083e4:	1421883a 	add	r16,r2,r16
100083e8:	000c9680 	call	1000c968 <__mulsi3>
100083ec:	800ed43a 	srli	r7,r16,16
100083f0:	80ffffcc 	andi	r3,r16,65535
100083f4:	b5800044 	addi	r22,r22,1
100083f8:	11c5883a 	add	r2,r2,r7
100083fc:	100e943a 	slli	r7,r2,16
10008400:	1020d43a 	srli	r16,r2,16
10008404:	38c7883a 	add	r3,r7,r3
10008408:	a8ffff15 	stw	r3,-4(r21)
1000840c:	b4bfee16 	blt	r22,r18,100083c8 <__alt_data_end+0xf80083c8>
10008410:	80000926 	beq	r16,zero,10008438 <__multadd+0xb4>
10008414:	98800217 	ldw	r2,8(r19)
10008418:	9080130e 	bge	r18,r2,10008468 <__multadd+0xe4>
1000841c:	90800144 	addi	r2,r18,5
10008420:	1085883a 	add	r2,r2,r2
10008424:	1085883a 	add	r2,r2,r2
10008428:	9885883a 	add	r2,r19,r2
1000842c:	14000015 	stw	r16,0(r2)
10008430:	94800044 	addi	r18,r18,1
10008434:	9c800415 	stw	r18,16(r19)
10008438:	9805883a 	mov	r2,r19
1000843c:	dfc00817 	ldw	ra,32(sp)
10008440:	ddc00717 	ldw	r23,28(sp)
10008444:	dd800617 	ldw	r22,24(sp)
10008448:	dd400517 	ldw	r21,20(sp)
1000844c:	dd000417 	ldw	r20,16(sp)
10008450:	dcc00317 	ldw	r19,12(sp)
10008454:	dc800217 	ldw	r18,8(sp)
10008458:	dc400117 	ldw	r17,4(sp)
1000845c:	dc000017 	ldw	r16,0(sp)
10008460:	dec00904 	addi	sp,sp,36
10008464:	f800283a 	ret
10008468:	99400117 	ldw	r5,4(r19)
1000846c:	a009883a 	mov	r4,r20
10008470:	29400044 	addi	r5,r5,1
10008474:	00082b40 	call	100082b4 <_Balloc>
10008478:	99800417 	ldw	r6,16(r19)
1000847c:	99400304 	addi	r5,r19,12
10008480:	11000304 	addi	r4,r2,12
10008484:	31800084 	addi	r6,r6,2
10008488:	318d883a 	add	r6,r6,r6
1000848c:	318d883a 	add	r6,r6,r6
10008490:	1023883a 	mov	r17,r2
10008494:	0007ee80 	call	10007ee8 <memcpy>
10008498:	98000a26 	beq	r19,zero,100084c4 <__multadd+0x140>
1000849c:	98c00117 	ldw	r3,4(r19)
100084a0:	a0801317 	ldw	r2,76(r20)
100084a4:	18c7883a 	add	r3,r3,r3
100084a8:	18c7883a 	add	r3,r3,r3
100084ac:	10c5883a 	add	r2,r2,r3
100084b0:	10c00017 	ldw	r3,0(r2)
100084b4:	98c00015 	stw	r3,0(r19)
100084b8:	14c00015 	stw	r19,0(r2)
100084bc:	8827883a 	mov	r19,r17
100084c0:	003fd606 	br	1000841c <__alt_data_end+0xf800841c>
100084c4:	8827883a 	mov	r19,r17
100084c8:	003fd406 	br	1000841c <__alt_data_end+0xf800841c>

100084cc <__s2b>:
100084cc:	defff904 	addi	sp,sp,-28
100084d0:	dc400115 	stw	r17,4(sp)
100084d4:	dc000015 	stw	r16,0(sp)
100084d8:	2023883a 	mov	r17,r4
100084dc:	2821883a 	mov	r16,r5
100084e0:	39000204 	addi	r4,r7,8
100084e4:	01400244 	movi	r5,9
100084e8:	dcc00315 	stw	r19,12(sp)
100084ec:	dc800215 	stw	r18,8(sp)
100084f0:	dfc00615 	stw	ra,24(sp)
100084f4:	dd400515 	stw	r21,20(sp)
100084f8:	dd000415 	stw	r20,16(sp)
100084fc:	3825883a 	mov	r18,r7
10008500:	3027883a 	mov	r19,r6
10008504:	000c7b40 	call	1000c7b4 <__divsi3>
10008508:	00c00044 	movi	r3,1
1000850c:	000b883a 	mov	r5,zero
10008510:	1880030e 	bge	r3,r2,10008520 <__s2b+0x54>
10008514:	18c7883a 	add	r3,r3,r3
10008518:	29400044 	addi	r5,r5,1
1000851c:	18bffd16 	blt	r3,r2,10008514 <__alt_data_end+0xf8008514>
10008520:	8809883a 	mov	r4,r17
10008524:	00082b40 	call	100082b4 <_Balloc>
10008528:	d8c00717 	ldw	r3,28(sp)
1000852c:	10c00515 	stw	r3,20(r2)
10008530:	00c00044 	movi	r3,1
10008534:	10c00415 	stw	r3,16(r2)
10008538:	00c00244 	movi	r3,9
1000853c:	1cc0210e 	bge	r3,r19,100085c4 <__s2b+0xf8>
10008540:	80eb883a 	add	r21,r16,r3
10008544:	a829883a 	mov	r20,r21
10008548:	84e1883a 	add	r16,r16,r19
1000854c:	a1c00007 	ldb	r7,0(r20)
10008550:	01800284 	movi	r6,10
10008554:	a5000044 	addi	r20,r20,1
10008558:	100b883a 	mov	r5,r2
1000855c:	39fff404 	addi	r7,r7,-48
10008560:	8809883a 	mov	r4,r17
10008564:	00083840 	call	10008384 <__multadd>
10008568:	a43ff81e 	bne	r20,r16,1000854c <__alt_data_end+0xf800854c>
1000856c:	ace1883a 	add	r16,r21,r19
10008570:	843ffe04 	addi	r16,r16,-8
10008574:	9c800a0e 	bge	r19,r18,100085a0 <__s2b+0xd4>
10008578:	94e5c83a 	sub	r18,r18,r19
1000857c:	84a5883a 	add	r18,r16,r18
10008580:	81c00007 	ldb	r7,0(r16)
10008584:	01800284 	movi	r6,10
10008588:	84000044 	addi	r16,r16,1
1000858c:	100b883a 	mov	r5,r2
10008590:	39fff404 	addi	r7,r7,-48
10008594:	8809883a 	mov	r4,r17
10008598:	00083840 	call	10008384 <__multadd>
1000859c:	84bff81e 	bne	r16,r18,10008580 <__alt_data_end+0xf8008580>
100085a0:	dfc00617 	ldw	ra,24(sp)
100085a4:	dd400517 	ldw	r21,20(sp)
100085a8:	dd000417 	ldw	r20,16(sp)
100085ac:	dcc00317 	ldw	r19,12(sp)
100085b0:	dc800217 	ldw	r18,8(sp)
100085b4:	dc400117 	ldw	r17,4(sp)
100085b8:	dc000017 	ldw	r16,0(sp)
100085bc:	dec00704 	addi	sp,sp,28
100085c0:	f800283a 	ret
100085c4:	84000284 	addi	r16,r16,10
100085c8:	1827883a 	mov	r19,r3
100085cc:	003fe906 	br	10008574 <__alt_data_end+0xf8008574>

100085d0 <__hi0bits>:
100085d0:	20bfffec 	andhi	r2,r4,65535
100085d4:	1000141e 	bne	r2,zero,10008628 <__hi0bits+0x58>
100085d8:	2008943a 	slli	r4,r4,16
100085dc:	00800404 	movi	r2,16
100085e0:	20ffc02c 	andhi	r3,r4,65280
100085e4:	1800021e 	bne	r3,zero,100085f0 <__hi0bits+0x20>
100085e8:	2008923a 	slli	r4,r4,8
100085ec:	10800204 	addi	r2,r2,8
100085f0:	20fc002c 	andhi	r3,r4,61440
100085f4:	1800021e 	bne	r3,zero,10008600 <__hi0bits+0x30>
100085f8:	2008913a 	slli	r4,r4,4
100085fc:	10800104 	addi	r2,r2,4
10008600:	20f0002c 	andhi	r3,r4,49152
10008604:	1800031e 	bne	r3,zero,10008614 <__hi0bits+0x44>
10008608:	2109883a 	add	r4,r4,r4
1000860c:	10800084 	addi	r2,r2,2
10008610:	2109883a 	add	r4,r4,r4
10008614:	20000316 	blt	r4,zero,10008624 <__hi0bits+0x54>
10008618:	2110002c 	andhi	r4,r4,16384
1000861c:	2000041e 	bne	r4,zero,10008630 <__hi0bits+0x60>
10008620:	00800804 	movi	r2,32
10008624:	f800283a 	ret
10008628:	0005883a 	mov	r2,zero
1000862c:	003fec06 	br	100085e0 <__alt_data_end+0xf80085e0>
10008630:	10800044 	addi	r2,r2,1
10008634:	f800283a 	ret

10008638 <__lo0bits>:
10008638:	20c00017 	ldw	r3,0(r4)
1000863c:	188001cc 	andi	r2,r3,7
10008640:	10000826 	beq	r2,zero,10008664 <__lo0bits+0x2c>
10008644:	1880004c 	andi	r2,r3,1
10008648:	1000211e 	bne	r2,zero,100086d0 <__lo0bits+0x98>
1000864c:	1880008c 	andi	r2,r3,2
10008650:	1000211e 	bne	r2,zero,100086d8 <__lo0bits+0xa0>
10008654:	1806d0ba 	srli	r3,r3,2
10008658:	00800084 	movi	r2,2
1000865c:	20c00015 	stw	r3,0(r4)
10008660:	f800283a 	ret
10008664:	18bfffcc 	andi	r2,r3,65535
10008668:	10001326 	beq	r2,zero,100086b8 <__lo0bits+0x80>
1000866c:	0005883a 	mov	r2,zero
10008670:	19403fcc 	andi	r5,r3,255
10008674:	2800021e 	bne	r5,zero,10008680 <__lo0bits+0x48>
10008678:	1806d23a 	srli	r3,r3,8
1000867c:	10800204 	addi	r2,r2,8
10008680:	194003cc 	andi	r5,r3,15
10008684:	2800021e 	bne	r5,zero,10008690 <__lo0bits+0x58>
10008688:	1806d13a 	srli	r3,r3,4
1000868c:	10800104 	addi	r2,r2,4
10008690:	194000cc 	andi	r5,r3,3
10008694:	2800021e 	bne	r5,zero,100086a0 <__lo0bits+0x68>
10008698:	1806d0ba 	srli	r3,r3,2
1000869c:	10800084 	addi	r2,r2,2
100086a0:	1940004c 	andi	r5,r3,1
100086a4:	2800081e 	bne	r5,zero,100086c8 <__lo0bits+0x90>
100086a8:	1806d07a 	srli	r3,r3,1
100086ac:	1800051e 	bne	r3,zero,100086c4 <__lo0bits+0x8c>
100086b0:	00800804 	movi	r2,32
100086b4:	f800283a 	ret
100086b8:	1806d43a 	srli	r3,r3,16
100086bc:	00800404 	movi	r2,16
100086c0:	003feb06 	br	10008670 <__alt_data_end+0xf8008670>
100086c4:	10800044 	addi	r2,r2,1
100086c8:	20c00015 	stw	r3,0(r4)
100086cc:	f800283a 	ret
100086d0:	0005883a 	mov	r2,zero
100086d4:	f800283a 	ret
100086d8:	1806d07a 	srli	r3,r3,1
100086dc:	00800044 	movi	r2,1
100086e0:	20c00015 	stw	r3,0(r4)
100086e4:	f800283a 	ret

100086e8 <__i2b>:
100086e8:	defffd04 	addi	sp,sp,-12
100086ec:	dc000015 	stw	r16,0(sp)
100086f0:	04000044 	movi	r16,1
100086f4:	dc400115 	stw	r17,4(sp)
100086f8:	2823883a 	mov	r17,r5
100086fc:	800b883a 	mov	r5,r16
10008700:	dfc00215 	stw	ra,8(sp)
10008704:	00082b40 	call	100082b4 <_Balloc>
10008708:	14400515 	stw	r17,20(r2)
1000870c:	14000415 	stw	r16,16(r2)
10008710:	dfc00217 	ldw	ra,8(sp)
10008714:	dc400117 	ldw	r17,4(sp)
10008718:	dc000017 	ldw	r16,0(sp)
1000871c:	dec00304 	addi	sp,sp,12
10008720:	f800283a 	ret

10008724 <__multiply>:
10008724:	deffef04 	addi	sp,sp,-68
10008728:	dc400815 	stw	r17,32(sp)
1000872c:	dc000715 	stw	r16,28(sp)
10008730:	34400417 	ldw	r17,16(r6)
10008734:	2c000417 	ldw	r16,16(r5)
10008738:	dd800d15 	stw	r22,52(sp)
1000873c:	dc800915 	stw	r18,36(sp)
10008740:	dfc01015 	stw	ra,64(sp)
10008744:	df000f15 	stw	fp,60(sp)
10008748:	ddc00e15 	stw	r23,56(sp)
1000874c:	dd400c15 	stw	r21,48(sp)
10008750:	dd000b15 	stw	r20,44(sp)
10008754:	dcc00a15 	stw	r19,40(sp)
10008758:	2825883a 	mov	r18,r5
1000875c:	302d883a 	mov	r22,r6
10008760:	8440050e 	bge	r16,r17,10008778 <__multiply+0x54>
10008764:	8007883a 	mov	r3,r16
10008768:	3025883a 	mov	r18,r6
1000876c:	8821883a 	mov	r16,r17
10008770:	282d883a 	mov	r22,r5
10008774:	1823883a 	mov	r17,r3
10008778:	90800217 	ldw	r2,8(r18)
1000877c:	8447883a 	add	r3,r16,r17
10008780:	d8c00215 	stw	r3,8(sp)
10008784:	91400117 	ldw	r5,4(r18)
10008788:	10c0010e 	bge	r2,r3,10008790 <__multiply+0x6c>
1000878c:	29400044 	addi	r5,r5,1
10008790:	00082b40 	call	100082b4 <_Balloc>
10008794:	d8c00217 	ldw	r3,8(sp)
10008798:	d8800615 	stw	r2,24(sp)
1000879c:	18eb883a 	add	r21,r3,r3
100087a0:	ad6b883a 	add	r21,r21,r21
100087a4:	10c00504 	addi	r3,r2,20
100087a8:	1d6b883a 	add	r21,r3,r21
100087ac:	d8c00115 	stw	r3,4(sp)
100087b0:	dd400315 	stw	r21,12(sp)
100087b4:	1805883a 	mov	r2,r3
100087b8:	1d40042e 	bgeu	r3,r21,100087cc <__multiply+0xa8>
100087bc:	d8c00317 	ldw	r3,12(sp)
100087c0:	10000015 	stw	zero,0(r2)
100087c4:	10800104 	addi	r2,r2,4
100087c8:	10fffc36 	bltu	r2,r3,100087bc <__alt_data_end+0xf80087bc>
100087cc:	8c63883a 	add	r17,r17,r17
100087d0:	b5800504 	addi	r22,r22,20
100087d4:	8c63883a 	add	r17,r17,r17
100087d8:	94800504 	addi	r18,r18,20
100087dc:	8421883a 	add	r16,r16,r16
100087e0:	b463883a 	add	r17,r22,r17
100087e4:	8421883a 	add	r16,r16,r16
100087e8:	dd800015 	stw	r22,0(sp)
100087ec:	dc800415 	stw	r18,16(sp)
100087f0:	dc400515 	stw	r17,20(sp)
100087f4:	9429883a 	add	r20,r18,r16
100087f8:	b4404f2e 	bgeu	r22,r17,10008938 <__multiply+0x214>
100087fc:	d8c00017 	ldw	r3,0(sp)
10008800:	1c800017 	ldw	r18,0(r3)
10008804:	947fffcc 	andi	r17,r18,65535
10008808:	88001e26 	beq	r17,zero,10008884 <__multiply+0x160>
1000880c:	dd800117 	ldw	r22,4(sp)
10008810:	dd400417 	ldw	r21,16(sp)
10008814:	0027883a 	mov	r19,zero
10008818:	ac800017 	ldw	r18,0(r21)
1000881c:	b4000017 	ldw	r16,0(r22)
10008820:	880b883a 	mov	r5,r17
10008824:	913fffcc 	andi	r4,r18,65535
10008828:	000c9680 	call	1000c968 <__mulsi3>
1000882c:	9008d43a 	srli	r4,r18,16
10008830:	84bfffcc 	andi	r18,r16,65535
10008834:	1485883a 	add	r2,r2,r18
10008838:	14e5883a 	add	r18,r2,r19
1000883c:	8020d43a 	srli	r16,r16,16
10008840:	9026d43a 	srli	r19,r18,16
10008844:	880b883a 	mov	r5,r17
10008848:	000c9680 	call	1000c968 <__mulsi3>
1000884c:	1405883a 	add	r2,r2,r16
10008850:	14e1883a 	add	r16,r2,r19
10008854:	90ffffcc 	andi	r3,r18,65535
10008858:	8024943a 	slli	r18,r16,16
1000885c:	ad400104 	addi	r21,r21,4
10008860:	b005883a 	mov	r2,r22
10008864:	90c6b03a 	or	r3,r18,r3
10008868:	b0c00015 	stw	r3,0(r22)
1000886c:	8026d43a 	srli	r19,r16,16
10008870:	b5800104 	addi	r22,r22,4
10008874:	ad3fe836 	bltu	r21,r20,10008818 <__alt_data_end+0xf8008818>
10008878:	d8c00017 	ldw	r3,0(sp)
1000887c:	14c00115 	stw	r19,4(r2)
10008880:	1c800017 	ldw	r18,0(r3)
10008884:	9024d43a 	srli	r18,r18,16
10008888:	90002226 	beq	r18,zero,10008914 <__multiply+0x1f0>
1000888c:	d8c00117 	ldw	r3,4(sp)
10008890:	dd800417 	ldw	r22,16(sp)
10008894:	002f883a 	mov	r23,zero
10008898:	1f000017 	ldw	fp,0(r3)
1000889c:	1823883a 	mov	r17,r3
100088a0:	182b883a 	mov	r21,r3
100088a4:	e021883a 	mov	r16,fp
100088a8:	00000106 	br	100088b0 <__multiply+0x18c>
100088ac:	982b883a 	mov	r21,r19
100088b0:	b100000b 	ldhu	r4,0(r22)
100088b4:	8020d43a 	srli	r16,r16,16
100088b8:	900b883a 	mov	r5,r18
100088bc:	000c9680 	call	1000c968 <__mulsi3>
100088c0:	1405883a 	add	r2,r2,r16
100088c4:	15ef883a 	add	r23,r2,r23
100088c8:	b804943a 	slli	r2,r23,16
100088cc:	e0ffffcc 	andi	r3,fp,65535
100088d0:	8c400104 	addi	r17,r17,4
100088d4:	10c6b03a 	or	r3,r2,r3
100088d8:	88ffff15 	stw	r3,-4(r17)
100088dc:	b5800104 	addi	r22,r22,4
100088e0:	b13fff17 	ldw	r4,-4(r22)
100088e4:	acc00104 	addi	r19,r21,4
100088e8:	900b883a 	mov	r5,r18
100088ec:	2008d43a 	srli	r4,r4,16
100088f0:	9c000017 	ldw	r16,0(r19)
100088f4:	000c9680 	call	1000c968 <__mulsi3>
100088f8:	b806d43a 	srli	r3,r23,16
100088fc:	813fffcc 	andi	r4,r16,65535
10008900:	1105883a 	add	r2,r2,r4
10008904:	10f9883a 	add	fp,r2,r3
10008908:	e02ed43a 	srli	r23,fp,16
1000890c:	b53fe736 	bltu	r22,r20,100088ac <__alt_data_end+0xf80088ac>
10008910:	af000115 	stw	fp,4(r21)
10008914:	d8c00017 	ldw	r3,0(sp)
10008918:	d9000517 	ldw	r4,20(sp)
1000891c:	18c00104 	addi	r3,r3,4
10008920:	d8c00015 	stw	r3,0(sp)
10008924:	d8c00117 	ldw	r3,4(sp)
10008928:	18c00104 	addi	r3,r3,4
1000892c:	d8c00115 	stw	r3,4(sp)
10008930:	d8c00017 	ldw	r3,0(sp)
10008934:	193fb136 	bltu	r3,r4,100087fc <__alt_data_end+0xf80087fc>
10008938:	d8c00217 	ldw	r3,8(sp)
1000893c:	00c00c0e 	bge	zero,r3,10008970 <__multiply+0x24c>
10008940:	d8c00317 	ldw	r3,12(sp)
10008944:	18bfff17 	ldw	r2,-4(r3)
10008948:	1d7fff04 	addi	r21,r3,-4
1000894c:	10000326 	beq	r2,zero,1000895c <__multiply+0x238>
10008950:	00000706 	br	10008970 <__multiply+0x24c>
10008954:	a8800017 	ldw	r2,0(r21)
10008958:	1000051e 	bne	r2,zero,10008970 <__multiply+0x24c>
1000895c:	d8c00217 	ldw	r3,8(sp)
10008960:	ad7fff04 	addi	r21,r21,-4
10008964:	18ffffc4 	addi	r3,r3,-1
10008968:	d8c00215 	stw	r3,8(sp)
1000896c:	183ff91e 	bne	r3,zero,10008954 <__alt_data_end+0xf8008954>
10008970:	d8c00617 	ldw	r3,24(sp)
10008974:	d9000217 	ldw	r4,8(sp)
10008978:	1805883a 	mov	r2,r3
1000897c:	19000415 	stw	r4,16(r3)
10008980:	dfc01017 	ldw	ra,64(sp)
10008984:	df000f17 	ldw	fp,60(sp)
10008988:	ddc00e17 	ldw	r23,56(sp)
1000898c:	dd800d17 	ldw	r22,52(sp)
10008990:	dd400c17 	ldw	r21,48(sp)
10008994:	dd000b17 	ldw	r20,44(sp)
10008998:	dcc00a17 	ldw	r19,40(sp)
1000899c:	dc800917 	ldw	r18,36(sp)
100089a0:	dc400817 	ldw	r17,32(sp)
100089a4:	dc000717 	ldw	r16,28(sp)
100089a8:	dec01104 	addi	sp,sp,68
100089ac:	f800283a 	ret

100089b0 <__pow5mult>:
100089b0:	defffa04 	addi	sp,sp,-24
100089b4:	dcc00315 	stw	r19,12(sp)
100089b8:	dc000015 	stw	r16,0(sp)
100089bc:	dfc00515 	stw	ra,20(sp)
100089c0:	dd000415 	stw	r20,16(sp)
100089c4:	dc800215 	stw	r18,8(sp)
100089c8:	dc400115 	stw	r17,4(sp)
100089cc:	308000cc 	andi	r2,r6,3
100089d0:	3021883a 	mov	r16,r6
100089d4:	2027883a 	mov	r19,r4
100089d8:	10002f1e 	bne	r2,zero,10008a98 <__pow5mult+0xe8>
100089dc:	2825883a 	mov	r18,r5
100089e0:	8021d0ba 	srai	r16,r16,2
100089e4:	80001a26 	beq	r16,zero,10008a50 <__pow5mult+0xa0>
100089e8:	9c401217 	ldw	r17,72(r19)
100089ec:	8800061e 	bne	r17,zero,10008a08 <__pow5mult+0x58>
100089f0:	00003406 	br	10008ac4 <__pow5mult+0x114>
100089f4:	8021d07a 	srai	r16,r16,1
100089f8:	80001526 	beq	r16,zero,10008a50 <__pow5mult+0xa0>
100089fc:	88800017 	ldw	r2,0(r17)
10008a00:	10001c26 	beq	r2,zero,10008a74 <__pow5mult+0xc4>
10008a04:	1023883a 	mov	r17,r2
10008a08:	8080004c 	andi	r2,r16,1
10008a0c:	103ff926 	beq	r2,zero,100089f4 <__alt_data_end+0xf80089f4>
10008a10:	880d883a 	mov	r6,r17
10008a14:	900b883a 	mov	r5,r18
10008a18:	9809883a 	mov	r4,r19
10008a1c:	00087240 	call	10008724 <__multiply>
10008a20:	90001b26 	beq	r18,zero,10008a90 <__pow5mult+0xe0>
10008a24:	91000117 	ldw	r4,4(r18)
10008a28:	98c01317 	ldw	r3,76(r19)
10008a2c:	8021d07a 	srai	r16,r16,1
10008a30:	2109883a 	add	r4,r4,r4
10008a34:	2109883a 	add	r4,r4,r4
10008a38:	1907883a 	add	r3,r3,r4
10008a3c:	19000017 	ldw	r4,0(r3)
10008a40:	91000015 	stw	r4,0(r18)
10008a44:	1c800015 	stw	r18,0(r3)
10008a48:	1025883a 	mov	r18,r2
10008a4c:	803feb1e 	bne	r16,zero,100089fc <__alt_data_end+0xf80089fc>
10008a50:	9005883a 	mov	r2,r18
10008a54:	dfc00517 	ldw	ra,20(sp)
10008a58:	dd000417 	ldw	r20,16(sp)
10008a5c:	dcc00317 	ldw	r19,12(sp)
10008a60:	dc800217 	ldw	r18,8(sp)
10008a64:	dc400117 	ldw	r17,4(sp)
10008a68:	dc000017 	ldw	r16,0(sp)
10008a6c:	dec00604 	addi	sp,sp,24
10008a70:	f800283a 	ret
10008a74:	880d883a 	mov	r6,r17
10008a78:	880b883a 	mov	r5,r17
10008a7c:	9809883a 	mov	r4,r19
10008a80:	00087240 	call	10008724 <__multiply>
10008a84:	88800015 	stw	r2,0(r17)
10008a88:	10000015 	stw	zero,0(r2)
10008a8c:	003fdd06 	br	10008a04 <__alt_data_end+0xf8008a04>
10008a90:	1025883a 	mov	r18,r2
10008a94:	003fd706 	br	100089f4 <__alt_data_end+0xf80089f4>
10008a98:	10bfffc4 	addi	r2,r2,-1
10008a9c:	1085883a 	add	r2,r2,r2
10008aa0:	00c40074 	movhi	r3,4097
10008aa4:	18c8a004 	addi	r3,r3,8832
10008aa8:	1085883a 	add	r2,r2,r2
10008aac:	1885883a 	add	r2,r3,r2
10008ab0:	11800017 	ldw	r6,0(r2)
10008ab4:	000f883a 	mov	r7,zero
10008ab8:	00083840 	call	10008384 <__multadd>
10008abc:	1025883a 	mov	r18,r2
10008ac0:	003fc706 	br	100089e0 <__alt_data_end+0xf80089e0>
10008ac4:	05000044 	movi	r20,1
10008ac8:	a00b883a 	mov	r5,r20
10008acc:	9809883a 	mov	r4,r19
10008ad0:	00082b40 	call	100082b4 <_Balloc>
10008ad4:	1023883a 	mov	r17,r2
10008ad8:	00809c44 	movi	r2,625
10008adc:	88800515 	stw	r2,20(r17)
10008ae0:	8d000415 	stw	r20,16(r17)
10008ae4:	9c401215 	stw	r17,72(r19)
10008ae8:	88000015 	stw	zero,0(r17)
10008aec:	003fc606 	br	10008a08 <__alt_data_end+0xf8008a08>

10008af0 <__lshift>:
10008af0:	defff904 	addi	sp,sp,-28
10008af4:	dd400515 	stw	r21,20(sp)
10008af8:	dcc00315 	stw	r19,12(sp)
10008afc:	302bd17a 	srai	r21,r6,5
10008b00:	2cc00417 	ldw	r19,16(r5)
10008b04:	28800217 	ldw	r2,8(r5)
10008b08:	dd000415 	stw	r20,16(sp)
10008b0c:	ace7883a 	add	r19,r21,r19
10008b10:	dc800215 	stw	r18,8(sp)
10008b14:	dc400115 	stw	r17,4(sp)
10008b18:	dc000015 	stw	r16,0(sp)
10008b1c:	dfc00615 	stw	ra,24(sp)
10008b20:	9c000044 	addi	r16,r19,1
10008b24:	2823883a 	mov	r17,r5
10008b28:	3029883a 	mov	r20,r6
10008b2c:	2025883a 	mov	r18,r4
10008b30:	29400117 	ldw	r5,4(r5)
10008b34:	1400030e 	bge	r2,r16,10008b44 <__lshift+0x54>
10008b38:	1085883a 	add	r2,r2,r2
10008b3c:	29400044 	addi	r5,r5,1
10008b40:	143ffd16 	blt	r2,r16,10008b38 <__alt_data_end+0xf8008b38>
10008b44:	9009883a 	mov	r4,r18
10008b48:	00082b40 	call	100082b4 <_Balloc>
10008b4c:	10c00504 	addi	r3,r2,20
10008b50:	0540070e 	bge	zero,r21,10008b70 <__lshift+0x80>
10008b54:	ad6b883a 	add	r21,r21,r21
10008b58:	ad6b883a 	add	r21,r21,r21
10008b5c:	1809883a 	mov	r4,r3
10008b60:	1d47883a 	add	r3,r3,r21
10008b64:	20000015 	stw	zero,0(r4)
10008b68:	21000104 	addi	r4,r4,4
10008b6c:	193ffd1e 	bne	r3,r4,10008b64 <__alt_data_end+0xf8008b64>
10008b70:	8a000417 	ldw	r8,16(r17)
10008b74:	89000504 	addi	r4,r17,20
10008b78:	a18007cc 	andi	r6,r20,31
10008b7c:	4211883a 	add	r8,r8,r8
10008b80:	4211883a 	add	r8,r8,r8
10008b84:	2211883a 	add	r8,r4,r8
10008b88:	30002326 	beq	r6,zero,10008c18 <__lshift+0x128>
10008b8c:	02400804 	movi	r9,32
10008b90:	4993c83a 	sub	r9,r9,r6
10008b94:	000b883a 	mov	r5,zero
10008b98:	21c00017 	ldw	r7,0(r4)
10008b9c:	1815883a 	mov	r10,r3
10008ba0:	18c00104 	addi	r3,r3,4
10008ba4:	398e983a 	sll	r7,r7,r6
10008ba8:	21000104 	addi	r4,r4,4
10008bac:	394ab03a 	or	r5,r7,r5
10008bb0:	197fff15 	stw	r5,-4(r3)
10008bb4:	217fff17 	ldw	r5,-4(r4)
10008bb8:	2a4ad83a 	srl	r5,r5,r9
10008bbc:	223ff636 	bltu	r4,r8,10008b98 <__alt_data_end+0xf8008b98>
10008bc0:	51400115 	stw	r5,4(r10)
10008bc4:	28001a1e 	bne	r5,zero,10008c30 <__lshift+0x140>
10008bc8:	843fffc4 	addi	r16,r16,-1
10008bcc:	14000415 	stw	r16,16(r2)
10008bd0:	88000826 	beq	r17,zero,10008bf4 <__lshift+0x104>
10008bd4:	89000117 	ldw	r4,4(r17)
10008bd8:	90c01317 	ldw	r3,76(r18)
10008bdc:	2109883a 	add	r4,r4,r4
10008be0:	2109883a 	add	r4,r4,r4
10008be4:	1907883a 	add	r3,r3,r4
10008be8:	19000017 	ldw	r4,0(r3)
10008bec:	89000015 	stw	r4,0(r17)
10008bf0:	1c400015 	stw	r17,0(r3)
10008bf4:	dfc00617 	ldw	ra,24(sp)
10008bf8:	dd400517 	ldw	r21,20(sp)
10008bfc:	dd000417 	ldw	r20,16(sp)
10008c00:	dcc00317 	ldw	r19,12(sp)
10008c04:	dc800217 	ldw	r18,8(sp)
10008c08:	dc400117 	ldw	r17,4(sp)
10008c0c:	dc000017 	ldw	r16,0(sp)
10008c10:	dec00704 	addi	sp,sp,28
10008c14:	f800283a 	ret
10008c18:	21400017 	ldw	r5,0(r4)
10008c1c:	18c00104 	addi	r3,r3,4
10008c20:	21000104 	addi	r4,r4,4
10008c24:	197fff15 	stw	r5,-4(r3)
10008c28:	223ffb36 	bltu	r4,r8,10008c18 <__alt_data_end+0xf8008c18>
10008c2c:	003fe606 	br	10008bc8 <__alt_data_end+0xf8008bc8>
10008c30:	9c000084 	addi	r16,r19,2
10008c34:	003fe406 	br	10008bc8 <__alt_data_end+0xf8008bc8>

10008c38 <__mcmp>:
10008c38:	20800417 	ldw	r2,16(r4)
10008c3c:	28c00417 	ldw	r3,16(r5)
10008c40:	10c5c83a 	sub	r2,r2,r3
10008c44:	1000111e 	bne	r2,zero,10008c8c <__mcmp+0x54>
10008c48:	18c7883a 	add	r3,r3,r3
10008c4c:	18c7883a 	add	r3,r3,r3
10008c50:	21000504 	addi	r4,r4,20
10008c54:	29400504 	addi	r5,r5,20
10008c58:	20c5883a 	add	r2,r4,r3
10008c5c:	28cb883a 	add	r5,r5,r3
10008c60:	00000106 	br	10008c68 <__mcmp+0x30>
10008c64:	20800a2e 	bgeu	r4,r2,10008c90 <__mcmp+0x58>
10008c68:	10bfff04 	addi	r2,r2,-4
10008c6c:	297fff04 	addi	r5,r5,-4
10008c70:	11800017 	ldw	r6,0(r2)
10008c74:	28c00017 	ldw	r3,0(r5)
10008c78:	30fffa26 	beq	r6,r3,10008c64 <__alt_data_end+0xf8008c64>
10008c7c:	30c00236 	bltu	r6,r3,10008c88 <__mcmp+0x50>
10008c80:	00800044 	movi	r2,1
10008c84:	f800283a 	ret
10008c88:	00bfffc4 	movi	r2,-1
10008c8c:	f800283a 	ret
10008c90:	0005883a 	mov	r2,zero
10008c94:	f800283a 	ret

10008c98 <__mdiff>:
10008c98:	28c00417 	ldw	r3,16(r5)
10008c9c:	30800417 	ldw	r2,16(r6)
10008ca0:	defffa04 	addi	sp,sp,-24
10008ca4:	dcc00315 	stw	r19,12(sp)
10008ca8:	dc800215 	stw	r18,8(sp)
10008cac:	dfc00515 	stw	ra,20(sp)
10008cb0:	dd000415 	stw	r20,16(sp)
10008cb4:	dc400115 	stw	r17,4(sp)
10008cb8:	dc000015 	stw	r16,0(sp)
10008cbc:	1887c83a 	sub	r3,r3,r2
10008cc0:	2825883a 	mov	r18,r5
10008cc4:	3027883a 	mov	r19,r6
10008cc8:	1800141e 	bne	r3,zero,10008d1c <__mdiff+0x84>
10008ccc:	1085883a 	add	r2,r2,r2
10008cd0:	1085883a 	add	r2,r2,r2
10008cd4:	2a000504 	addi	r8,r5,20
10008cd8:	34000504 	addi	r16,r6,20
10008cdc:	4087883a 	add	r3,r8,r2
10008ce0:	8085883a 	add	r2,r16,r2
10008ce4:	00000106 	br	10008cec <__mdiff+0x54>
10008ce8:	40c0592e 	bgeu	r8,r3,10008e50 <__mdiff+0x1b8>
10008cec:	18ffff04 	addi	r3,r3,-4
10008cf0:	10bfff04 	addi	r2,r2,-4
10008cf4:	19c00017 	ldw	r7,0(r3)
10008cf8:	11400017 	ldw	r5,0(r2)
10008cfc:	397ffa26 	beq	r7,r5,10008ce8 <__alt_data_end+0xf8008ce8>
10008d00:	3940592e 	bgeu	r7,r5,10008e68 <__mdiff+0x1d0>
10008d04:	9005883a 	mov	r2,r18
10008d08:	4023883a 	mov	r17,r8
10008d0c:	9825883a 	mov	r18,r19
10008d10:	05000044 	movi	r20,1
10008d14:	1027883a 	mov	r19,r2
10008d18:	00000406 	br	10008d2c <__mdiff+0x94>
10008d1c:	18005616 	blt	r3,zero,10008e78 <__mdiff+0x1e0>
10008d20:	34400504 	addi	r17,r6,20
10008d24:	2c000504 	addi	r16,r5,20
10008d28:	0029883a 	mov	r20,zero
10008d2c:	91400117 	ldw	r5,4(r18)
10008d30:	00082b40 	call	100082b4 <_Balloc>
10008d34:	92400417 	ldw	r9,16(r18)
10008d38:	9b000417 	ldw	r12,16(r19)
10008d3c:	12c00504 	addi	r11,r2,20
10008d40:	4a51883a 	add	r8,r9,r9
10008d44:	6319883a 	add	r12,r12,r12
10008d48:	4211883a 	add	r8,r8,r8
10008d4c:	6319883a 	add	r12,r12,r12
10008d50:	15000315 	stw	r20,12(r2)
10008d54:	8211883a 	add	r8,r16,r8
10008d58:	8b19883a 	add	r12,r17,r12
10008d5c:	0007883a 	mov	r3,zero
10008d60:	81400017 	ldw	r5,0(r16)
10008d64:	89c00017 	ldw	r7,0(r17)
10008d68:	59800104 	addi	r6,r11,4
10008d6c:	293fffcc 	andi	r4,r5,65535
10008d70:	20c7883a 	add	r3,r4,r3
10008d74:	393fffcc 	andi	r4,r7,65535
10008d78:	1909c83a 	sub	r4,r3,r4
10008d7c:	280ad43a 	srli	r5,r5,16
10008d80:	380ed43a 	srli	r7,r7,16
10008d84:	2007d43a 	srai	r3,r4,16
10008d88:	213fffcc 	andi	r4,r4,65535
10008d8c:	29cbc83a 	sub	r5,r5,r7
10008d90:	28c7883a 	add	r3,r5,r3
10008d94:	180a943a 	slli	r5,r3,16
10008d98:	8c400104 	addi	r17,r17,4
10008d9c:	84000104 	addi	r16,r16,4
10008da0:	2908b03a 	or	r4,r5,r4
10008da4:	59000015 	stw	r4,0(r11)
10008da8:	1807d43a 	srai	r3,r3,16
10008dac:	3015883a 	mov	r10,r6
10008db0:	3017883a 	mov	r11,r6
10008db4:	8b3fea36 	bltu	r17,r12,10008d60 <__alt_data_end+0xf8008d60>
10008db8:	8200162e 	bgeu	r16,r8,10008e14 <__mdiff+0x17c>
10008dbc:	8017883a 	mov	r11,r16
10008dc0:	59400017 	ldw	r5,0(r11)
10008dc4:	31800104 	addi	r6,r6,4
10008dc8:	5ac00104 	addi	r11,r11,4
10008dcc:	293fffcc 	andi	r4,r5,65535
10008dd0:	20c7883a 	add	r3,r4,r3
10008dd4:	280ed43a 	srli	r7,r5,16
10008dd8:	180bd43a 	srai	r5,r3,16
10008ddc:	193fffcc 	andi	r4,r3,65535
10008de0:	3947883a 	add	r3,r7,r5
10008de4:	180a943a 	slli	r5,r3,16
10008de8:	1807d43a 	srai	r3,r3,16
10008dec:	2908b03a 	or	r4,r5,r4
10008df0:	313fff15 	stw	r4,-4(r6)
10008df4:	5a3ff236 	bltu	r11,r8,10008dc0 <__alt_data_end+0xf8008dc0>
10008df8:	0406303a 	nor	r3,zero,r16
10008dfc:	1a07883a 	add	r3,r3,r8
10008e00:	1806d0ba 	srli	r3,r3,2
10008e04:	18c00044 	addi	r3,r3,1
10008e08:	18c7883a 	add	r3,r3,r3
10008e0c:	18c7883a 	add	r3,r3,r3
10008e10:	50d5883a 	add	r10,r10,r3
10008e14:	50ffff04 	addi	r3,r10,-4
10008e18:	2000041e 	bne	r4,zero,10008e2c <__mdiff+0x194>
10008e1c:	18ffff04 	addi	r3,r3,-4
10008e20:	19000017 	ldw	r4,0(r3)
10008e24:	4a7fffc4 	addi	r9,r9,-1
10008e28:	203ffc26 	beq	r4,zero,10008e1c <__alt_data_end+0xf8008e1c>
10008e2c:	12400415 	stw	r9,16(r2)
10008e30:	dfc00517 	ldw	ra,20(sp)
10008e34:	dd000417 	ldw	r20,16(sp)
10008e38:	dcc00317 	ldw	r19,12(sp)
10008e3c:	dc800217 	ldw	r18,8(sp)
10008e40:	dc400117 	ldw	r17,4(sp)
10008e44:	dc000017 	ldw	r16,0(sp)
10008e48:	dec00604 	addi	sp,sp,24
10008e4c:	f800283a 	ret
10008e50:	000b883a 	mov	r5,zero
10008e54:	00082b40 	call	100082b4 <_Balloc>
10008e58:	00c00044 	movi	r3,1
10008e5c:	10c00415 	stw	r3,16(r2)
10008e60:	10000515 	stw	zero,20(r2)
10008e64:	003ff206 	br	10008e30 <__alt_data_end+0xf8008e30>
10008e68:	8023883a 	mov	r17,r16
10008e6c:	0029883a 	mov	r20,zero
10008e70:	4021883a 	mov	r16,r8
10008e74:	003fad06 	br	10008d2c <__alt_data_end+0xf8008d2c>
10008e78:	9005883a 	mov	r2,r18
10008e7c:	94400504 	addi	r17,r18,20
10008e80:	9c000504 	addi	r16,r19,20
10008e84:	9825883a 	mov	r18,r19
10008e88:	05000044 	movi	r20,1
10008e8c:	1027883a 	mov	r19,r2
10008e90:	003fa606 	br	10008d2c <__alt_data_end+0xf8008d2c>

10008e94 <__ulp>:
10008e94:	295ffc2c 	andhi	r5,r5,32752
10008e98:	00bf3034 	movhi	r2,64704
10008e9c:	2887883a 	add	r3,r5,r2
10008ea0:	00c0020e 	bge	zero,r3,10008eac <__ulp+0x18>
10008ea4:	0005883a 	mov	r2,zero
10008ea8:	f800283a 	ret
10008eac:	00c7c83a 	sub	r3,zero,r3
10008eb0:	1807d53a 	srai	r3,r3,20
10008eb4:	008004c4 	movi	r2,19
10008eb8:	10c00b0e 	bge	r2,r3,10008ee8 <__ulp+0x54>
10008ebc:	18bffb04 	addi	r2,r3,-20
10008ec0:	01000784 	movi	r4,30
10008ec4:	0007883a 	mov	r3,zero
10008ec8:	20800516 	blt	r4,r2,10008ee0 <__ulp+0x4c>
10008ecc:	010007c4 	movi	r4,31
10008ed0:	2089c83a 	sub	r4,r4,r2
10008ed4:	00800044 	movi	r2,1
10008ed8:	1104983a 	sll	r2,r2,r4
10008edc:	f800283a 	ret
10008ee0:	00800044 	movi	r2,1
10008ee4:	f800283a 	ret
10008ee8:	01400234 	movhi	r5,8
10008eec:	28c7d83a 	sra	r3,r5,r3
10008ef0:	0005883a 	mov	r2,zero
10008ef4:	f800283a 	ret

10008ef8 <__b2d>:
10008ef8:	defffa04 	addi	sp,sp,-24
10008efc:	dc000015 	stw	r16,0(sp)
10008f00:	24000417 	ldw	r16,16(r4)
10008f04:	dc400115 	stw	r17,4(sp)
10008f08:	24400504 	addi	r17,r4,20
10008f0c:	8421883a 	add	r16,r16,r16
10008f10:	8421883a 	add	r16,r16,r16
10008f14:	8c21883a 	add	r16,r17,r16
10008f18:	dc800215 	stw	r18,8(sp)
10008f1c:	84bfff17 	ldw	r18,-4(r16)
10008f20:	dd000415 	stw	r20,16(sp)
10008f24:	dcc00315 	stw	r19,12(sp)
10008f28:	9009883a 	mov	r4,r18
10008f2c:	2829883a 	mov	r20,r5
10008f30:	dfc00515 	stw	ra,20(sp)
10008f34:	00085d00 	call	100085d0 <__hi0bits>
10008f38:	00c00804 	movi	r3,32
10008f3c:	1889c83a 	sub	r4,r3,r2
10008f40:	a1000015 	stw	r4,0(r20)
10008f44:	01000284 	movi	r4,10
10008f48:	84ffff04 	addi	r19,r16,-4
10008f4c:	20801216 	blt	r4,r2,10008f98 <__b2d+0xa0>
10008f50:	018002c4 	movi	r6,11
10008f54:	308dc83a 	sub	r6,r6,r2
10008f58:	9186d83a 	srl	r3,r18,r6
10008f5c:	18cffc34 	orhi	r3,r3,16368
10008f60:	8cc0212e 	bgeu	r17,r19,10008fe8 <__b2d+0xf0>
10008f64:	813ffe17 	ldw	r4,-8(r16)
10008f68:	218cd83a 	srl	r6,r4,r6
10008f6c:	10800544 	addi	r2,r2,21
10008f70:	9084983a 	sll	r2,r18,r2
10008f74:	1184b03a 	or	r2,r2,r6
10008f78:	dfc00517 	ldw	ra,20(sp)
10008f7c:	dd000417 	ldw	r20,16(sp)
10008f80:	dcc00317 	ldw	r19,12(sp)
10008f84:	dc800217 	ldw	r18,8(sp)
10008f88:	dc400117 	ldw	r17,4(sp)
10008f8c:	dc000017 	ldw	r16,0(sp)
10008f90:	dec00604 	addi	sp,sp,24
10008f94:	f800283a 	ret
10008f98:	8cc00f2e 	bgeu	r17,r19,10008fd8 <__b2d+0xe0>
10008f9c:	117ffd44 	addi	r5,r2,-11
10008fa0:	80bffe17 	ldw	r2,-8(r16)
10008fa4:	28000e26 	beq	r5,zero,10008fe0 <__b2d+0xe8>
10008fa8:	1949c83a 	sub	r4,r3,r5
10008fac:	9164983a 	sll	r18,r18,r5
10008fb0:	1106d83a 	srl	r3,r2,r4
10008fb4:	81bffe04 	addi	r6,r16,-8
10008fb8:	948ffc34 	orhi	r18,r18,16368
10008fbc:	90c6b03a 	or	r3,r18,r3
10008fc0:	89800e2e 	bgeu	r17,r6,10008ffc <__b2d+0x104>
10008fc4:	81bffd17 	ldw	r6,-12(r16)
10008fc8:	1144983a 	sll	r2,r2,r5
10008fcc:	310ad83a 	srl	r5,r6,r4
10008fd0:	2884b03a 	or	r2,r5,r2
10008fd4:	003fe806 	br	10008f78 <__alt_data_end+0xf8008f78>
10008fd8:	10bffd44 	addi	r2,r2,-11
10008fdc:	1000041e 	bne	r2,zero,10008ff0 <__b2d+0xf8>
10008fe0:	90cffc34 	orhi	r3,r18,16368
10008fe4:	003fe406 	br	10008f78 <__alt_data_end+0xf8008f78>
10008fe8:	000d883a 	mov	r6,zero
10008fec:	003fdf06 	br	10008f6c <__alt_data_end+0xf8008f6c>
10008ff0:	90a4983a 	sll	r18,r18,r2
10008ff4:	0005883a 	mov	r2,zero
10008ff8:	003ff906 	br	10008fe0 <__alt_data_end+0xf8008fe0>
10008ffc:	1144983a 	sll	r2,r2,r5
10009000:	003fdd06 	br	10008f78 <__alt_data_end+0xf8008f78>

10009004 <__d2b>:
10009004:	defff804 	addi	sp,sp,-32
10009008:	dc000215 	stw	r16,8(sp)
1000900c:	3021883a 	mov	r16,r6
10009010:	dc400315 	stw	r17,12(sp)
10009014:	8022907a 	slli	r17,r16,1
10009018:	dd000615 	stw	r20,24(sp)
1000901c:	2829883a 	mov	r20,r5
10009020:	01400044 	movi	r5,1
10009024:	dcc00515 	stw	r19,20(sp)
10009028:	dc800415 	stw	r18,16(sp)
1000902c:	dfc00715 	stw	ra,28(sp)
10009030:	3825883a 	mov	r18,r7
10009034:	8822d57a 	srli	r17,r17,21
10009038:	00082b40 	call	100082b4 <_Balloc>
1000903c:	1027883a 	mov	r19,r2
10009040:	00800434 	movhi	r2,16
10009044:	10bfffc4 	addi	r2,r2,-1
10009048:	808c703a 	and	r6,r16,r2
1000904c:	88000126 	beq	r17,zero,10009054 <__d2b+0x50>
10009050:	31800434 	orhi	r6,r6,16
10009054:	d9800015 	stw	r6,0(sp)
10009058:	a0002426 	beq	r20,zero,100090ec <__d2b+0xe8>
1000905c:	d9000104 	addi	r4,sp,4
10009060:	dd000115 	stw	r20,4(sp)
10009064:	00086380 	call	10008638 <__lo0bits>
10009068:	d8c00017 	ldw	r3,0(sp)
1000906c:	10002f1e 	bne	r2,zero,1000912c <__d2b+0x128>
10009070:	d9000117 	ldw	r4,4(sp)
10009074:	99000515 	stw	r4,20(r19)
10009078:	1821003a 	cmpeq	r16,r3,zero
1000907c:	01000084 	movi	r4,2
10009080:	2421c83a 	sub	r16,r4,r16
10009084:	98c00615 	stw	r3,24(r19)
10009088:	9c000415 	stw	r16,16(r19)
1000908c:	88001f1e 	bne	r17,zero,1000910c <__d2b+0x108>
10009090:	10bef384 	addi	r2,r2,-1074
10009094:	90800015 	stw	r2,0(r18)
10009098:	00900034 	movhi	r2,16384
1000909c:	10bfffc4 	addi	r2,r2,-1
100090a0:	8085883a 	add	r2,r16,r2
100090a4:	1085883a 	add	r2,r2,r2
100090a8:	1085883a 	add	r2,r2,r2
100090ac:	9885883a 	add	r2,r19,r2
100090b0:	11000517 	ldw	r4,20(r2)
100090b4:	8020917a 	slli	r16,r16,5
100090b8:	00085d00 	call	100085d0 <__hi0bits>
100090bc:	d8c00817 	ldw	r3,32(sp)
100090c0:	8085c83a 	sub	r2,r16,r2
100090c4:	18800015 	stw	r2,0(r3)
100090c8:	9805883a 	mov	r2,r19
100090cc:	dfc00717 	ldw	ra,28(sp)
100090d0:	dd000617 	ldw	r20,24(sp)
100090d4:	dcc00517 	ldw	r19,20(sp)
100090d8:	dc800417 	ldw	r18,16(sp)
100090dc:	dc400317 	ldw	r17,12(sp)
100090e0:	dc000217 	ldw	r16,8(sp)
100090e4:	dec00804 	addi	sp,sp,32
100090e8:	f800283a 	ret
100090ec:	d809883a 	mov	r4,sp
100090f0:	00086380 	call	10008638 <__lo0bits>
100090f4:	d8c00017 	ldw	r3,0(sp)
100090f8:	04000044 	movi	r16,1
100090fc:	9c000415 	stw	r16,16(r19)
10009100:	98c00515 	stw	r3,20(r19)
10009104:	10800804 	addi	r2,r2,32
10009108:	883fe126 	beq	r17,zero,10009090 <__alt_data_end+0xf8009090>
1000910c:	00c00d44 	movi	r3,53
10009110:	8c7ef344 	addi	r17,r17,-1075
10009114:	88a3883a 	add	r17,r17,r2
10009118:	1885c83a 	sub	r2,r3,r2
1000911c:	d8c00817 	ldw	r3,32(sp)
10009120:	94400015 	stw	r17,0(r18)
10009124:	18800015 	stw	r2,0(r3)
10009128:	003fe706 	br	100090c8 <__alt_data_end+0xf80090c8>
1000912c:	01000804 	movi	r4,32
10009130:	2089c83a 	sub	r4,r4,r2
10009134:	1908983a 	sll	r4,r3,r4
10009138:	d9400117 	ldw	r5,4(sp)
1000913c:	1886d83a 	srl	r3,r3,r2
10009140:	2148b03a 	or	r4,r4,r5
10009144:	99000515 	stw	r4,20(r19)
10009148:	d8c00015 	stw	r3,0(sp)
1000914c:	003fca06 	br	10009078 <__alt_data_end+0xf8009078>

10009150 <__ratio>:
10009150:	defff904 	addi	sp,sp,-28
10009154:	dc400315 	stw	r17,12(sp)
10009158:	2823883a 	mov	r17,r5
1000915c:	d9400104 	addi	r5,sp,4
10009160:	dfc00615 	stw	ra,24(sp)
10009164:	dcc00515 	stw	r19,20(sp)
10009168:	dc800415 	stw	r18,16(sp)
1000916c:	2027883a 	mov	r19,r4
10009170:	dc000215 	stw	r16,8(sp)
10009174:	0008ef80 	call	10008ef8 <__b2d>
10009178:	d80b883a 	mov	r5,sp
1000917c:	8809883a 	mov	r4,r17
10009180:	1025883a 	mov	r18,r2
10009184:	1821883a 	mov	r16,r3
10009188:	0008ef80 	call	10008ef8 <__b2d>
1000918c:	8a000417 	ldw	r8,16(r17)
10009190:	99000417 	ldw	r4,16(r19)
10009194:	d9400117 	ldw	r5,4(sp)
10009198:	2209c83a 	sub	r4,r4,r8
1000919c:	2010917a 	slli	r8,r4,5
100091a0:	d9000017 	ldw	r4,0(sp)
100091a4:	2909c83a 	sub	r4,r5,r4
100091a8:	4109883a 	add	r4,r8,r4
100091ac:	01000e0e 	bge	zero,r4,100091e8 <__ratio+0x98>
100091b0:	2008953a 	slli	r4,r4,20
100091b4:	2421883a 	add	r16,r4,r16
100091b8:	100d883a 	mov	r6,r2
100091bc:	180f883a 	mov	r7,r3
100091c0:	9009883a 	mov	r4,r18
100091c4:	800b883a 	mov	r5,r16
100091c8:	000d23c0 	call	1000d23c <__divdf3>
100091cc:	dfc00617 	ldw	ra,24(sp)
100091d0:	dcc00517 	ldw	r19,20(sp)
100091d4:	dc800417 	ldw	r18,16(sp)
100091d8:	dc400317 	ldw	r17,12(sp)
100091dc:	dc000217 	ldw	r16,8(sp)
100091e0:	dec00704 	addi	sp,sp,28
100091e4:	f800283a 	ret
100091e8:	2008953a 	slli	r4,r4,20
100091ec:	1907c83a 	sub	r3,r3,r4
100091f0:	003ff106 	br	100091b8 <__alt_data_end+0xf80091b8>

100091f4 <_mprec_log10>:
100091f4:	defffe04 	addi	sp,sp,-8
100091f8:	dc000015 	stw	r16,0(sp)
100091fc:	dfc00115 	stw	ra,4(sp)
10009200:	008005c4 	movi	r2,23
10009204:	2021883a 	mov	r16,r4
10009208:	11000d0e 	bge	r2,r4,10009240 <_mprec_log10+0x4c>
1000920c:	0005883a 	mov	r2,zero
10009210:	00cffc34 	movhi	r3,16368
10009214:	843fffc4 	addi	r16,r16,-1
10009218:	000d883a 	mov	r6,zero
1000921c:	01d00934 	movhi	r7,16420
10009220:	1009883a 	mov	r4,r2
10009224:	180b883a 	mov	r5,r3
10009228:	000de640 	call	1000de64 <__muldf3>
1000922c:	803ff91e 	bne	r16,zero,10009214 <__alt_data_end+0xf8009214>
10009230:	dfc00117 	ldw	ra,4(sp)
10009234:	dc000017 	ldw	r16,0(sp)
10009238:	dec00204 	addi	sp,sp,8
1000923c:	f800283a 	ret
10009240:	202090fa 	slli	r16,r4,3
10009244:	00840074 	movhi	r2,4097
10009248:	1088b704 	addi	r2,r2,8924
1000924c:	1421883a 	add	r16,r2,r16
10009250:	80800017 	ldw	r2,0(r16)
10009254:	80c00117 	ldw	r3,4(r16)
10009258:	dfc00117 	ldw	ra,4(sp)
1000925c:	dc000017 	ldw	r16,0(sp)
10009260:	dec00204 	addi	sp,sp,8
10009264:	f800283a 	ret

10009268 <__copybits>:
10009268:	297fffc4 	addi	r5,r5,-1
1000926c:	280fd17a 	srai	r7,r5,5
10009270:	30c00417 	ldw	r3,16(r6)
10009274:	30800504 	addi	r2,r6,20
10009278:	39c00044 	addi	r7,r7,1
1000927c:	18c7883a 	add	r3,r3,r3
10009280:	39cf883a 	add	r7,r7,r7
10009284:	18c7883a 	add	r3,r3,r3
10009288:	39cf883a 	add	r7,r7,r7
1000928c:	10c7883a 	add	r3,r2,r3
10009290:	21cf883a 	add	r7,r4,r7
10009294:	10c00d2e 	bgeu	r2,r3,100092cc <__copybits+0x64>
10009298:	200b883a 	mov	r5,r4
1000929c:	12000017 	ldw	r8,0(r2)
100092a0:	29400104 	addi	r5,r5,4
100092a4:	10800104 	addi	r2,r2,4
100092a8:	2a3fff15 	stw	r8,-4(r5)
100092ac:	10fffb36 	bltu	r2,r3,1000929c <__alt_data_end+0xf800929c>
100092b0:	1985c83a 	sub	r2,r3,r6
100092b4:	10bffac4 	addi	r2,r2,-21
100092b8:	1004d0ba 	srli	r2,r2,2
100092bc:	10800044 	addi	r2,r2,1
100092c0:	1085883a 	add	r2,r2,r2
100092c4:	1085883a 	add	r2,r2,r2
100092c8:	2089883a 	add	r4,r4,r2
100092cc:	21c0032e 	bgeu	r4,r7,100092dc <__copybits+0x74>
100092d0:	20000015 	stw	zero,0(r4)
100092d4:	21000104 	addi	r4,r4,4
100092d8:	21fffd36 	bltu	r4,r7,100092d0 <__alt_data_end+0xf80092d0>
100092dc:	f800283a 	ret

100092e0 <__any_on>:
100092e0:	20c00417 	ldw	r3,16(r4)
100092e4:	2805d17a 	srai	r2,r5,5
100092e8:	21000504 	addi	r4,r4,20
100092ec:	18800d0e 	bge	r3,r2,10009324 <__any_on+0x44>
100092f0:	18c7883a 	add	r3,r3,r3
100092f4:	18c7883a 	add	r3,r3,r3
100092f8:	20c7883a 	add	r3,r4,r3
100092fc:	20c0192e 	bgeu	r4,r3,10009364 <__any_on+0x84>
10009300:	18bfff17 	ldw	r2,-4(r3)
10009304:	18ffff04 	addi	r3,r3,-4
10009308:	1000041e 	bne	r2,zero,1000931c <__any_on+0x3c>
1000930c:	20c0142e 	bgeu	r4,r3,10009360 <__any_on+0x80>
10009310:	18ffff04 	addi	r3,r3,-4
10009314:	19400017 	ldw	r5,0(r3)
10009318:	283ffc26 	beq	r5,zero,1000930c <__alt_data_end+0xf800930c>
1000931c:	00800044 	movi	r2,1
10009320:	f800283a 	ret
10009324:	10c00a0e 	bge	r2,r3,10009350 <__any_on+0x70>
10009328:	1085883a 	add	r2,r2,r2
1000932c:	1085883a 	add	r2,r2,r2
10009330:	294007cc 	andi	r5,r5,31
10009334:	2087883a 	add	r3,r4,r2
10009338:	283ff026 	beq	r5,zero,100092fc <__alt_data_end+0xf80092fc>
1000933c:	19800017 	ldw	r6,0(r3)
10009340:	3144d83a 	srl	r2,r6,r5
10009344:	114a983a 	sll	r5,r2,r5
10009348:	317ff41e 	bne	r6,r5,1000931c <__alt_data_end+0xf800931c>
1000934c:	003feb06 	br	100092fc <__alt_data_end+0xf80092fc>
10009350:	1085883a 	add	r2,r2,r2
10009354:	1085883a 	add	r2,r2,r2
10009358:	2087883a 	add	r3,r4,r2
1000935c:	003fe706 	br	100092fc <__alt_data_end+0xf80092fc>
10009360:	f800283a 	ret
10009364:	0005883a 	mov	r2,zero
10009368:	f800283a 	ret

1000936c <_realloc_r>:
1000936c:	defff604 	addi	sp,sp,-40
10009370:	dc800215 	stw	r18,8(sp)
10009374:	dfc00915 	stw	ra,36(sp)
10009378:	df000815 	stw	fp,32(sp)
1000937c:	ddc00715 	stw	r23,28(sp)
10009380:	dd800615 	stw	r22,24(sp)
10009384:	dd400515 	stw	r21,20(sp)
10009388:	dd000415 	stw	r20,16(sp)
1000938c:	dcc00315 	stw	r19,12(sp)
10009390:	dc400115 	stw	r17,4(sp)
10009394:	dc000015 	stw	r16,0(sp)
10009398:	3025883a 	mov	r18,r6
1000939c:	2800b726 	beq	r5,zero,1000967c <_realloc_r+0x310>
100093a0:	282b883a 	mov	r21,r5
100093a4:	2029883a 	mov	r20,r4
100093a8:	000f7d00 	call	1000f7d0 <__malloc_lock>
100093ac:	a8bfff17 	ldw	r2,-4(r21)
100093b0:	043fff04 	movi	r16,-4
100093b4:	90c002c4 	addi	r3,r18,11
100093b8:	01000584 	movi	r4,22
100093bc:	acfffe04 	addi	r19,r21,-8
100093c0:	1420703a 	and	r16,r2,r16
100093c4:	20c0332e 	bgeu	r4,r3,10009494 <_realloc_r+0x128>
100093c8:	047ffe04 	movi	r17,-8
100093cc:	1c62703a 	and	r17,r3,r17
100093d0:	8807883a 	mov	r3,r17
100093d4:	88005816 	blt	r17,zero,10009538 <_realloc_r+0x1cc>
100093d8:	8c805736 	bltu	r17,r18,10009538 <_realloc_r+0x1cc>
100093dc:	80c0300e 	bge	r16,r3,100094a0 <_realloc_r+0x134>
100093e0:	07040074 	movhi	fp,4097
100093e4:	e70a6504 	addi	fp,fp,10644
100093e8:	e1c00217 	ldw	r7,8(fp)
100093ec:	9c09883a 	add	r4,r19,r16
100093f0:	22000117 	ldw	r8,4(r4)
100093f4:	21c06326 	beq	r4,r7,10009584 <_realloc_r+0x218>
100093f8:	017fff84 	movi	r5,-2
100093fc:	414a703a 	and	r5,r8,r5
10009400:	214b883a 	add	r5,r4,r5
10009404:	29800117 	ldw	r6,4(r5)
10009408:	3180004c 	andi	r6,r6,1
1000940c:	30003f26 	beq	r6,zero,1000950c <_realloc_r+0x1a0>
10009410:	1080004c 	andi	r2,r2,1
10009414:	10008326 	beq	r2,zero,10009624 <_realloc_r+0x2b8>
10009418:	900b883a 	mov	r5,r18
1000941c:	a009883a 	mov	r4,r20
10009420:	00075f80 	call	100075f8 <_malloc_r>
10009424:	1025883a 	mov	r18,r2
10009428:	10011e26 	beq	r2,zero,100098a4 <_realloc_r+0x538>
1000942c:	a93fff17 	ldw	r4,-4(r21)
10009430:	10fffe04 	addi	r3,r2,-8
10009434:	00bfff84 	movi	r2,-2
10009438:	2084703a 	and	r2,r4,r2
1000943c:	9885883a 	add	r2,r19,r2
10009440:	1880ee26 	beq	r3,r2,100097fc <_realloc_r+0x490>
10009444:	81bfff04 	addi	r6,r16,-4
10009448:	00800904 	movi	r2,36
1000944c:	1180b836 	bltu	r2,r6,10009730 <_realloc_r+0x3c4>
10009450:	00c004c4 	movi	r3,19
10009454:	19809636 	bltu	r3,r6,100096b0 <_realloc_r+0x344>
10009458:	9005883a 	mov	r2,r18
1000945c:	a807883a 	mov	r3,r21
10009460:	19000017 	ldw	r4,0(r3)
10009464:	11000015 	stw	r4,0(r2)
10009468:	19000117 	ldw	r4,4(r3)
1000946c:	11000115 	stw	r4,4(r2)
10009470:	18c00217 	ldw	r3,8(r3)
10009474:	10c00215 	stw	r3,8(r2)
10009478:	a80b883a 	mov	r5,r21
1000947c:	a009883a 	mov	r4,r20
10009480:	0006a000 	call	10006a00 <_free_r>
10009484:	a009883a 	mov	r4,r20
10009488:	000f7f40 	call	1000f7f4 <__malloc_unlock>
1000948c:	9005883a 	mov	r2,r18
10009490:	00001206 	br	100094dc <_realloc_r+0x170>
10009494:	00c00404 	movi	r3,16
10009498:	1823883a 	mov	r17,r3
1000949c:	003fce06 	br	100093d8 <__alt_data_end+0xf80093d8>
100094a0:	a825883a 	mov	r18,r21
100094a4:	8445c83a 	sub	r2,r16,r17
100094a8:	00c003c4 	movi	r3,15
100094ac:	18802636 	bltu	r3,r2,10009548 <_realloc_r+0x1dc>
100094b0:	99800117 	ldw	r6,4(r19)
100094b4:	9c07883a 	add	r3,r19,r16
100094b8:	3180004c 	andi	r6,r6,1
100094bc:	3420b03a 	or	r16,r6,r16
100094c0:	9c000115 	stw	r16,4(r19)
100094c4:	18800117 	ldw	r2,4(r3)
100094c8:	10800054 	ori	r2,r2,1
100094cc:	18800115 	stw	r2,4(r3)
100094d0:	a009883a 	mov	r4,r20
100094d4:	000f7f40 	call	1000f7f4 <__malloc_unlock>
100094d8:	9005883a 	mov	r2,r18
100094dc:	dfc00917 	ldw	ra,36(sp)
100094e0:	df000817 	ldw	fp,32(sp)
100094e4:	ddc00717 	ldw	r23,28(sp)
100094e8:	dd800617 	ldw	r22,24(sp)
100094ec:	dd400517 	ldw	r21,20(sp)
100094f0:	dd000417 	ldw	r20,16(sp)
100094f4:	dcc00317 	ldw	r19,12(sp)
100094f8:	dc800217 	ldw	r18,8(sp)
100094fc:	dc400117 	ldw	r17,4(sp)
10009500:	dc000017 	ldw	r16,0(sp)
10009504:	dec00a04 	addi	sp,sp,40
10009508:	f800283a 	ret
1000950c:	017fff04 	movi	r5,-4
10009510:	414a703a 	and	r5,r8,r5
10009514:	814d883a 	add	r6,r16,r5
10009518:	30c01f16 	blt	r6,r3,10009598 <_realloc_r+0x22c>
1000951c:	20800317 	ldw	r2,12(r4)
10009520:	20c00217 	ldw	r3,8(r4)
10009524:	a825883a 	mov	r18,r21
10009528:	3021883a 	mov	r16,r6
1000952c:	18800315 	stw	r2,12(r3)
10009530:	10c00215 	stw	r3,8(r2)
10009534:	003fdb06 	br	100094a4 <__alt_data_end+0xf80094a4>
10009538:	00800304 	movi	r2,12
1000953c:	a0800015 	stw	r2,0(r20)
10009540:	0005883a 	mov	r2,zero
10009544:	003fe506 	br	100094dc <__alt_data_end+0xf80094dc>
10009548:	98c00117 	ldw	r3,4(r19)
1000954c:	9c4b883a 	add	r5,r19,r17
10009550:	11000054 	ori	r4,r2,1
10009554:	18c0004c 	andi	r3,r3,1
10009558:	1c62b03a 	or	r17,r3,r17
1000955c:	9c400115 	stw	r17,4(r19)
10009560:	29000115 	stw	r4,4(r5)
10009564:	2885883a 	add	r2,r5,r2
10009568:	10c00117 	ldw	r3,4(r2)
1000956c:	29400204 	addi	r5,r5,8
10009570:	a009883a 	mov	r4,r20
10009574:	18c00054 	ori	r3,r3,1
10009578:	10c00115 	stw	r3,4(r2)
1000957c:	0006a000 	call	10006a00 <_free_r>
10009580:	003fd306 	br	100094d0 <__alt_data_end+0xf80094d0>
10009584:	017fff04 	movi	r5,-4
10009588:	414a703a 	and	r5,r8,r5
1000958c:	89800404 	addi	r6,r17,16
10009590:	8151883a 	add	r8,r16,r5
10009594:	4180590e 	bge	r8,r6,100096fc <_realloc_r+0x390>
10009598:	1080004c 	andi	r2,r2,1
1000959c:	103f9e1e 	bne	r2,zero,10009418 <__alt_data_end+0xf8009418>
100095a0:	adbffe17 	ldw	r22,-8(r21)
100095a4:	00bfff04 	movi	r2,-4
100095a8:	9dadc83a 	sub	r22,r19,r22
100095ac:	b1800117 	ldw	r6,4(r22)
100095b0:	3084703a 	and	r2,r6,r2
100095b4:	20002026 	beq	r4,zero,10009638 <_realloc_r+0x2cc>
100095b8:	80af883a 	add	r23,r16,r2
100095bc:	b96f883a 	add	r23,r23,r5
100095c0:	21c05f26 	beq	r4,r7,10009740 <_realloc_r+0x3d4>
100095c4:	b8c01c16 	blt	r23,r3,10009638 <_realloc_r+0x2cc>
100095c8:	20800317 	ldw	r2,12(r4)
100095cc:	20c00217 	ldw	r3,8(r4)
100095d0:	81bfff04 	addi	r6,r16,-4
100095d4:	01000904 	movi	r4,36
100095d8:	18800315 	stw	r2,12(r3)
100095dc:	10c00215 	stw	r3,8(r2)
100095e0:	b0c00217 	ldw	r3,8(r22)
100095e4:	b0800317 	ldw	r2,12(r22)
100095e8:	b4800204 	addi	r18,r22,8
100095ec:	18800315 	stw	r2,12(r3)
100095f0:	10c00215 	stw	r3,8(r2)
100095f4:	21801b36 	bltu	r4,r6,10009664 <_realloc_r+0x2f8>
100095f8:	008004c4 	movi	r2,19
100095fc:	1180352e 	bgeu	r2,r6,100096d4 <_realloc_r+0x368>
10009600:	a8800017 	ldw	r2,0(r21)
10009604:	b0800215 	stw	r2,8(r22)
10009608:	a8800117 	ldw	r2,4(r21)
1000960c:	b0800315 	stw	r2,12(r22)
10009610:	008006c4 	movi	r2,27
10009614:	11807f36 	bltu	r2,r6,10009814 <_realloc_r+0x4a8>
10009618:	b0800404 	addi	r2,r22,16
1000961c:	ad400204 	addi	r21,r21,8
10009620:	00002d06 	br	100096d8 <_realloc_r+0x36c>
10009624:	adbffe17 	ldw	r22,-8(r21)
10009628:	00bfff04 	movi	r2,-4
1000962c:	9dadc83a 	sub	r22,r19,r22
10009630:	b1000117 	ldw	r4,4(r22)
10009634:	2084703a 	and	r2,r4,r2
10009638:	b03f7726 	beq	r22,zero,10009418 <__alt_data_end+0xf8009418>
1000963c:	80af883a 	add	r23,r16,r2
10009640:	b8ff7516 	blt	r23,r3,10009418 <__alt_data_end+0xf8009418>
10009644:	b0800317 	ldw	r2,12(r22)
10009648:	b0c00217 	ldw	r3,8(r22)
1000964c:	81bfff04 	addi	r6,r16,-4
10009650:	01000904 	movi	r4,36
10009654:	18800315 	stw	r2,12(r3)
10009658:	10c00215 	stw	r3,8(r2)
1000965c:	b4800204 	addi	r18,r22,8
10009660:	21bfe52e 	bgeu	r4,r6,100095f8 <__alt_data_end+0xf80095f8>
10009664:	a80b883a 	mov	r5,r21
10009668:	9009883a 	mov	r4,r18
1000966c:	00080300 	call	10008030 <memmove>
10009670:	b821883a 	mov	r16,r23
10009674:	b027883a 	mov	r19,r22
10009678:	003f8a06 	br	100094a4 <__alt_data_end+0xf80094a4>
1000967c:	300b883a 	mov	r5,r6
10009680:	dfc00917 	ldw	ra,36(sp)
10009684:	df000817 	ldw	fp,32(sp)
10009688:	ddc00717 	ldw	r23,28(sp)
1000968c:	dd800617 	ldw	r22,24(sp)
10009690:	dd400517 	ldw	r21,20(sp)
10009694:	dd000417 	ldw	r20,16(sp)
10009698:	dcc00317 	ldw	r19,12(sp)
1000969c:	dc800217 	ldw	r18,8(sp)
100096a0:	dc400117 	ldw	r17,4(sp)
100096a4:	dc000017 	ldw	r16,0(sp)
100096a8:	dec00a04 	addi	sp,sp,40
100096ac:	00075f81 	jmpi	100075f8 <_malloc_r>
100096b0:	a8c00017 	ldw	r3,0(r21)
100096b4:	90c00015 	stw	r3,0(r18)
100096b8:	a8c00117 	ldw	r3,4(r21)
100096bc:	90c00115 	stw	r3,4(r18)
100096c0:	00c006c4 	movi	r3,27
100096c4:	19804536 	bltu	r3,r6,100097dc <_realloc_r+0x470>
100096c8:	90800204 	addi	r2,r18,8
100096cc:	a8c00204 	addi	r3,r21,8
100096d0:	003f6306 	br	10009460 <__alt_data_end+0xf8009460>
100096d4:	9005883a 	mov	r2,r18
100096d8:	a8c00017 	ldw	r3,0(r21)
100096dc:	b821883a 	mov	r16,r23
100096e0:	b027883a 	mov	r19,r22
100096e4:	10c00015 	stw	r3,0(r2)
100096e8:	a8c00117 	ldw	r3,4(r21)
100096ec:	10c00115 	stw	r3,4(r2)
100096f0:	a8c00217 	ldw	r3,8(r21)
100096f4:	10c00215 	stw	r3,8(r2)
100096f8:	003f6a06 	br	100094a4 <__alt_data_end+0xf80094a4>
100096fc:	9c67883a 	add	r19,r19,r17
10009700:	4445c83a 	sub	r2,r8,r17
10009704:	e4c00215 	stw	r19,8(fp)
10009708:	10800054 	ori	r2,r2,1
1000970c:	98800115 	stw	r2,4(r19)
10009710:	a8bfff17 	ldw	r2,-4(r21)
10009714:	a009883a 	mov	r4,r20
10009718:	1080004c 	andi	r2,r2,1
1000971c:	1462b03a 	or	r17,r2,r17
10009720:	ac7fff15 	stw	r17,-4(r21)
10009724:	000f7f40 	call	1000f7f4 <__malloc_unlock>
10009728:	a805883a 	mov	r2,r21
1000972c:	003f6b06 	br	100094dc <__alt_data_end+0xf80094dc>
10009730:	a80b883a 	mov	r5,r21
10009734:	9009883a 	mov	r4,r18
10009738:	00080300 	call	10008030 <memmove>
1000973c:	003f4e06 	br	10009478 <__alt_data_end+0xf8009478>
10009740:	89000404 	addi	r4,r17,16
10009744:	b93fbc16 	blt	r23,r4,10009638 <__alt_data_end+0xf8009638>
10009748:	b0800317 	ldw	r2,12(r22)
1000974c:	b0c00217 	ldw	r3,8(r22)
10009750:	81bfff04 	addi	r6,r16,-4
10009754:	01000904 	movi	r4,36
10009758:	18800315 	stw	r2,12(r3)
1000975c:	10c00215 	stw	r3,8(r2)
10009760:	b4800204 	addi	r18,r22,8
10009764:	21804336 	bltu	r4,r6,10009874 <_realloc_r+0x508>
10009768:	008004c4 	movi	r2,19
1000976c:	11803f2e 	bgeu	r2,r6,1000986c <_realloc_r+0x500>
10009770:	a8800017 	ldw	r2,0(r21)
10009774:	b0800215 	stw	r2,8(r22)
10009778:	a8800117 	ldw	r2,4(r21)
1000977c:	b0800315 	stw	r2,12(r22)
10009780:	008006c4 	movi	r2,27
10009784:	11803f36 	bltu	r2,r6,10009884 <_realloc_r+0x518>
10009788:	b0800404 	addi	r2,r22,16
1000978c:	ad400204 	addi	r21,r21,8
10009790:	a8c00017 	ldw	r3,0(r21)
10009794:	10c00015 	stw	r3,0(r2)
10009798:	a8c00117 	ldw	r3,4(r21)
1000979c:	10c00115 	stw	r3,4(r2)
100097a0:	a8c00217 	ldw	r3,8(r21)
100097a4:	10c00215 	stw	r3,8(r2)
100097a8:	b447883a 	add	r3,r22,r17
100097ac:	bc45c83a 	sub	r2,r23,r17
100097b0:	e0c00215 	stw	r3,8(fp)
100097b4:	10800054 	ori	r2,r2,1
100097b8:	18800115 	stw	r2,4(r3)
100097bc:	b0800117 	ldw	r2,4(r22)
100097c0:	a009883a 	mov	r4,r20
100097c4:	1080004c 	andi	r2,r2,1
100097c8:	1462b03a 	or	r17,r2,r17
100097cc:	b4400115 	stw	r17,4(r22)
100097d0:	000f7f40 	call	1000f7f4 <__malloc_unlock>
100097d4:	9005883a 	mov	r2,r18
100097d8:	003f4006 	br	100094dc <__alt_data_end+0xf80094dc>
100097dc:	a8c00217 	ldw	r3,8(r21)
100097e0:	90c00215 	stw	r3,8(r18)
100097e4:	a8c00317 	ldw	r3,12(r21)
100097e8:	90c00315 	stw	r3,12(r18)
100097ec:	30801126 	beq	r6,r2,10009834 <_realloc_r+0x4c8>
100097f0:	90800404 	addi	r2,r18,16
100097f4:	a8c00404 	addi	r3,r21,16
100097f8:	003f1906 	br	10009460 <__alt_data_end+0xf8009460>
100097fc:	90ffff17 	ldw	r3,-4(r18)
10009800:	00bfff04 	movi	r2,-4
10009804:	a825883a 	mov	r18,r21
10009808:	1884703a 	and	r2,r3,r2
1000980c:	80a1883a 	add	r16,r16,r2
10009810:	003f2406 	br	100094a4 <__alt_data_end+0xf80094a4>
10009814:	a8800217 	ldw	r2,8(r21)
10009818:	b0800415 	stw	r2,16(r22)
1000981c:	a8800317 	ldw	r2,12(r21)
10009820:	b0800515 	stw	r2,20(r22)
10009824:	31000a26 	beq	r6,r4,10009850 <_realloc_r+0x4e4>
10009828:	b0800604 	addi	r2,r22,24
1000982c:	ad400404 	addi	r21,r21,16
10009830:	003fa906 	br	100096d8 <__alt_data_end+0xf80096d8>
10009834:	a9000417 	ldw	r4,16(r21)
10009838:	90800604 	addi	r2,r18,24
1000983c:	a8c00604 	addi	r3,r21,24
10009840:	91000415 	stw	r4,16(r18)
10009844:	a9000517 	ldw	r4,20(r21)
10009848:	91000515 	stw	r4,20(r18)
1000984c:	003f0406 	br	10009460 <__alt_data_end+0xf8009460>
10009850:	a8c00417 	ldw	r3,16(r21)
10009854:	ad400604 	addi	r21,r21,24
10009858:	b0800804 	addi	r2,r22,32
1000985c:	b0c00615 	stw	r3,24(r22)
10009860:	a8ffff17 	ldw	r3,-4(r21)
10009864:	b0c00715 	stw	r3,28(r22)
10009868:	003f9b06 	br	100096d8 <__alt_data_end+0xf80096d8>
1000986c:	9005883a 	mov	r2,r18
10009870:	003fc706 	br	10009790 <__alt_data_end+0xf8009790>
10009874:	a80b883a 	mov	r5,r21
10009878:	9009883a 	mov	r4,r18
1000987c:	00080300 	call	10008030 <memmove>
10009880:	003fc906 	br	100097a8 <__alt_data_end+0xf80097a8>
10009884:	a8800217 	ldw	r2,8(r21)
10009888:	b0800415 	stw	r2,16(r22)
1000988c:	a8800317 	ldw	r2,12(r21)
10009890:	b0800515 	stw	r2,20(r22)
10009894:	31000726 	beq	r6,r4,100098b4 <_realloc_r+0x548>
10009898:	b0800604 	addi	r2,r22,24
1000989c:	ad400404 	addi	r21,r21,16
100098a0:	003fbb06 	br	10009790 <__alt_data_end+0xf8009790>
100098a4:	a009883a 	mov	r4,r20
100098a8:	000f7f40 	call	1000f7f4 <__malloc_unlock>
100098ac:	0005883a 	mov	r2,zero
100098b0:	003f0a06 	br	100094dc <__alt_data_end+0xf80094dc>
100098b4:	a8c00417 	ldw	r3,16(r21)
100098b8:	ad400604 	addi	r21,r21,24
100098bc:	b0800804 	addi	r2,r22,32
100098c0:	b0c00615 	stw	r3,24(r22)
100098c4:	a8ffff17 	ldw	r3,-4(r21)
100098c8:	b0c00715 	stw	r3,28(r22)
100098cc:	003fb006 	br	10009790 <__alt_data_end+0xf8009790>

100098d0 <__fpclassifyd>:
100098d0:	00a00034 	movhi	r2,32768
100098d4:	10bfffc4 	addi	r2,r2,-1
100098d8:	2884703a 	and	r2,r5,r2
100098dc:	10000726 	beq	r2,zero,100098fc <__fpclassifyd+0x2c>
100098e0:	00fffc34 	movhi	r3,65520
100098e4:	019ff834 	movhi	r6,32736
100098e8:	28c7883a 	add	r3,r5,r3
100098ec:	31bfffc4 	addi	r6,r6,-1
100098f0:	30c00536 	bltu	r6,r3,10009908 <__fpclassifyd+0x38>
100098f4:	00800104 	movi	r2,4
100098f8:	f800283a 	ret
100098fc:	2000021e 	bne	r4,zero,10009908 <__fpclassifyd+0x38>
10009900:	00800084 	movi	r2,2
10009904:	f800283a 	ret
10009908:	00dffc34 	movhi	r3,32752
1000990c:	019ff834 	movhi	r6,32736
10009910:	28cb883a 	add	r5,r5,r3
10009914:	31bfffc4 	addi	r6,r6,-1
10009918:	317ff62e 	bgeu	r6,r5,100098f4 <__alt_data_end+0xf80098f4>
1000991c:	01400434 	movhi	r5,16
10009920:	297fffc4 	addi	r5,r5,-1
10009924:	28800236 	bltu	r5,r2,10009930 <__fpclassifyd+0x60>
10009928:	008000c4 	movi	r2,3
1000992c:	f800283a 	ret
10009930:	10c00226 	beq	r2,r3,1000993c <__fpclassifyd+0x6c>
10009934:	0005883a 	mov	r2,zero
10009938:	f800283a 	ret
1000993c:	2005003a 	cmpeq	r2,r4,zero
10009940:	f800283a 	ret

10009944 <_sbrk_r>:
10009944:	defffd04 	addi	sp,sp,-12
10009948:	dc000015 	stw	r16,0(sp)
1000994c:	04040074 	movhi	r16,4097
10009950:	dc400115 	stw	r17,4(sp)
10009954:	8416bb04 	addi	r16,r16,23276
10009958:	2023883a 	mov	r17,r4
1000995c:	2809883a 	mov	r4,r5
10009960:	dfc00215 	stw	ra,8(sp)
10009964:	80000015 	stw	zero,0(r16)
10009968:	000f9dc0 	call	1000f9dc <sbrk>
1000996c:	00ffffc4 	movi	r3,-1
10009970:	10c00526 	beq	r2,r3,10009988 <_sbrk_r+0x44>
10009974:	dfc00217 	ldw	ra,8(sp)
10009978:	dc400117 	ldw	r17,4(sp)
1000997c:	dc000017 	ldw	r16,0(sp)
10009980:	dec00304 	addi	sp,sp,12
10009984:	f800283a 	ret
10009988:	80c00017 	ldw	r3,0(r16)
1000998c:	183ff926 	beq	r3,zero,10009974 <__alt_data_end+0xf8009974>
10009990:	88c00015 	stw	r3,0(r17)
10009994:	003ff706 	br	10009974 <__alt_data_end+0xf8009974>

10009998 <__sread>:
10009998:	defffe04 	addi	sp,sp,-8
1000999c:	dc000015 	stw	r16,0(sp)
100099a0:	2821883a 	mov	r16,r5
100099a4:	2940038f 	ldh	r5,14(r5)
100099a8:	dfc00115 	stw	ra,4(sp)
100099ac:	000b8540 	call	1000b854 <_read_r>
100099b0:	10000716 	blt	r2,zero,100099d0 <__sread+0x38>
100099b4:	80c01417 	ldw	r3,80(r16)
100099b8:	1887883a 	add	r3,r3,r2
100099bc:	80c01415 	stw	r3,80(r16)
100099c0:	dfc00117 	ldw	ra,4(sp)
100099c4:	dc000017 	ldw	r16,0(sp)
100099c8:	dec00204 	addi	sp,sp,8
100099cc:	f800283a 	ret
100099d0:	80c0030b 	ldhu	r3,12(r16)
100099d4:	18fbffcc 	andi	r3,r3,61439
100099d8:	80c0030d 	sth	r3,12(r16)
100099dc:	dfc00117 	ldw	ra,4(sp)
100099e0:	dc000017 	ldw	r16,0(sp)
100099e4:	dec00204 	addi	sp,sp,8
100099e8:	f800283a 	ret

100099ec <__seofread>:
100099ec:	0005883a 	mov	r2,zero
100099f0:	f800283a 	ret

100099f4 <__swrite>:
100099f4:	2880030b 	ldhu	r2,12(r5)
100099f8:	defffb04 	addi	sp,sp,-20
100099fc:	dcc00315 	stw	r19,12(sp)
10009a00:	dc800215 	stw	r18,8(sp)
10009a04:	dc400115 	stw	r17,4(sp)
10009a08:	dc000015 	stw	r16,0(sp)
10009a0c:	dfc00415 	stw	ra,16(sp)
10009a10:	10c0400c 	andi	r3,r2,256
10009a14:	2821883a 	mov	r16,r5
10009a18:	2023883a 	mov	r17,r4
10009a1c:	3025883a 	mov	r18,r6
10009a20:	3827883a 	mov	r19,r7
10009a24:	18000526 	beq	r3,zero,10009a3c <__swrite+0x48>
10009a28:	2940038f 	ldh	r5,14(r5)
10009a2c:	01c00084 	movi	r7,2
10009a30:	000d883a 	mov	r6,zero
10009a34:	000b7f40 	call	1000b7f4 <_lseek_r>
10009a38:	8080030b 	ldhu	r2,12(r16)
10009a3c:	8140038f 	ldh	r5,14(r16)
10009a40:	10bbffcc 	andi	r2,r2,61439
10009a44:	980f883a 	mov	r7,r19
10009a48:	900d883a 	mov	r6,r18
10009a4c:	8809883a 	mov	r4,r17
10009a50:	8080030d 	sth	r2,12(r16)
10009a54:	dfc00417 	ldw	ra,16(sp)
10009a58:	dcc00317 	ldw	r19,12(sp)
10009a5c:	dc800217 	ldw	r18,8(sp)
10009a60:	dc400117 	ldw	r17,4(sp)
10009a64:	dc000017 	ldw	r16,0(sp)
10009a68:	dec00504 	addi	sp,sp,20
10009a6c:	000b2a81 	jmpi	1000b2a8 <_write_r>

10009a70 <__sseek>:
10009a70:	defffe04 	addi	sp,sp,-8
10009a74:	dc000015 	stw	r16,0(sp)
10009a78:	2821883a 	mov	r16,r5
10009a7c:	2940038f 	ldh	r5,14(r5)
10009a80:	dfc00115 	stw	ra,4(sp)
10009a84:	000b7f40 	call	1000b7f4 <_lseek_r>
10009a88:	00ffffc4 	movi	r3,-1
10009a8c:	10c00826 	beq	r2,r3,10009ab0 <__sseek+0x40>
10009a90:	80c0030b 	ldhu	r3,12(r16)
10009a94:	80801415 	stw	r2,80(r16)
10009a98:	18c40014 	ori	r3,r3,4096
10009a9c:	80c0030d 	sth	r3,12(r16)
10009aa0:	dfc00117 	ldw	ra,4(sp)
10009aa4:	dc000017 	ldw	r16,0(sp)
10009aa8:	dec00204 	addi	sp,sp,8
10009aac:	f800283a 	ret
10009ab0:	80c0030b 	ldhu	r3,12(r16)
10009ab4:	18fbffcc 	andi	r3,r3,61439
10009ab8:	80c0030d 	sth	r3,12(r16)
10009abc:	dfc00117 	ldw	ra,4(sp)
10009ac0:	dc000017 	ldw	r16,0(sp)
10009ac4:	dec00204 	addi	sp,sp,8
10009ac8:	f800283a 	ret

10009acc <__sclose>:
10009acc:	2940038f 	ldh	r5,14(r5)
10009ad0:	000b3081 	jmpi	1000b308 <_close_r>

10009ad4 <strcmp>:
10009ad4:	2144b03a 	or	r2,r4,r5
10009ad8:	108000cc 	andi	r2,r2,3
10009adc:	1000171e 	bne	r2,zero,10009b3c <strcmp+0x68>
10009ae0:	20800017 	ldw	r2,0(r4)
10009ae4:	28c00017 	ldw	r3,0(r5)
10009ae8:	10c0141e 	bne	r2,r3,10009b3c <strcmp+0x68>
10009aec:	027fbff4 	movhi	r9,65279
10009af0:	4a7fbfc4 	addi	r9,r9,-257
10009af4:	0086303a 	nor	r3,zero,r2
10009af8:	02202074 	movhi	r8,32897
10009afc:	1245883a 	add	r2,r2,r9
10009b00:	42202004 	addi	r8,r8,-32640
10009b04:	10c4703a 	and	r2,r2,r3
10009b08:	1204703a 	and	r2,r2,r8
10009b0c:	10000226 	beq	r2,zero,10009b18 <strcmp+0x44>
10009b10:	00002306 	br	10009ba0 <strcmp+0xcc>
10009b14:	1000221e 	bne	r2,zero,10009ba0 <strcmp+0xcc>
10009b18:	21000104 	addi	r4,r4,4
10009b1c:	20c00017 	ldw	r3,0(r4)
10009b20:	29400104 	addi	r5,r5,4
10009b24:	29800017 	ldw	r6,0(r5)
10009b28:	1a4f883a 	add	r7,r3,r9
10009b2c:	00c4303a 	nor	r2,zero,r3
10009b30:	3884703a 	and	r2,r7,r2
10009b34:	1204703a 	and	r2,r2,r8
10009b38:	19bff626 	beq	r3,r6,10009b14 <__alt_data_end+0xf8009b14>
10009b3c:	20800003 	ldbu	r2,0(r4)
10009b40:	10c03fcc 	andi	r3,r2,255
10009b44:	18c0201c 	xori	r3,r3,128
10009b48:	18ffe004 	addi	r3,r3,-128
10009b4c:	18000c26 	beq	r3,zero,10009b80 <strcmp+0xac>
10009b50:	29800007 	ldb	r6,0(r5)
10009b54:	19800326 	beq	r3,r6,10009b64 <strcmp+0x90>
10009b58:	00001306 	br	10009ba8 <strcmp+0xd4>
10009b5c:	29800007 	ldb	r6,0(r5)
10009b60:	11800b1e 	bne	r2,r6,10009b90 <strcmp+0xbc>
10009b64:	21000044 	addi	r4,r4,1
10009b68:	20c00003 	ldbu	r3,0(r4)
10009b6c:	29400044 	addi	r5,r5,1
10009b70:	18803fcc 	andi	r2,r3,255
10009b74:	1080201c 	xori	r2,r2,128
10009b78:	10bfe004 	addi	r2,r2,-128
10009b7c:	103ff71e 	bne	r2,zero,10009b5c <__alt_data_end+0xf8009b5c>
10009b80:	0007883a 	mov	r3,zero
10009b84:	28800003 	ldbu	r2,0(r5)
10009b88:	1885c83a 	sub	r2,r3,r2
10009b8c:	f800283a 	ret
10009b90:	28800003 	ldbu	r2,0(r5)
10009b94:	18c03fcc 	andi	r3,r3,255
10009b98:	1885c83a 	sub	r2,r3,r2
10009b9c:	f800283a 	ret
10009ba0:	0005883a 	mov	r2,zero
10009ba4:	f800283a 	ret
10009ba8:	10c03fcc 	andi	r3,r2,255
10009bac:	003ff506 	br	10009b84 <__alt_data_end+0xf8009b84>

10009bb0 <__sprint_r.part.0>:
10009bb0:	28801917 	ldw	r2,100(r5)
10009bb4:	defff604 	addi	sp,sp,-40
10009bb8:	dd400515 	stw	r21,20(sp)
10009bbc:	dfc00915 	stw	ra,36(sp)
10009bc0:	df000815 	stw	fp,32(sp)
10009bc4:	ddc00715 	stw	r23,28(sp)
10009bc8:	dd800615 	stw	r22,24(sp)
10009bcc:	dd000415 	stw	r20,16(sp)
10009bd0:	dcc00315 	stw	r19,12(sp)
10009bd4:	dc800215 	stw	r18,8(sp)
10009bd8:	dc400115 	stw	r17,4(sp)
10009bdc:	dc000015 	stw	r16,0(sp)
10009be0:	1088000c 	andi	r2,r2,8192
10009be4:	302b883a 	mov	r21,r6
10009be8:	10002e26 	beq	r2,zero,10009ca4 <__sprint_r.part.0+0xf4>
10009bec:	30800217 	ldw	r2,8(r6)
10009bf0:	35800017 	ldw	r22,0(r6)
10009bf4:	10002926 	beq	r2,zero,10009c9c <__sprint_r.part.0+0xec>
10009bf8:	2827883a 	mov	r19,r5
10009bfc:	2029883a 	mov	r20,r4
10009c00:	b5c00104 	addi	r23,r22,4
10009c04:	04bfffc4 	movi	r18,-1
10009c08:	bc400017 	ldw	r17,0(r23)
10009c0c:	b4000017 	ldw	r16,0(r22)
10009c10:	0039883a 	mov	fp,zero
10009c14:	8822d0ba 	srli	r17,r17,2
10009c18:	8800031e 	bne	r17,zero,10009c28 <__sprint_r.part.0+0x78>
10009c1c:	00001806 	br	10009c80 <__sprint_r.part.0+0xd0>
10009c20:	84000104 	addi	r16,r16,4
10009c24:	8f001526 	beq	r17,fp,10009c7c <__sprint_r.part.0+0xcc>
10009c28:	81400017 	ldw	r5,0(r16)
10009c2c:	980d883a 	mov	r6,r19
10009c30:	a009883a 	mov	r4,r20
10009c34:	000b6a00 	call	1000b6a0 <_fputwc_r>
10009c38:	e7000044 	addi	fp,fp,1
10009c3c:	14bff81e 	bne	r2,r18,10009c20 <__alt_data_end+0xf8009c20>
10009c40:	9005883a 	mov	r2,r18
10009c44:	a8000215 	stw	zero,8(r21)
10009c48:	a8000115 	stw	zero,4(r21)
10009c4c:	dfc00917 	ldw	ra,36(sp)
10009c50:	df000817 	ldw	fp,32(sp)
10009c54:	ddc00717 	ldw	r23,28(sp)
10009c58:	dd800617 	ldw	r22,24(sp)
10009c5c:	dd400517 	ldw	r21,20(sp)
10009c60:	dd000417 	ldw	r20,16(sp)
10009c64:	dcc00317 	ldw	r19,12(sp)
10009c68:	dc800217 	ldw	r18,8(sp)
10009c6c:	dc400117 	ldw	r17,4(sp)
10009c70:	dc000017 	ldw	r16,0(sp)
10009c74:	dec00a04 	addi	sp,sp,40
10009c78:	f800283a 	ret
10009c7c:	a8800217 	ldw	r2,8(r21)
10009c80:	8c63883a 	add	r17,r17,r17
10009c84:	8c63883a 	add	r17,r17,r17
10009c88:	1445c83a 	sub	r2,r2,r17
10009c8c:	a8800215 	stw	r2,8(r21)
10009c90:	b5800204 	addi	r22,r22,8
10009c94:	bdc00204 	addi	r23,r23,8
10009c98:	103fdb1e 	bne	r2,zero,10009c08 <__alt_data_end+0xf8009c08>
10009c9c:	0005883a 	mov	r2,zero
10009ca0:	003fe806 	br	10009c44 <__alt_data_end+0xf8009c44>
10009ca4:	0006d100 	call	10006d10 <__sfvwrite_r>
10009ca8:	003fe606 	br	10009c44 <__alt_data_end+0xf8009c44>

10009cac <__sprint_r>:
10009cac:	30c00217 	ldw	r3,8(r6)
10009cb0:	18000126 	beq	r3,zero,10009cb8 <__sprint_r+0xc>
10009cb4:	0009bb01 	jmpi	10009bb0 <__sprint_r.part.0>
10009cb8:	30000115 	stw	zero,4(r6)
10009cbc:	0005883a 	mov	r2,zero
10009cc0:	f800283a 	ret

10009cc4 <___vfiprintf_internal_r>:
10009cc4:	deffca04 	addi	sp,sp,-216
10009cc8:	dd403115 	stw	r21,196(sp)
10009ccc:	dfc03515 	stw	ra,212(sp)
10009cd0:	df003415 	stw	fp,208(sp)
10009cd4:	ddc03315 	stw	r23,204(sp)
10009cd8:	dd803215 	stw	r22,200(sp)
10009cdc:	dd003015 	stw	r20,192(sp)
10009ce0:	dcc02f15 	stw	r19,188(sp)
10009ce4:	dc802e15 	stw	r18,184(sp)
10009ce8:	dc402d15 	stw	r17,180(sp)
10009cec:	dc002c15 	stw	r16,176(sp)
10009cf0:	d9002115 	stw	r4,132(sp)
10009cf4:	d9402015 	stw	r5,128(sp)
10009cf8:	d9c02215 	stw	r7,136(sp)
10009cfc:	302b883a 	mov	r21,r6
10009d00:	20000226 	beq	r4,zero,10009d0c <___vfiprintf_internal_r+0x48>
10009d04:	20800e17 	ldw	r2,56(r4)
10009d08:	1000cf26 	beq	r2,zero,1000a048 <___vfiprintf_internal_r+0x384>
10009d0c:	d8c02017 	ldw	r3,128(sp)
10009d10:	1880030b 	ldhu	r2,12(r3)
10009d14:	10c8000c 	andi	r3,r2,8192
10009d18:	1800071e 	bne	r3,zero,10009d38 <___vfiprintf_internal_r+0x74>
10009d1c:	d9402017 	ldw	r5,128(sp)
10009d20:	00f7ffc4 	movi	r3,-8193
10009d24:	10880014 	ori	r2,r2,8192
10009d28:	29001917 	ldw	r4,100(r5)
10009d2c:	2880030d 	sth	r2,12(r5)
10009d30:	20c6703a 	and	r3,r4,r3
10009d34:	28c01915 	stw	r3,100(r5)
10009d38:	10c0020c 	andi	r3,r2,8
10009d3c:	1800a526 	beq	r3,zero,10009fd4 <___vfiprintf_internal_r+0x310>
10009d40:	d9002017 	ldw	r4,128(sp)
10009d44:	20c00417 	ldw	r3,16(r4)
10009d48:	1800a226 	beq	r3,zero,10009fd4 <___vfiprintf_internal_r+0x310>
10009d4c:	1080068c 	andi	r2,r2,26
10009d50:	00c00284 	movi	r3,10
10009d54:	10c0a826 	beq	r2,r3,10009ff8 <___vfiprintf_internal_r+0x334>
10009d58:	d9001a04 	addi	r4,sp,104
10009d5c:	d94019c4 	addi	r5,sp,103
10009d60:	04840074 	movhi	r18,4097
10009d64:	2145c83a 	sub	r2,r4,r5
10009d68:	9488e904 	addi	r18,r18,9124
10009d6c:	d9001e15 	stw	r4,120(sp)
10009d70:	d9401f15 	stw	r5,124(sp)
10009d74:	dec01a15 	stw	sp,104(sp)
10009d78:	d8001c15 	stw	zero,112(sp)
10009d7c:	d8001b15 	stw	zero,108(sp)
10009d80:	d811883a 	mov	r8,sp
10009d84:	d8002615 	stw	zero,152(sp)
10009d88:	d8002415 	stw	zero,144(sp)
10009d8c:	d8802815 	stw	r2,160(sp)
10009d90:	a82d883a 	mov	r22,r21
10009d94:	b0800007 	ldb	r2,0(r22)
10009d98:	10040d26 	beq	r2,zero,1000add0 <___vfiprintf_internal_r+0x110c>
10009d9c:	00c00944 	movi	r3,37
10009da0:	b029883a 	mov	r20,r22
10009da4:	10c0021e 	bne	r2,r3,10009db0 <___vfiprintf_internal_r+0xec>
10009da8:	00001606 	br	10009e04 <___vfiprintf_internal_r+0x140>
10009dac:	10c00326 	beq	r2,r3,10009dbc <___vfiprintf_internal_r+0xf8>
10009db0:	a5000044 	addi	r20,r20,1
10009db4:	a0800007 	ldb	r2,0(r20)
10009db8:	103ffc1e 	bne	r2,zero,10009dac <__alt_data_end+0xf8009dac>
10009dbc:	a5a1c83a 	sub	r16,r20,r22
10009dc0:	80001026 	beq	r16,zero,10009e04 <___vfiprintf_internal_r+0x140>
10009dc4:	d8c01c17 	ldw	r3,112(sp)
10009dc8:	d8801b17 	ldw	r2,108(sp)
10009dcc:	45800015 	stw	r22,0(r8)
10009dd0:	80c7883a 	add	r3,r16,r3
10009dd4:	10800044 	addi	r2,r2,1
10009dd8:	44000115 	stw	r16,4(r8)
10009ddc:	d8c01c15 	stw	r3,112(sp)
10009de0:	d8801b15 	stw	r2,108(sp)
10009de4:	010001c4 	movi	r4,7
10009de8:	2080750e 	bge	r4,r2,10009fc0 <___vfiprintf_internal_r+0x2fc>
10009dec:	1803951e 	bne	r3,zero,1000ac44 <___vfiprintf_internal_r+0xf80>
10009df0:	d8c02417 	ldw	r3,144(sp)
10009df4:	d8001b15 	stw	zero,108(sp)
10009df8:	d811883a 	mov	r8,sp
10009dfc:	1c07883a 	add	r3,r3,r16
10009e00:	d8c02415 	stw	r3,144(sp)
10009e04:	a0800007 	ldb	r2,0(r20)
10009e08:	1002e026 	beq	r2,zero,1000a98c <___vfiprintf_internal_r+0xcc8>
10009e0c:	a5800044 	addi	r22,r20,1
10009e10:	a0c00047 	ldb	r3,1(r20)
10009e14:	d8001d85 	stb	zero,118(sp)
10009e18:	0027883a 	mov	r19,zero
10009e1c:	d8002305 	stb	zero,140(sp)
10009e20:	043fffc4 	movi	r16,-1
10009e24:	d8002515 	stw	zero,148(sp)
10009e28:	0023883a 	mov	r17,zero
10009e2c:	05001604 	movi	r20,88
10009e30:	05400244 	movi	r21,9
10009e34:	402f883a 	mov	r23,r8
10009e38:	b5800044 	addi	r22,r22,1
10009e3c:	18bff804 	addi	r2,r3,-32
10009e40:	a0827736 	bltu	r20,r2,1000a820 <___vfiprintf_internal_r+0xb5c>
10009e44:	100490ba 	slli	r2,r2,2
10009e48:	01040074 	movhi	r4,4097
10009e4c:	21279704 	addi	r4,r4,-24996
10009e50:	1105883a 	add	r2,r2,r4
10009e54:	10800017 	ldw	r2,0(r2)
10009e58:	1000683a 	jmp	r2
10009e5c:	1000a520 	cmpeqi	zero,r2,660
10009e60:	1000a820 	cmpeqi	zero,r2,672
10009e64:	1000a820 	cmpeqi	zero,r2,672
10009e68:	1000a53c 	xorhi	zero,r2,660
10009e6c:	1000a820 	cmpeqi	zero,r2,672
10009e70:	1000a820 	cmpeqi	zero,r2,672
10009e74:	1000a820 	cmpeqi	zero,r2,672
10009e78:	1000a820 	cmpeqi	zero,r2,672
10009e7c:	1000a820 	cmpeqi	zero,r2,672
10009e80:	1000a820 	cmpeqi	zero,r2,672
10009e84:	1000a744 	addi	zero,r2,669
10009e88:	1000a768 	cmpgeui	zero,r2,669
10009e8c:	1000a820 	cmpeqi	zero,r2,672
10009e90:	1000a060 	cmpeqi	zero,r2,641
10009e94:	1000a77c 	xorhi	zero,r2,669
10009e98:	1000a820 	cmpeqi	zero,r2,672
10009e9c:	1000a548 	cmpgei	zero,r2,661
10009ea0:	1000a554 	ori	zero,r2,661
10009ea4:	1000a554 	ori	zero,r2,661
10009ea8:	1000a554 	ori	zero,r2,661
10009eac:	1000a554 	ori	zero,r2,661
10009eb0:	1000a554 	ori	zero,r2,661
10009eb4:	1000a554 	ori	zero,r2,661
10009eb8:	1000a554 	ori	zero,r2,661
10009ebc:	1000a554 	ori	zero,r2,661
10009ec0:	1000a554 	ori	zero,r2,661
10009ec4:	1000a820 	cmpeqi	zero,r2,672
10009ec8:	1000a820 	cmpeqi	zero,r2,672
10009ecc:	1000a820 	cmpeqi	zero,r2,672
10009ed0:	1000a820 	cmpeqi	zero,r2,672
10009ed4:	1000a820 	cmpeqi	zero,r2,672
10009ed8:	1000a820 	cmpeqi	zero,r2,672
10009edc:	1000a820 	cmpeqi	zero,r2,672
10009ee0:	1000a820 	cmpeqi	zero,r2,672
10009ee4:	1000a820 	cmpeqi	zero,r2,672
10009ee8:	1000a820 	cmpeqi	zero,r2,672
10009eec:	1000a594 	ori	zero,r2,662
10009ef0:	1000a820 	cmpeqi	zero,r2,672
10009ef4:	1000a820 	cmpeqi	zero,r2,672
10009ef8:	1000a820 	cmpeqi	zero,r2,672
10009efc:	1000a820 	cmpeqi	zero,r2,672
10009f00:	1000a820 	cmpeqi	zero,r2,672
10009f04:	1000a820 	cmpeqi	zero,r2,672
10009f08:	1000a820 	cmpeqi	zero,r2,672
10009f0c:	1000a820 	cmpeqi	zero,r2,672
10009f10:	1000a820 	cmpeqi	zero,r2,672
10009f14:	1000a820 	cmpeqi	zero,r2,672
10009f18:	1000a5d0 	cmplti	zero,r2,663
10009f1c:	1000a820 	cmpeqi	zero,r2,672
10009f20:	1000a820 	cmpeqi	zero,r2,672
10009f24:	1000a820 	cmpeqi	zero,r2,672
10009f28:	1000a820 	cmpeqi	zero,r2,672
10009f2c:	1000a820 	cmpeqi	zero,r2,672
10009f30:	1000a62c 	andhi	zero,r2,664
10009f34:	1000a820 	cmpeqi	zero,r2,672
10009f38:	1000a820 	cmpeqi	zero,r2,672
10009f3c:	1000a6a0 	cmpeqi	zero,r2,666
10009f40:	1000a820 	cmpeqi	zero,r2,672
10009f44:	1000a820 	cmpeqi	zero,r2,672
10009f48:	1000a820 	cmpeqi	zero,r2,672
10009f4c:	1000a820 	cmpeqi	zero,r2,672
10009f50:	1000a820 	cmpeqi	zero,r2,672
10009f54:	1000a820 	cmpeqi	zero,r2,672
10009f58:	1000a820 	cmpeqi	zero,r2,672
10009f5c:	1000a820 	cmpeqi	zero,r2,672
10009f60:	1000a820 	cmpeqi	zero,r2,672
10009f64:	1000a820 	cmpeqi	zero,r2,672
10009f68:	1000a448 	cmpgei	zero,r2,657
10009f6c:	1000a478 	rdprs	zero,r2,657
10009f70:	1000a820 	cmpeqi	zero,r2,672
10009f74:	1000a820 	cmpeqi	zero,r2,672
10009f78:	1000a820 	cmpeqi	zero,r2,672
10009f7c:	1000a7c8 	cmpgei	zero,r2,671
10009f80:	1000a478 	rdprs	zero,r2,657
10009f84:	1000a820 	cmpeqi	zero,r2,672
10009f88:	1000a820 	cmpeqi	zero,r2,672
10009f8c:	1000a320 	cmpeqi	zero,r2,652
10009f90:	1000a820 	cmpeqi	zero,r2,672
10009f94:	1000a334 	orhi	zero,r2,652
10009f98:	1000a36c 	andhi	zero,r2,653
10009f9c:	1000a06c 	andhi	zero,r2,641
10009fa0:	1000a314 	ori	zero,r2,652
10009fa4:	1000a820 	cmpeqi	zero,r2,672
10009fa8:	1000a6e0 	cmpeqi	zero,r2,667
10009fac:	1000a820 	cmpeqi	zero,r2,672
10009fb0:	1000a72c 	andhi	zero,r2,668
10009fb4:	1000a820 	cmpeqi	zero,r2,672
10009fb8:	1000a820 	cmpeqi	zero,r2,672
10009fbc:	1000a3f0 	cmpltui	zero,r2,655
10009fc0:	42000204 	addi	r8,r8,8
10009fc4:	d8c02417 	ldw	r3,144(sp)
10009fc8:	1c07883a 	add	r3,r3,r16
10009fcc:	d8c02415 	stw	r3,144(sp)
10009fd0:	003f8c06 	br	10009e04 <__alt_data_end+0xf8009e04>
10009fd4:	d9402017 	ldw	r5,128(sp)
10009fd8:	d9002117 	ldw	r4,132(sp)
10009fdc:	00048800 	call	10004880 <__swsetup_r>
10009fe0:	1003c11e 	bne	r2,zero,1000aee8 <___vfiprintf_internal_r+0x1224>
10009fe4:	d9402017 	ldw	r5,128(sp)
10009fe8:	00c00284 	movi	r3,10
10009fec:	2880030b 	ldhu	r2,12(r5)
10009ff0:	1080068c 	andi	r2,r2,26
10009ff4:	10ff581e 	bne	r2,r3,10009d58 <__alt_data_end+0xf8009d58>
10009ff8:	d8c02017 	ldw	r3,128(sp)
10009ffc:	1880038f 	ldh	r2,14(r3)
1000a000:	103f5516 	blt	r2,zero,10009d58 <__alt_data_end+0xf8009d58>
1000a004:	d9c02217 	ldw	r7,136(sp)
1000a008:	d9002117 	ldw	r4,132(sp)
1000a00c:	a80d883a 	mov	r6,r21
1000a010:	180b883a 	mov	r5,r3
1000a014:	000b1ec0 	call	1000b1ec <__sbprintf>
1000a018:	dfc03517 	ldw	ra,212(sp)
1000a01c:	df003417 	ldw	fp,208(sp)
1000a020:	ddc03317 	ldw	r23,204(sp)
1000a024:	dd803217 	ldw	r22,200(sp)
1000a028:	dd403117 	ldw	r21,196(sp)
1000a02c:	dd003017 	ldw	r20,192(sp)
1000a030:	dcc02f17 	ldw	r19,188(sp)
1000a034:	dc802e17 	ldw	r18,184(sp)
1000a038:	dc402d17 	ldw	r17,180(sp)
1000a03c:	dc002c17 	ldw	r16,176(sp)
1000a040:	dec03604 	addi	sp,sp,216
1000a044:	f800283a 	ret
1000a048:	000688c0 	call	1000688c <__sinit>
1000a04c:	003f2f06 	br	10009d0c <__alt_data_end+0xf8009d0c>
1000a050:	d8c02517 	ldw	r3,148(sp)
1000a054:	d8802215 	stw	r2,136(sp)
1000a058:	00c7c83a 	sub	r3,zero,r3
1000a05c:	d8c02515 	stw	r3,148(sp)
1000a060:	8c400114 	ori	r17,r17,4
1000a064:	b0c00007 	ldb	r3,0(r22)
1000a068:	003f7306 	br	10009e38 <__alt_data_end+0xf8009e38>
1000a06c:	00800c04 	movi	r2,48
1000a070:	d9402217 	ldw	r5,136(sp)
1000a074:	d8801d05 	stb	r2,116(sp)
1000a078:	00801e04 	movi	r2,120
1000a07c:	d8801d45 	stb	r2,117(sp)
1000a080:	d8001d85 	stb	zero,118(sp)
1000a084:	b811883a 	mov	r8,r23
1000a088:	28c00104 	addi	r3,r5,4
1000a08c:	2cc00017 	ldw	r19,0(r5)
1000a090:	0029883a 	mov	r20,zero
1000a094:	88800094 	ori	r2,r17,2
1000a098:	80032516 	blt	r16,zero,1000ad30 <___vfiprintf_internal_r+0x106c>
1000a09c:	00bfdfc4 	movi	r2,-129
1000a0a0:	88a2703a 	and	r17,r17,r2
1000a0a4:	d8c02215 	stw	r3,136(sp)
1000a0a8:	8c400094 	ori	r17,r17,2
1000a0ac:	98032a1e 	bne	r19,zero,1000ad58 <___vfiprintf_internal_r+0x1094>
1000a0b0:	00840074 	movhi	r2,4097
1000a0b4:	10888804 	addi	r2,r2,8736
1000a0b8:	d8802615 	stw	r2,152(sp)
1000a0bc:	002b883a 	mov	r21,zero
1000a0c0:	8001741e 	bne	r16,zero,1000a694 <___vfiprintf_internal_r+0x9d0>
1000a0c4:	0021883a 	mov	r16,zero
1000a0c8:	0029883a 	mov	r20,zero
1000a0cc:	ddc01a04 	addi	r23,sp,104
1000a0d0:	8027883a 	mov	r19,r16
1000a0d4:	8500010e 	bge	r16,r20,1000a0dc <___vfiprintf_internal_r+0x418>
1000a0d8:	a027883a 	mov	r19,r20
1000a0dc:	ad403fcc 	andi	r21,r21,255
1000a0e0:	ad40201c 	xori	r21,r21,128
1000a0e4:	ad7fe004 	addi	r21,r21,-128
1000a0e8:	a8000126 	beq	r21,zero,1000a0f0 <___vfiprintf_internal_r+0x42c>
1000a0ec:	9cc00044 	addi	r19,r19,1
1000a0f0:	89c0008c 	andi	r7,r17,2
1000a0f4:	38000126 	beq	r7,zero,1000a0fc <___vfiprintf_internal_r+0x438>
1000a0f8:	9cc00084 	addi	r19,r19,2
1000a0fc:	88c0210c 	andi	r3,r17,132
1000a100:	1801dd1e 	bne	r3,zero,1000a878 <___vfiprintf_internal_r+0xbb4>
1000a104:	d9402517 	ldw	r5,148(sp)
1000a108:	2cebc83a 	sub	r21,r5,r19
1000a10c:	0541da0e 	bge	zero,r21,1000a878 <___vfiprintf_internal_r+0xbb4>
1000a110:	07000404 	movi	fp,16
1000a114:	d8801c17 	ldw	r2,112(sp)
1000a118:	e543be0e 	bge	fp,r21,1000b014 <___vfiprintf_internal_r+0x1350>
1000a11c:	01440074 	movhi	r5,4097
1000a120:	2948ed04 	addi	r5,r5,9140
1000a124:	dc002715 	stw	r16,156(sp)
1000a128:	d9801b17 	ldw	r6,108(sp)
1000a12c:	a821883a 	mov	r16,r21
1000a130:	d9402315 	stw	r5,140(sp)
1000a134:	028001c4 	movi	r10,7
1000a138:	d9c02915 	stw	r7,164(sp)
1000a13c:	182b883a 	mov	r21,r3
1000a140:	00000506 	br	1000a158 <___vfiprintf_internal_r+0x494>
1000a144:	31000084 	addi	r4,r6,2
1000a148:	42000204 	addi	r8,r8,8
1000a14c:	180d883a 	mov	r6,r3
1000a150:	843ffc04 	addi	r16,r16,-16
1000a154:	e4000f0e 	bge	fp,r16,1000a194 <___vfiprintf_internal_r+0x4d0>
1000a158:	01040074 	movhi	r4,4097
1000a15c:	10800404 	addi	r2,r2,16
1000a160:	30c00044 	addi	r3,r6,1
1000a164:	2108ed04 	addi	r4,r4,9140
1000a168:	41000015 	stw	r4,0(r8)
1000a16c:	47000115 	stw	fp,4(r8)
1000a170:	d8801c15 	stw	r2,112(sp)
1000a174:	d8c01b15 	stw	r3,108(sp)
1000a178:	50fff20e 	bge	r10,r3,1000a144 <__alt_data_end+0xf800a144>
1000a17c:	1001b21e 	bne	r2,zero,1000a848 <___vfiprintf_internal_r+0xb84>
1000a180:	843ffc04 	addi	r16,r16,-16
1000a184:	000d883a 	mov	r6,zero
1000a188:	01000044 	movi	r4,1
1000a18c:	d811883a 	mov	r8,sp
1000a190:	e43ff116 	blt	fp,r16,1000a158 <__alt_data_end+0xf800a158>
1000a194:	a807883a 	mov	r3,r21
1000a198:	d9c02917 	ldw	r7,164(sp)
1000a19c:	802b883a 	mov	r21,r16
1000a1a0:	dc002717 	ldw	r16,156(sp)
1000a1a4:	d9402317 	ldw	r5,140(sp)
1000a1a8:	a885883a 	add	r2,r21,r2
1000a1ac:	45400115 	stw	r21,4(r8)
1000a1b0:	41400015 	stw	r5,0(r8)
1000a1b4:	d8801c15 	stw	r2,112(sp)
1000a1b8:	d9001b15 	stw	r4,108(sp)
1000a1bc:	014001c4 	movi	r5,7
1000a1c0:	29026216 	blt	r5,r4,1000ab4c <___vfiprintf_internal_r+0xe88>
1000a1c4:	d9801d87 	ldb	r6,118(sp)
1000a1c8:	42000204 	addi	r8,r8,8
1000a1cc:	21400044 	addi	r5,r4,1
1000a1d0:	3001ae1e 	bne	r6,zero,1000a88c <___vfiprintf_internal_r+0xbc8>
1000a1d4:	3801bb26 	beq	r7,zero,1000a8c4 <___vfiprintf_internal_r+0xc00>
1000a1d8:	d9001d04 	addi	r4,sp,116
1000a1dc:	10800084 	addi	r2,r2,2
1000a1e0:	41000015 	stw	r4,0(r8)
1000a1e4:	01000084 	movi	r4,2
1000a1e8:	41000115 	stw	r4,4(r8)
1000a1ec:	d8801c15 	stw	r2,112(sp)
1000a1f0:	d9401b15 	stw	r5,108(sp)
1000a1f4:	010001c4 	movi	r4,7
1000a1f8:	2142680e 	bge	r4,r5,1000ab9c <___vfiprintf_internal_r+0xed8>
1000a1fc:	1002b11e 	bne	r2,zero,1000acc4 <___vfiprintf_internal_r+0x1000>
1000a200:	01802004 	movi	r6,128
1000a204:	01400044 	movi	r5,1
1000a208:	0009883a 	mov	r4,zero
1000a20c:	d811883a 	mov	r8,sp
1000a210:	1981ae1e 	bne	r3,r6,1000a8cc <___vfiprintf_internal_r+0xc08>
1000a214:	d8c02517 	ldw	r3,148(sp)
1000a218:	1cf9c83a 	sub	fp,r3,r19
1000a21c:	0701ab0e 	bge	zero,fp,1000a8cc <___vfiprintf_internal_r+0xc08>
1000a220:	05400404 	movi	r21,16
1000a224:	af03a90e 	bge	r21,fp,1000b0cc <___vfiprintf_internal_r+0x1408>
1000a228:	01440074 	movhi	r5,4097
1000a22c:	2948e904 	addi	r5,r5,9124
1000a230:	d9402315 	stw	r5,140(sp)
1000a234:	01c001c4 	movi	r7,7
1000a238:	00000506 	br	1000a250 <___vfiprintf_internal_r+0x58c>
1000a23c:	21800084 	addi	r6,r4,2
1000a240:	42000204 	addi	r8,r8,8
1000a244:	1809883a 	mov	r4,r3
1000a248:	e73ffc04 	addi	fp,fp,-16
1000a24c:	af000d0e 	bge	r21,fp,1000a284 <___vfiprintf_internal_r+0x5c0>
1000a250:	10800404 	addi	r2,r2,16
1000a254:	20c00044 	addi	r3,r4,1
1000a258:	44800015 	stw	r18,0(r8)
1000a25c:	45400115 	stw	r21,4(r8)
1000a260:	d8801c15 	stw	r2,112(sp)
1000a264:	d8c01b15 	stw	r3,108(sp)
1000a268:	38fff40e 	bge	r7,r3,1000a23c <__alt_data_end+0xf800a23c>
1000a26c:	10022b1e 	bne	r2,zero,1000ab1c <___vfiprintf_internal_r+0xe58>
1000a270:	e73ffc04 	addi	fp,fp,-16
1000a274:	01800044 	movi	r6,1
1000a278:	0009883a 	mov	r4,zero
1000a27c:	d811883a 	mov	r8,sp
1000a280:	af3ff316 	blt	r21,fp,1000a250 <__alt_data_end+0xf800a250>
1000a284:	d8c02317 	ldw	r3,140(sp)
1000a288:	1705883a 	add	r2,r2,fp
1000a28c:	47000115 	stw	fp,4(r8)
1000a290:	40c00015 	stw	r3,0(r8)
1000a294:	d8801c15 	stw	r2,112(sp)
1000a298:	d9801b15 	stw	r6,108(sp)
1000a29c:	00c001c4 	movi	r3,7
1000a2a0:	19829416 	blt	r3,r6,1000acf4 <___vfiprintf_internal_r+0x1030>
1000a2a4:	8521c83a 	sub	r16,r16,r20
1000a2a8:	42000204 	addi	r8,r8,8
1000a2ac:	31400044 	addi	r5,r6,1
1000a2b0:	3009883a 	mov	r4,r6
1000a2b4:	04018716 	blt	zero,r16,1000a8d4 <___vfiprintf_internal_r+0xc10>
1000a2b8:	a085883a 	add	r2,r20,r2
1000a2bc:	45c00015 	stw	r23,0(r8)
1000a2c0:	45000115 	stw	r20,4(r8)
1000a2c4:	d8801c15 	stw	r2,112(sp)
1000a2c8:	d9401b15 	stw	r5,108(sp)
1000a2cc:	00c001c4 	movi	r3,7
1000a2d0:	1941c20e 	bge	r3,r5,1000a9dc <___vfiprintf_internal_r+0xd18>
1000a2d4:	1002531e 	bne	r2,zero,1000ac24 <___vfiprintf_internal_r+0xf60>
1000a2d8:	d8001b15 	stw	zero,108(sp)
1000a2dc:	8c40010c 	andi	r17,r17,4
1000a2e0:	88023226 	beq	r17,zero,1000abac <___vfiprintf_internal_r+0xee8>
1000a2e4:	d9002517 	ldw	r4,148(sp)
1000a2e8:	24e3c83a 	sub	r17,r4,r19
1000a2ec:	04432916 	blt	zero,r17,1000af94 <___vfiprintf_internal_r+0x12d0>
1000a2f0:	d8802517 	ldw	r2,148(sp)
1000a2f4:	14c0010e 	bge	r2,r19,1000a2fc <___vfiprintf_internal_r+0x638>
1000a2f8:	9805883a 	mov	r2,r19
1000a2fc:	d8c02417 	ldw	r3,144(sp)
1000a300:	1887883a 	add	r3,r3,r2
1000a304:	d8c02415 	stw	r3,144(sp)
1000a308:	d8001b15 	stw	zero,108(sp)
1000a30c:	d811883a 	mov	r8,sp
1000a310:	003ea006 	br	10009d94 <__alt_data_end+0xf8009d94>
1000a314:	8c400814 	ori	r17,r17,32
1000a318:	b0c00007 	ldb	r3,0(r22)
1000a31c:	003ec606 	br	10009e38 <__alt_data_end+0xf8009e38>
1000a320:	b0c00007 	ldb	r3,0(r22)
1000a324:	00801b04 	movi	r2,108
1000a328:	18832026 	beq	r3,r2,1000afac <___vfiprintf_internal_r+0x12e8>
1000a32c:	8c400414 	ori	r17,r17,16
1000a330:	003ec106 	br	10009e38 <__alt_data_end+0xf8009e38>
1000a334:	9cc03fcc 	andi	r19,r19,255
1000a338:	b811883a 	mov	r8,r23
1000a33c:	9803981e 	bne	r19,zero,1000b1a0 <___vfiprintf_internal_r+0x14dc>
1000a340:	8880080c 	andi	r2,r17,32
1000a344:	1002be26 	beq	r2,zero,1000ae40 <___vfiprintf_internal_r+0x117c>
1000a348:	d9002217 	ldw	r4,136(sp)
1000a34c:	d9402417 	ldw	r5,144(sp)
1000a350:	20800017 	ldw	r2,0(r4)
1000a354:	2807d7fa 	srai	r3,r5,31
1000a358:	21000104 	addi	r4,r4,4
1000a35c:	d9002215 	stw	r4,136(sp)
1000a360:	11400015 	stw	r5,0(r2)
1000a364:	10c00115 	stw	r3,4(r2)
1000a368:	003e8a06 	br	10009d94 <__alt_data_end+0xf8009d94>
1000a36c:	9cc03fcc 	andi	r19,r19,255
1000a370:	b811883a 	mov	r8,r23
1000a374:	9803871e 	bne	r19,zero,1000b194 <___vfiprintf_internal_r+0x14d0>
1000a378:	8880080c 	andi	r2,r17,32
1000a37c:	10009a26 	beq	r2,zero,1000a5e8 <___vfiprintf_internal_r+0x924>
1000a380:	d9002217 	ldw	r4,136(sp)
1000a384:	d8001d85 	stb	zero,118(sp)
1000a388:	20800204 	addi	r2,r4,8
1000a38c:	24c00017 	ldw	r19,0(r4)
1000a390:	25000117 	ldw	r20,4(r4)
1000a394:	8002a416 	blt	r16,zero,1000ae28 <___vfiprintf_internal_r+0x1164>
1000a398:	013fdfc4 	movi	r4,-129
1000a39c:	9d06b03a 	or	r3,r19,r20
1000a3a0:	d8802215 	stw	r2,136(sp)
1000a3a4:	8922703a 	and	r17,r17,r4
1000a3a8:	18009b26 	beq	r3,zero,1000a618 <___vfiprintf_internal_r+0x954>
1000a3ac:	002b883a 	mov	r21,zero
1000a3b0:	ddc01a04 	addi	r23,sp,104
1000a3b4:	9806d0fa 	srli	r3,r19,3
1000a3b8:	a008977a 	slli	r4,r20,29
1000a3bc:	a028d0fa 	srli	r20,r20,3
1000a3c0:	9cc001cc 	andi	r19,r19,7
1000a3c4:	98800c04 	addi	r2,r19,48
1000a3c8:	bdffffc4 	addi	r23,r23,-1
1000a3cc:	20e6b03a 	or	r19,r4,r3
1000a3d0:	b8800005 	stb	r2,0(r23)
1000a3d4:	9d06b03a 	or	r3,r19,r20
1000a3d8:	183ff61e 	bne	r3,zero,1000a3b4 <__alt_data_end+0xf800a3b4>
1000a3dc:	88c0004c 	andi	r3,r17,1
1000a3e0:	18021f1e 	bne	r3,zero,1000ac60 <___vfiprintf_internal_r+0xf9c>
1000a3e4:	d9401e17 	ldw	r5,120(sp)
1000a3e8:	2de9c83a 	sub	r20,r5,r23
1000a3ec:	003f3806 	br	1000a0d0 <__alt_data_end+0xf800a0d0>
1000a3f0:	9cc03fcc 	andi	r19,r19,255
1000a3f4:	b811883a 	mov	r8,r23
1000a3f8:	98034f1e 	bne	r19,zero,1000b138 <___vfiprintf_internal_r+0x1474>
1000a3fc:	00840074 	movhi	r2,4097
1000a400:	10888804 	addi	r2,r2,8736
1000a404:	d8802615 	stw	r2,152(sp)
1000a408:	8880080c 	andi	r2,r17,32
1000a40c:	1000ac26 	beq	r2,zero,1000a6c0 <___vfiprintf_internal_r+0x9fc>
1000a410:	d9002217 	ldw	r4,136(sp)
1000a414:	24c00017 	ldw	r19,0(r4)
1000a418:	25000117 	ldw	r20,4(r4)
1000a41c:	21000204 	addi	r4,r4,8
1000a420:	d9002215 	stw	r4,136(sp)
1000a424:	8880004c 	andi	r2,r17,1
1000a428:	1001e726 	beq	r2,zero,1000abc8 <___vfiprintf_internal_r+0xf04>
1000a42c:	9d04b03a 	or	r2,r19,r20
1000a430:	10025c1e 	bne	r2,zero,1000ada4 <___vfiprintf_internal_r+0x10e0>
1000a434:	d8001d85 	stb	zero,118(sp)
1000a438:	80024416 	blt	r16,zero,1000ad4c <___vfiprintf_internal_r+0x1088>
1000a43c:	00bfdfc4 	movi	r2,-129
1000a440:	88a2703a 	and	r17,r17,r2
1000a444:	003f1d06 	br	1000a0bc <__alt_data_end+0xf800a0bc>
1000a448:	d8c02217 	ldw	r3,136(sp)
1000a44c:	04c00044 	movi	r19,1
1000a450:	b811883a 	mov	r8,r23
1000a454:	18800017 	ldw	r2,0(r3)
1000a458:	18c00104 	addi	r3,r3,4
1000a45c:	d8001d85 	stb	zero,118(sp)
1000a460:	d8801005 	stb	r2,64(sp)
1000a464:	d8c02215 	stw	r3,136(sp)
1000a468:	9829883a 	mov	r20,r19
1000a46c:	ddc01004 	addi	r23,sp,64
1000a470:	0021883a 	mov	r16,zero
1000a474:	003f1e06 	br	1000a0f0 <__alt_data_end+0xf800a0f0>
1000a478:	9cc03fcc 	andi	r19,r19,255
1000a47c:	b811883a 	mov	r8,r23
1000a480:	9803331e 	bne	r19,zero,1000b150 <___vfiprintf_internal_r+0x148c>
1000a484:	8880080c 	andi	r2,r17,32
1000a488:	10004826 	beq	r2,zero,1000a5ac <___vfiprintf_internal_r+0x8e8>
1000a48c:	d9002217 	ldw	r4,136(sp)
1000a490:	20800117 	ldw	r2,4(r4)
1000a494:	24c00017 	ldw	r19,0(r4)
1000a498:	21000204 	addi	r4,r4,8
1000a49c:	d9002215 	stw	r4,136(sp)
1000a4a0:	1029883a 	mov	r20,r2
1000a4a4:	10024c16 	blt	r2,zero,1000add8 <___vfiprintf_internal_r+0x1114>
1000a4a8:	dd401d83 	ldbu	r21,118(sp)
1000a4ac:	80007116 	blt	r16,zero,1000a674 <___vfiprintf_internal_r+0x9b0>
1000a4b0:	00ffdfc4 	movi	r3,-129
1000a4b4:	9d04b03a 	or	r2,r19,r20
1000a4b8:	88e2703a 	and	r17,r17,r3
1000a4bc:	1000d126 	beq	r2,zero,1000a804 <___vfiprintf_internal_r+0xb40>
1000a4c0:	a0023526 	beq	r20,zero,1000ad98 <___vfiprintf_internal_r+0x10d4>
1000a4c4:	ddc01a04 	addi	r23,sp,104
1000a4c8:	4039883a 	mov	fp,r8
1000a4cc:	9809883a 	mov	r4,r19
1000a4d0:	a00b883a 	mov	r5,r20
1000a4d4:	01800284 	movi	r6,10
1000a4d8:	000f883a 	mov	r7,zero
1000a4dc:	000c1f00 	call	1000c1f0 <__umoddi3>
1000a4e0:	10800c04 	addi	r2,r2,48
1000a4e4:	bdffffc4 	addi	r23,r23,-1
1000a4e8:	9809883a 	mov	r4,r19
1000a4ec:	a00b883a 	mov	r5,r20
1000a4f0:	b8800005 	stb	r2,0(r23)
1000a4f4:	01800284 	movi	r6,10
1000a4f8:	000f883a 	mov	r7,zero
1000a4fc:	000bbf40 	call	1000bbf4 <__udivdi3>
1000a500:	1027883a 	mov	r19,r2
1000a504:	10c4b03a 	or	r2,r2,r3
1000a508:	1829883a 	mov	r20,r3
1000a50c:	103fef1e 	bne	r2,zero,1000a4cc <__alt_data_end+0xf800a4cc>
1000a510:	d9001e17 	ldw	r4,120(sp)
1000a514:	e011883a 	mov	r8,fp
1000a518:	25e9c83a 	sub	r20,r4,r23
1000a51c:	003eec06 	br	1000a0d0 <__alt_data_end+0xf800a0d0>
1000a520:	d8802307 	ldb	r2,140(sp)
1000a524:	1002361e 	bne	r2,zero,1000ae00 <___vfiprintf_internal_r+0x113c>
1000a528:	00c00804 	movi	r3,32
1000a52c:	d8c02305 	stb	r3,140(sp)
1000a530:	04c00044 	movi	r19,1
1000a534:	b0c00007 	ldb	r3,0(r22)
1000a538:	003e3f06 	br	10009e38 <__alt_data_end+0xf8009e38>
1000a53c:	8c400054 	ori	r17,r17,1
1000a540:	b0c00007 	ldb	r3,0(r22)
1000a544:	003e3c06 	br	10009e38 <__alt_data_end+0xf8009e38>
1000a548:	8c402014 	ori	r17,r17,128
1000a54c:	b0c00007 	ldb	r3,0(r22)
1000a550:	003e3906 	br	10009e38 <__alt_data_end+0xf8009e38>
1000a554:	dc002715 	stw	r16,156(sp)
1000a558:	d8002515 	stw	zero,148(sp)
1000a55c:	1f3ff404 	addi	fp,r3,-48
1000a560:	0009883a 	mov	r4,zero
1000a564:	b021883a 	mov	r16,r22
1000a568:	01400284 	movi	r5,10
1000a56c:	000c9680 	call	1000c968 <__mulsi3>
1000a570:	80c00007 	ldb	r3,0(r16)
1000a574:	e089883a 	add	r4,fp,r2
1000a578:	b5800044 	addi	r22,r22,1
1000a57c:	1f3ff404 	addi	fp,r3,-48
1000a580:	b021883a 	mov	r16,r22
1000a584:	af3ff82e 	bgeu	r21,fp,1000a568 <__alt_data_end+0xf800a568>
1000a588:	d9002515 	stw	r4,148(sp)
1000a58c:	dc002717 	ldw	r16,156(sp)
1000a590:	003e2a06 	br	10009e3c <__alt_data_end+0xf8009e3c>
1000a594:	9cc03fcc 	andi	r19,r19,255
1000a598:	b811883a 	mov	r8,r23
1000a59c:	9802e91e 	bne	r19,zero,1000b144 <___vfiprintf_internal_r+0x1480>
1000a5a0:	8c400414 	ori	r17,r17,16
1000a5a4:	8880080c 	andi	r2,r17,32
1000a5a8:	103fb81e 	bne	r2,zero,1000a48c <__alt_data_end+0xf800a48c>
1000a5ac:	8880040c 	andi	r2,r17,16
1000a5b0:	10022e26 	beq	r2,zero,1000ae6c <___vfiprintf_internal_r+0x11a8>
1000a5b4:	d9402217 	ldw	r5,136(sp)
1000a5b8:	2cc00017 	ldw	r19,0(r5)
1000a5bc:	29400104 	addi	r5,r5,4
1000a5c0:	d9402215 	stw	r5,136(sp)
1000a5c4:	9829d7fa 	srai	r20,r19,31
1000a5c8:	a005883a 	mov	r2,r20
1000a5cc:	003fb506 	br	1000a4a4 <__alt_data_end+0xf800a4a4>
1000a5d0:	9cc03fcc 	andi	r19,r19,255
1000a5d4:	b811883a 	mov	r8,r23
1000a5d8:	9802fa1e 	bne	r19,zero,1000b1c4 <___vfiprintf_internal_r+0x1500>
1000a5dc:	8c400414 	ori	r17,r17,16
1000a5e0:	8880080c 	andi	r2,r17,32
1000a5e4:	103f661e 	bne	r2,zero,1000a380 <__alt_data_end+0xf800a380>
1000a5e8:	8880040c 	andi	r2,r17,16
1000a5ec:	10020626 	beq	r2,zero,1000ae08 <___vfiprintf_internal_r+0x1144>
1000a5f0:	d9402217 	ldw	r5,136(sp)
1000a5f4:	d8001d85 	stb	zero,118(sp)
1000a5f8:	0029883a 	mov	r20,zero
1000a5fc:	28800104 	addi	r2,r5,4
1000a600:	2cc00017 	ldw	r19,0(r5)
1000a604:	80020816 	blt	r16,zero,1000ae28 <___vfiprintf_internal_r+0x1164>
1000a608:	00ffdfc4 	movi	r3,-129
1000a60c:	d8802215 	stw	r2,136(sp)
1000a610:	88e2703a 	and	r17,r17,r3
1000a614:	983f651e 	bne	r19,zero,1000a3ac <__alt_data_end+0xf800a3ac>
1000a618:	002b883a 	mov	r21,zero
1000a61c:	8002cf26 	beq	r16,zero,1000b15c <___vfiprintf_internal_r+0x1498>
1000a620:	0027883a 	mov	r19,zero
1000a624:	0029883a 	mov	r20,zero
1000a628:	003f6106 	br	1000a3b0 <__alt_data_end+0xf800a3b0>
1000a62c:	9cc03fcc 	andi	r19,r19,255
1000a630:	b811883a 	mov	r8,r23
1000a634:	9802e01e 	bne	r19,zero,1000b1b8 <___vfiprintf_internal_r+0x14f4>
1000a638:	8c400414 	ori	r17,r17,16
1000a63c:	8880080c 	andi	r2,r17,32
1000a640:	1000641e 	bne	r2,zero,1000a7d4 <___vfiprintf_internal_r+0xb10>
1000a644:	8880040c 	andi	r2,r17,16
1000a648:	1001c81e 	bne	r2,zero,1000ad6c <___vfiprintf_internal_r+0x10a8>
1000a64c:	8880100c 	andi	r2,r17,64
1000a650:	d8001d85 	stb	zero,118(sp)
1000a654:	1002281e 	bne	r2,zero,1000aef8 <___vfiprintf_internal_r+0x1234>
1000a658:	d9002217 	ldw	r4,136(sp)
1000a65c:	0029883a 	mov	r20,zero
1000a660:	20800104 	addi	r2,r4,4
1000a664:	24c00017 	ldw	r19,0(r4)
1000a668:	8001c60e 	bge	r16,zero,1000ad84 <___vfiprintf_internal_r+0x10c0>
1000a66c:	d8802215 	stw	r2,136(sp)
1000a670:	002b883a 	mov	r21,zero
1000a674:	9d04b03a 	or	r2,r19,r20
1000a678:	103f911e 	bne	r2,zero,1000a4c0 <__alt_data_end+0xf800a4c0>
1000a67c:	00800044 	movi	r2,1
1000a680:	10803fcc 	andi	r2,r2,255
1000a684:	00c00044 	movi	r3,1
1000a688:	10c05f26 	beq	r2,r3,1000a808 <___vfiprintf_internal_r+0xb44>
1000a68c:	00c00084 	movi	r3,2
1000a690:	10ffe31e 	bne	r2,r3,1000a620 <__alt_data_end+0xf800a620>
1000a694:	0027883a 	mov	r19,zero
1000a698:	0029883a 	mov	r20,zero
1000a69c:	00015106 	br	1000abe4 <___vfiprintf_internal_r+0xf20>
1000a6a0:	9cc03fcc 	andi	r19,r19,255
1000a6a4:	b811883a 	mov	r8,r23
1000a6a8:	9802c01e 	bne	r19,zero,1000b1ac <___vfiprintf_internal_r+0x14e8>
1000a6ac:	01440074 	movhi	r5,4097
1000a6b0:	29488304 	addi	r5,r5,8716
1000a6b4:	d9402615 	stw	r5,152(sp)
1000a6b8:	8880080c 	andi	r2,r17,32
1000a6bc:	103f541e 	bne	r2,zero,1000a410 <__alt_data_end+0xf800a410>
1000a6c0:	8880040c 	andi	r2,r17,16
1000a6c4:	1001f226 	beq	r2,zero,1000ae90 <___vfiprintf_internal_r+0x11cc>
1000a6c8:	d9402217 	ldw	r5,136(sp)
1000a6cc:	0029883a 	mov	r20,zero
1000a6d0:	2cc00017 	ldw	r19,0(r5)
1000a6d4:	29400104 	addi	r5,r5,4
1000a6d8:	d9402215 	stw	r5,136(sp)
1000a6dc:	003f5106 	br	1000a424 <__alt_data_end+0xf800a424>
1000a6e0:	d8c02217 	ldw	r3,136(sp)
1000a6e4:	b811883a 	mov	r8,r23
1000a6e8:	d8001d85 	stb	zero,118(sp)
1000a6ec:	1dc00017 	ldw	r23,0(r3)
1000a6f0:	1f000104 	addi	fp,r3,4
1000a6f4:	b8025926 	beq	r23,zero,1000b05c <___vfiprintf_internal_r+0x1398>
1000a6f8:	80023316 	blt	r16,zero,1000afc8 <___vfiprintf_internal_r+0x1304>
1000a6fc:	800d883a 	mov	r6,r16
1000a700:	000b883a 	mov	r5,zero
1000a704:	b809883a 	mov	r4,r23
1000a708:	da002a15 	stw	r8,168(sp)
1000a70c:	0007e040 	call	10007e04 <memchr>
1000a710:	da002a17 	ldw	r8,168(sp)
1000a714:	10026826 	beq	r2,zero,1000b0b8 <___vfiprintf_internal_r+0x13f4>
1000a718:	15e9c83a 	sub	r20,r2,r23
1000a71c:	dd401d83 	ldbu	r21,118(sp)
1000a720:	df002215 	stw	fp,136(sp)
1000a724:	0021883a 	mov	r16,zero
1000a728:	003e6906 	br	1000a0d0 <__alt_data_end+0xf800a0d0>
1000a72c:	9cc03fcc 	andi	r19,r19,255
1000a730:	b811883a 	mov	r8,r23
1000a734:	983fc126 	beq	r19,zero,1000a63c <__alt_data_end+0xf800a63c>
1000a738:	d8c02303 	ldbu	r3,140(sp)
1000a73c:	d8c01d85 	stb	r3,118(sp)
1000a740:	003fbe06 	br	1000a63c <__alt_data_end+0xf800a63c>
1000a744:	d9002217 	ldw	r4,136(sp)
1000a748:	d9402217 	ldw	r5,136(sp)
1000a74c:	21000017 	ldw	r4,0(r4)
1000a750:	28800104 	addi	r2,r5,4
1000a754:	d9002515 	stw	r4,148(sp)
1000a758:	203e3d16 	blt	r4,zero,1000a050 <__alt_data_end+0xf800a050>
1000a75c:	d8802215 	stw	r2,136(sp)
1000a760:	b0c00007 	ldb	r3,0(r22)
1000a764:	003db406 	br	10009e38 <__alt_data_end+0xf8009e38>
1000a768:	00c00ac4 	movi	r3,43
1000a76c:	d8c02305 	stb	r3,140(sp)
1000a770:	04c00044 	movi	r19,1
1000a774:	b0c00007 	ldb	r3,0(r22)
1000a778:	003daf06 	br	10009e38 <__alt_data_end+0xf8009e38>
1000a77c:	b0c00007 	ldb	r3,0(r22)
1000a780:	01000a84 	movi	r4,42
1000a784:	b4000044 	addi	r16,r22,1
1000a788:	19025e26 	beq	r3,r4,1000b104 <___vfiprintf_internal_r+0x1440>
1000a78c:	1f3ff404 	addi	fp,r3,-48
1000a790:	0009883a 	mov	r4,zero
1000a794:	af025236 	bltu	r21,fp,1000b0e0 <___vfiprintf_internal_r+0x141c>
1000a798:	01400284 	movi	r5,10
1000a79c:	000c9680 	call	1000c968 <__mulsi3>
1000a7a0:	80c00007 	ldb	r3,0(r16)
1000a7a4:	1709883a 	add	r4,r2,fp
1000a7a8:	85800044 	addi	r22,r16,1
1000a7ac:	1f3ff404 	addi	fp,r3,-48
1000a7b0:	b021883a 	mov	r16,r22
1000a7b4:	af3ff82e 	bgeu	r21,fp,1000a798 <__alt_data_end+0xf800a798>
1000a7b8:	2021883a 	mov	r16,r4
1000a7bc:	203d9f0e 	bge	r4,zero,10009e3c <__alt_data_end+0xf8009e3c>
1000a7c0:	043fffc4 	movi	r16,-1
1000a7c4:	003d9d06 	br	10009e3c <__alt_data_end+0xf8009e3c>
1000a7c8:	8c401014 	ori	r17,r17,64
1000a7cc:	b0c00007 	ldb	r3,0(r22)
1000a7d0:	003d9906 	br	10009e38 <__alt_data_end+0xf8009e38>
1000a7d4:	d9002217 	ldw	r4,136(sp)
1000a7d8:	d8001d85 	stb	zero,118(sp)
1000a7dc:	20c00204 	addi	r3,r4,8
1000a7e0:	24c00017 	ldw	r19,0(r4)
1000a7e4:	25000117 	ldw	r20,4(r4)
1000a7e8:	8001e716 	blt	r16,zero,1000af88 <___vfiprintf_internal_r+0x12c4>
1000a7ec:	013fdfc4 	movi	r4,-129
1000a7f0:	9d04b03a 	or	r2,r19,r20
1000a7f4:	d8c02215 	stw	r3,136(sp)
1000a7f8:	8922703a 	and	r17,r17,r4
1000a7fc:	002b883a 	mov	r21,zero
1000a800:	103f2f1e 	bne	r2,zero,1000a4c0 <__alt_data_end+0xf800a4c0>
1000a804:	803e2f26 	beq	r16,zero,1000a0c4 <__alt_data_end+0xf800a0c4>
1000a808:	0027883a 	mov	r19,zero
1000a80c:	9cc00c04 	addi	r19,r19,48
1000a810:	dcc019c5 	stb	r19,103(sp)
1000a814:	dd002817 	ldw	r20,160(sp)
1000a818:	ddc019c4 	addi	r23,sp,103
1000a81c:	003e2c06 	br	1000a0d0 <__alt_data_end+0xf800a0d0>
1000a820:	9cc03fcc 	andi	r19,r19,255
1000a824:	b811883a 	mov	r8,r23
1000a828:	9802571e 	bne	r19,zero,1000b188 <___vfiprintf_internal_r+0x14c4>
1000a82c:	18005726 	beq	r3,zero,1000a98c <___vfiprintf_internal_r+0xcc8>
1000a830:	04c00044 	movi	r19,1
1000a834:	d8c01005 	stb	r3,64(sp)
1000a838:	d8001d85 	stb	zero,118(sp)
1000a83c:	9829883a 	mov	r20,r19
1000a840:	ddc01004 	addi	r23,sp,64
1000a844:	003f0a06 	br	1000a470 <__alt_data_end+0xf800a470>
1000a848:	d9402017 	ldw	r5,128(sp)
1000a84c:	d9002117 	ldw	r4,132(sp)
1000a850:	d9801a04 	addi	r6,sp,104
1000a854:	da802a15 	stw	r10,168(sp)
1000a858:	0009bb00 	call	10009bb0 <__sprint_r.part.0>
1000a85c:	da802a17 	ldw	r10,168(sp)
1000a860:	1000501e 	bne	r2,zero,1000a9a4 <___vfiprintf_internal_r+0xce0>
1000a864:	d9801b17 	ldw	r6,108(sp)
1000a868:	d8801c17 	ldw	r2,112(sp)
1000a86c:	d811883a 	mov	r8,sp
1000a870:	31000044 	addi	r4,r6,1
1000a874:	003e3606 	br	1000a150 <__alt_data_end+0xf800a150>
1000a878:	d9001b17 	ldw	r4,108(sp)
1000a87c:	d8801c17 	ldw	r2,112(sp)
1000a880:	21400044 	addi	r5,r4,1
1000a884:	d9801d87 	ldb	r6,118(sp)
1000a888:	303e5226 	beq	r6,zero,1000a1d4 <__alt_data_end+0xf800a1d4>
1000a88c:	01800044 	movi	r6,1
1000a890:	d9001d84 	addi	r4,sp,118
1000a894:	1185883a 	add	r2,r2,r6
1000a898:	41000015 	stw	r4,0(r8)
1000a89c:	41800115 	stw	r6,4(r8)
1000a8a0:	d8801c15 	stw	r2,112(sp)
1000a8a4:	d9401b15 	stw	r5,108(sp)
1000a8a8:	010001c4 	movi	r4,7
1000a8ac:	2140b00e 	bge	r4,r5,1000ab70 <___vfiprintf_internal_r+0xeac>
1000a8b0:	1000f61e 	bne	r2,zero,1000ac8c <___vfiprintf_internal_r+0xfc8>
1000a8b4:	3800b31e 	bne	r7,zero,1000ab84 <___vfiprintf_internal_r+0xec0>
1000a8b8:	0009883a 	mov	r4,zero
1000a8bc:	300b883a 	mov	r5,r6
1000a8c0:	d811883a 	mov	r8,sp
1000a8c4:	01802004 	movi	r6,128
1000a8c8:	19be5226 	beq	r3,r6,1000a214 <__alt_data_end+0xf800a214>
1000a8cc:	8521c83a 	sub	r16,r16,r20
1000a8d0:	043e790e 	bge	zero,r16,1000a2b8 <__alt_data_end+0xf800a2b8>
1000a8d4:	05400404 	movi	r21,16
1000a8d8:	ac01b00e 	bge	r21,r16,1000af9c <___vfiprintf_internal_r+0x12d8>
1000a8dc:	01440074 	movhi	r5,4097
1000a8e0:	2948e904 	addi	r5,r5,9124
1000a8e4:	d9402315 	stw	r5,140(sp)
1000a8e8:	070001c4 	movi	fp,7
1000a8ec:	00000506 	br	1000a904 <___vfiprintf_internal_r+0xc40>
1000a8f0:	21400084 	addi	r5,r4,2
1000a8f4:	42000204 	addi	r8,r8,8
1000a8f8:	1809883a 	mov	r4,r3
1000a8fc:	843ffc04 	addi	r16,r16,-16
1000a900:	ac000d0e 	bge	r21,r16,1000a938 <___vfiprintf_internal_r+0xc74>
1000a904:	10800404 	addi	r2,r2,16
1000a908:	20c00044 	addi	r3,r4,1
1000a90c:	44800015 	stw	r18,0(r8)
1000a910:	45400115 	stw	r21,4(r8)
1000a914:	d8801c15 	stw	r2,112(sp)
1000a918:	d8c01b15 	stw	r3,108(sp)
1000a91c:	e0fff40e 	bge	fp,r3,1000a8f0 <__alt_data_end+0xf800a8f0>
1000a920:	1000101e 	bne	r2,zero,1000a964 <___vfiprintf_internal_r+0xca0>
1000a924:	843ffc04 	addi	r16,r16,-16
1000a928:	01400044 	movi	r5,1
1000a92c:	0009883a 	mov	r4,zero
1000a930:	d811883a 	mov	r8,sp
1000a934:	ac3ff316 	blt	r21,r16,1000a904 <__alt_data_end+0xf800a904>
1000a938:	d8c02317 	ldw	r3,140(sp)
1000a93c:	1405883a 	add	r2,r2,r16
1000a940:	44000115 	stw	r16,4(r8)
1000a944:	40c00015 	stw	r3,0(r8)
1000a948:	d8801c15 	stw	r2,112(sp)
1000a94c:	d9401b15 	stw	r5,108(sp)
1000a950:	00c001c4 	movi	r3,7
1000a954:	19401916 	blt	r3,r5,1000a9bc <___vfiprintf_internal_r+0xcf8>
1000a958:	42000204 	addi	r8,r8,8
1000a95c:	29400044 	addi	r5,r5,1
1000a960:	003e5506 	br	1000a2b8 <__alt_data_end+0xf800a2b8>
1000a964:	d9402017 	ldw	r5,128(sp)
1000a968:	d9002117 	ldw	r4,132(sp)
1000a96c:	d9801a04 	addi	r6,sp,104
1000a970:	0009bb00 	call	10009bb0 <__sprint_r.part.0>
1000a974:	10000b1e 	bne	r2,zero,1000a9a4 <___vfiprintf_internal_r+0xce0>
1000a978:	d9001b17 	ldw	r4,108(sp)
1000a97c:	d8801c17 	ldw	r2,112(sp)
1000a980:	d811883a 	mov	r8,sp
1000a984:	21400044 	addi	r5,r4,1
1000a988:	003fdc06 	br	1000a8fc <__alt_data_end+0xf800a8fc>
1000a98c:	d8801c17 	ldw	r2,112(sp)
1000a990:	10000426 	beq	r2,zero,1000a9a4 <___vfiprintf_internal_r+0xce0>
1000a994:	d9402017 	ldw	r5,128(sp)
1000a998:	d9002117 	ldw	r4,132(sp)
1000a99c:	d9801a04 	addi	r6,sp,104
1000a9a0:	0009bb00 	call	10009bb0 <__sprint_r.part.0>
1000a9a4:	d9402017 	ldw	r5,128(sp)
1000a9a8:	2880030b 	ldhu	r2,12(r5)
1000a9ac:	1080100c 	andi	r2,r2,64
1000a9b0:	10014d1e 	bne	r2,zero,1000aee8 <___vfiprintf_internal_r+0x1224>
1000a9b4:	d8802417 	ldw	r2,144(sp)
1000a9b8:	003d9706 	br	1000a018 <__alt_data_end+0xf800a018>
1000a9bc:	1000d21e 	bne	r2,zero,1000ad08 <___vfiprintf_internal_r+0x1044>
1000a9c0:	00c00044 	movi	r3,1
1000a9c4:	a005883a 	mov	r2,r20
1000a9c8:	ddc00015 	stw	r23,0(sp)
1000a9cc:	dd000115 	stw	r20,4(sp)
1000a9d0:	dd001c15 	stw	r20,112(sp)
1000a9d4:	d8c01b15 	stw	r3,108(sp)
1000a9d8:	d811883a 	mov	r8,sp
1000a9dc:	42000204 	addi	r8,r8,8
1000a9e0:	8c40010c 	andi	r17,r17,4
1000a9e4:	88004026 	beq	r17,zero,1000aae8 <___vfiprintf_internal_r+0xe24>
1000a9e8:	d9002517 	ldw	r4,148(sp)
1000a9ec:	24e3c83a 	sub	r17,r4,r19
1000a9f0:	04403d0e 	bge	zero,r17,1000aae8 <___vfiprintf_internal_r+0xe24>
1000a9f4:	04000404 	movi	r16,16
1000a9f8:	8441a90e 	bge	r16,r17,1000b0a0 <___vfiprintf_internal_r+0x13dc>
1000a9fc:	00c40074 	movhi	r3,4097
1000aa00:	18c8ed04 	addi	r3,r3,9140
1000aa04:	d9001b17 	ldw	r4,108(sp)
1000aa08:	d8c02315 	stw	r3,140(sp)
1000aa0c:	050001c4 	movi	r20,7
1000aa10:	dd402117 	ldw	r21,132(sp)
1000aa14:	ddc02017 	ldw	r23,128(sp)
1000aa18:	00000506 	br	1000aa30 <___vfiprintf_internal_r+0xd6c>
1000aa1c:	21400084 	addi	r5,r4,2
1000aa20:	42000204 	addi	r8,r8,8
1000aa24:	1809883a 	mov	r4,r3
1000aa28:	8c7ffc04 	addi	r17,r17,-16
1000aa2c:	84400f0e 	bge	r16,r17,1000aa6c <___vfiprintf_internal_r+0xda8>
1000aa30:	01440074 	movhi	r5,4097
1000aa34:	10800404 	addi	r2,r2,16
1000aa38:	20c00044 	addi	r3,r4,1
1000aa3c:	2948ed04 	addi	r5,r5,9140
1000aa40:	41400015 	stw	r5,0(r8)
1000aa44:	44000115 	stw	r16,4(r8)
1000aa48:	d8801c15 	stw	r2,112(sp)
1000aa4c:	d8c01b15 	stw	r3,108(sp)
1000aa50:	a0fff20e 	bge	r20,r3,1000aa1c <__alt_data_end+0xf800aa1c>
1000aa54:	1000141e 	bne	r2,zero,1000aaa8 <___vfiprintf_internal_r+0xde4>
1000aa58:	8c7ffc04 	addi	r17,r17,-16
1000aa5c:	01400044 	movi	r5,1
1000aa60:	0009883a 	mov	r4,zero
1000aa64:	d811883a 	mov	r8,sp
1000aa68:	847ff116 	blt	r16,r17,1000aa30 <__alt_data_end+0xf800aa30>
1000aa6c:	d8c02317 	ldw	r3,140(sp)
1000aa70:	1445883a 	add	r2,r2,r17
1000aa74:	44400115 	stw	r17,4(r8)
1000aa78:	40c00015 	stw	r3,0(r8)
1000aa7c:	d8801c15 	stw	r2,112(sp)
1000aa80:	d9401b15 	stw	r5,108(sp)
1000aa84:	00c001c4 	movi	r3,7
1000aa88:	1940170e 	bge	r3,r5,1000aae8 <___vfiprintf_internal_r+0xe24>
1000aa8c:	1000101e 	bne	r2,zero,1000aad0 <___vfiprintf_internal_r+0xe0c>
1000aa90:	d8802517 	ldw	r2,148(sp)
1000aa94:	14c11616 	blt	r2,r19,1000aef0 <___vfiprintf_internal_r+0x122c>
1000aa98:	d9002417 	ldw	r4,144(sp)
1000aa9c:	2089883a 	add	r4,r4,r2
1000aaa0:	d9002415 	stw	r4,144(sp)
1000aaa4:	003e1806 	br	1000a308 <__alt_data_end+0xf800a308>
1000aaa8:	d9801a04 	addi	r6,sp,104
1000aaac:	b80b883a 	mov	r5,r23
1000aab0:	a809883a 	mov	r4,r21
1000aab4:	0009bb00 	call	10009bb0 <__sprint_r.part.0>
1000aab8:	103fba1e 	bne	r2,zero,1000a9a4 <__alt_data_end+0xf800a9a4>
1000aabc:	d9001b17 	ldw	r4,108(sp)
1000aac0:	d8801c17 	ldw	r2,112(sp)
1000aac4:	d811883a 	mov	r8,sp
1000aac8:	21400044 	addi	r5,r4,1
1000aacc:	003fd606 	br	1000aa28 <__alt_data_end+0xf800aa28>
1000aad0:	d9402017 	ldw	r5,128(sp)
1000aad4:	d9002117 	ldw	r4,132(sp)
1000aad8:	d9801a04 	addi	r6,sp,104
1000aadc:	0009bb00 	call	10009bb0 <__sprint_r.part.0>
1000aae0:	103fb01e 	bne	r2,zero,1000a9a4 <__alt_data_end+0xf800a9a4>
1000aae4:	d8801c17 	ldw	r2,112(sp)
1000aae8:	d8c02517 	ldw	r3,148(sp)
1000aaec:	1cc0010e 	bge	r3,r19,1000aaf4 <___vfiprintf_internal_r+0xe30>
1000aaf0:	9807883a 	mov	r3,r19
1000aaf4:	d9002417 	ldw	r4,144(sp)
1000aaf8:	20c9883a 	add	r4,r4,r3
1000aafc:	d9002415 	stw	r4,144(sp)
1000ab00:	103e0126 	beq	r2,zero,1000a308 <__alt_data_end+0xf800a308>
1000ab04:	d9402017 	ldw	r5,128(sp)
1000ab08:	d9002117 	ldw	r4,132(sp)
1000ab0c:	d9801a04 	addi	r6,sp,104
1000ab10:	0009bb00 	call	10009bb0 <__sprint_r.part.0>
1000ab14:	103dfc26 	beq	r2,zero,1000a308 <__alt_data_end+0xf800a308>
1000ab18:	003fa206 	br	1000a9a4 <__alt_data_end+0xf800a9a4>
1000ab1c:	d9402017 	ldw	r5,128(sp)
1000ab20:	d9002117 	ldw	r4,132(sp)
1000ab24:	d9801a04 	addi	r6,sp,104
1000ab28:	d9c02b15 	stw	r7,172(sp)
1000ab2c:	0009bb00 	call	10009bb0 <__sprint_r.part.0>
1000ab30:	d9c02b17 	ldw	r7,172(sp)
1000ab34:	103f9b1e 	bne	r2,zero,1000a9a4 <__alt_data_end+0xf800a9a4>
1000ab38:	d9001b17 	ldw	r4,108(sp)
1000ab3c:	d8801c17 	ldw	r2,112(sp)
1000ab40:	d811883a 	mov	r8,sp
1000ab44:	21800044 	addi	r6,r4,1
1000ab48:	003dbf06 	br	1000a248 <__alt_data_end+0xf800a248>
1000ab4c:	1000d81e 	bne	r2,zero,1000aeb0 <___vfiprintf_internal_r+0x11ec>
1000ab50:	d9001d87 	ldb	r4,118(sp)
1000ab54:	20000a26 	beq	r4,zero,1000ab80 <___vfiprintf_internal_r+0xebc>
1000ab58:	00800044 	movi	r2,1
1000ab5c:	d9001d84 	addi	r4,sp,118
1000ab60:	100b883a 	mov	r5,r2
1000ab64:	d9000015 	stw	r4,0(sp)
1000ab68:	d8800115 	stw	r2,4(sp)
1000ab6c:	d811883a 	mov	r8,sp
1000ab70:	2809883a 	mov	r4,r5
1000ab74:	42000204 	addi	r8,r8,8
1000ab78:	29400044 	addi	r5,r5,1
1000ab7c:	003d9506 	br	1000a1d4 <__alt_data_end+0xf800a1d4>
1000ab80:	3800fd26 	beq	r7,zero,1000af78 <___vfiprintf_internal_r+0x12b4>
1000ab84:	00800084 	movi	r2,2
1000ab88:	d9001d04 	addi	r4,sp,116
1000ab8c:	d9000015 	stw	r4,0(sp)
1000ab90:	d8800115 	stw	r2,4(sp)
1000ab94:	01400044 	movi	r5,1
1000ab98:	d811883a 	mov	r8,sp
1000ab9c:	2809883a 	mov	r4,r5
1000aba0:	42000204 	addi	r8,r8,8
1000aba4:	29400044 	addi	r5,r5,1
1000aba8:	003f4606 	br	1000a8c4 <__alt_data_end+0xf800a8c4>
1000abac:	d8802517 	ldw	r2,148(sp)
1000abb0:	14c0010e 	bge	r2,r19,1000abb8 <___vfiprintf_internal_r+0xef4>
1000abb4:	9805883a 	mov	r2,r19
1000abb8:	d9402417 	ldw	r5,144(sp)
1000abbc:	288b883a 	add	r5,r5,r2
1000abc0:	d9402415 	stw	r5,144(sp)
1000abc4:	003dd006 	br	1000a308 <__alt_data_end+0xf800a308>
1000abc8:	d8001d85 	stb	zero,118(sp)
1000abcc:	80005d16 	blt	r16,zero,1000ad44 <___vfiprintf_internal_r+0x1080>
1000abd0:	00ffdfc4 	movi	r3,-129
1000abd4:	9d04b03a 	or	r2,r19,r20
1000abd8:	88e2703a 	and	r17,r17,r3
1000abdc:	103d3726 	beq	r2,zero,1000a0bc <__alt_data_end+0xf800a0bc>
1000abe0:	002b883a 	mov	r21,zero
1000abe4:	d9002617 	ldw	r4,152(sp)
1000abe8:	ddc01a04 	addi	r23,sp,104
1000abec:	988003cc 	andi	r2,r19,15
1000abf0:	a006973a 	slli	r3,r20,28
1000abf4:	2085883a 	add	r2,r4,r2
1000abf8:	9826d13a 	srli	r19,r19,4
1000abfc:	10800003 	ldbu	r2,0(r2)
1000ac00:	a028d13a 	srli	r20,r20,4
1000ac04:	bdffffc4 	addi	r23,r23,-1
1000ac08:	1ce6b03a 	or	r19,r3,r19
1000ac0c:	b8800005 	stb	r2,0(r23)
1000ac10:	9d04b03a 	or	r2,r19,r20
1000ac14:	103ff51e 	bne	r2,zero,1000abec <__alt_data_end+0xf800abec>
1000ac18:	d8801e17 	ldw	r2,120(sp)
1000ac1c:	15e9c83a 	sub	r20,r2,r23
1000ac20:	003d2b06 	br	1000a0d0 <__alt_data_end+0xf800a0d0>
1000ac24:	d9402017 	ldw	r5,128(sp)
1000ac28:	d9002117 	ldw	r4,132(sp)
1000ac2c:	d9801a04 	addi	r6,sp,104
1000ac30:	0009bb00 	call	10009bb0 <__sprint_r.part.0>
1000ac34:	103f5b1e 	bne	r2,zero,1000a9a4 <__alt_data_end+0xf800a9a4>
1000ac38:	d8801c17 	ldw	r2,112(sp)
1000ac3c:	d811883a 	mov	r8,sp
1000ac40:	003f6706 	br	1000a9e0 <__alt_data_end+0xf800a9e0>
1000ac44:	d9402017 	ldw	r5,128(sp)
1000ac48:	d9002117 	ldw	r4,132(sp)
1000ac4c:	d9801a04 	addi	r6,sp,104
1000ac50:	0009bb00 	call	10009bb0 <__sprint_r.part.0>
1000ac54:	103f531e 	bne	r2,zero,1000a9a4 <__alt_data_end+0xf800a9a4>
1000ac58:	d811883a 	mov	r8,sp
1000ac5c:	003cd906 	br	10009fc4 <__alt_data_end+0xf8009fc4>
1000ac60:	10803fcc 	andi	r2,r2,255
1000ac64:	1080201c 	xori	r2,r2,128
1000ac68:	10bfe004 	addi	r2,r2,-128
1000ac6c:	00c00c04 	movi	r3,48
1000ac70:	10ffe926 	beq	r2,r3,1000ac18 <__alt_data_end+0xf800ac18>
1000ac74:	b8ffffc5 	stb	r3,-1(r23)
1000ac78:	d8c01e17 	ldw	r3,120(sp)
1000ac7c:	b8bfffc4 	addi	r2,r23,-1
1000ac80:	102f883a 	mov	r23,r2
1000ac84:	18a9c83a 	sub	r20,r3,r2
1000ac88:	003d1106 	br	1000a0d0 <__alt_data_end+0xf800a0d0>
1000ac8c:	d9402017 	ldw	r5,128(sp)
1000ac90:	d9002117 	ldw	r4,132(sp)
1000ac94:	d9801a04 	addi	r6,sp,104
1000ac98:	d8c02a15 	stw	r3,168(sp)
1000ac9c:	d9c02b15 	stw	r7,172(sp)
1000aca0:	0009bb00 	call	10009bb0 <__sprint_r.part.0>
1000aca4:	d8c02a17 	ldw	r3,168(sp)
1000aca8:	d9c02b17 	ldw	r7,172(sp)
1000acac:	103f3d1e 	bne	r2,zero,1000a9a4 <__alt_data_end+0xf800a9a4>
1000acb0:	d9001b17 	ldw	r4,108(sp)
1000acb4:	d8801c17 	ldw	r2,112(sp)
1000acb8:	d811883a 	mov	r8,sp
1000acbc:	21400044 	addi	r5,r4,1
1000acc0:	003d4406 	br	1000a1d4 <__alt_data_end+0xf800a1d4>
1000acc4:	d9402017 	ldw	r5,128(sp)
1000acc8:	d9002117 	ldw	r4,132(sp)
1000accc:	d9801a04 	addi	r6,sp,104
1000acd0:	d8c02a15 	stw	r3,168(sp)
1000acd4:	0009bb00 	call	10009bb0 <__sprint_r.part.0>
1000acd8:	d8c02a17 	ldw	r3,168(sp)
1000acdc:	103f311e 	bne	r2,zero,1000a9a4 <__alt_data_end+0xf800a9a4>
1000ace0:	d9001b17 	ldw	r4,108(sp)
1000ace4:	d8801c17 	ldw	r2,112(sp)
1000ace8:	d811883a 	mov	r8,sp
1000acec:	21400044 	addi	r5,r4,1
1000acf0:	003ef406 	br	1000a8c4 <__alt_data_end+0xf800a8c4>
1000acf4:	1000bd1e 	bne	r2,zero,1000afec <___vfiprintf_internal_r+0x1328>
1000acf8:	01400044 	movi	r5,1
1000acfc:	0009883a 	mov	r4,zero
1000ad00:	d811883a 	mov	r8,sp
1000ad04:	003ef106 	br	1000a8cc <__alt_data_end+0xf800a8cc>
1000ad08:	d9402017 	ldw	r5,128(sp)
1000ad0c:	d9002117 	ldw	r4,132(sp)
1000ad10:	d9801a04 	addi	r6,sp,104
1000ad14:	0009bb00 	call	10009bb0 <__sprint_r.part.0>
1000ad18:	103f221e 	bne	r2,zero,1000a9a4 <__alt_data_end+0xf800a9a4>
1000ad1c:	d9401b17 	ldw	r5,108(sp)
1000ad20:	d8801c17 	ldw	r2,112(sp)
1000ad24:	d811883a 	mov	r8,sp
1000ad28:	29400044 	addi	r5,r5,1
1000ad2c:	003d6206 	br	1000a2b8 <__alt_data_end+0xf800a2b8>
1000ad30:	01440074 	movhi	r5,4097
1000ad34:	29488804 	addi	r5,r5,8736
1000ad38:	d9402615 	stw	r5,152(sp)
1000ad3c:	d8c02215 	stw	r3,136(sp)
1000ad40:	1023883a 	mov	r17,r2
1000ad44:	9d04b03a 	or	r2,r19,r20
1000ad48:	103fa51e 	bne	r2,zero,1000abe0 <__alt_data_end+0xf800abe0>
1000ad4c:	002b883a 	mov	r21,zero
1000ad50:	00800084 	movi	r2,2
1000ad54:	003e4a06 	br	1000a680 <__alt_data_end+0xf800a680>
1000ad58:	01440074 	movhi	r5,4097
1000ad5c:	29488804 	addi	r5,r5,8736
1000ad60:	002b883a 	mov	r21,zero
1000ad64:	d9402615 	stw	r5,152(sp)
1000ad68:	003f9e06 	br	1000abe4 <__alt_data_end+0xf800abe4>
1000ad6c:	d9402217 	ldw	r5,136(sp)
1000ad70:	d8001d85 	stb	zero,118(sp)
1000ad74:	0029883a 	mov	r20,zero
1000ad78:	28800104 	addi	r2,r5,4
1000ad7c:	2cc00017 	ldw	r19,0(r5)
1000ad80:	803e3a16 	blt	r16,zero,1000a66c <__alt_data_end+0xf800a66c>
1000ad84:	00ffdfc4 	movi	r3,-129
1000ad88:	d8802215 	stw	r2,136(sp)
1000ad8c:	88e2703a 	and	r17,r17,r3
1000ad90:	002b883a 	mov	r21,zero
1000ad94:	983e9b26 	beq	r19,zero,1000a804 <__alt_data_end+0xf800a804>
1000ad98:	00800244 	movi	r2,9
1000ad9c:	14fdc936 	bltu	r2,r19,1000a4c4 <__alt_data_end+0xf800a4c4>
1000ada0:	003e9a06 	br	1000a80c <__alt_data_end+0xf800a80c>
1000ada4:	00800c04 	movi	r2,48
1000ada8:	d8c01d45 	stb	r3,117(sp)
1000adac:	d8801d05 	stb	r2,116(sp)
1000adb0:	d8001d85 	stb	zero,118(sp)
1000adb4:	88c00094 	ori	r3,r17,2
1000adb8:	80009c16 	blt	r16,zero,1000b02c <___vfiprintf_internal_r+0x1368>
1000adbc:	00bfdfc4 	movi	r2,-129
1000adc0:	88a2703a 	and	r17,r17,r2
1000adc4:	8c400094 	ori	r17,r17,2
1000adc8:	002b883a 	mov	r21,zero
1000adcc:	003f8506 	br	1000abe4 <__alt_data_end+0xf800abe4>
1000add0:	b029883a 	mov	r20,r22
1000add4:	003c0b06 	br	10009e04 <__alt_data_end+0xf8009e04>
1000add8:	04e7c83a 	sub	r19,zero,r19
1000addc:	05400b44 	movi	r21,45
1000ade0:	9804c03a 	cmpne	r2,r19,zero
1000ade4:	0529c83a 	sub	r20,zero,r20
1000ade8:	dd401d85 	stb	r21,118(sp)
1000adec:	a0a9c83a 	sub	r20,r20,r2
1000adf0:	80009716 	blt	r16,zero,1000b050 <___vfiprintf_internal_r+0x138c>
1000adf4:	00bfdfc4 	movi	r2,-129
1000adf8:	88a2703a 	and	r17,r17,r2
1000adfc:	003db006 	br	1000a4c0 <__alt_data_end+0xf800a4c0>
1000ae00:	b0c00007 	ldb	r3,0(r22)
1000ae04:	003c0c06 	br	10009e38 <__alt_data_end+0xf8009e38>
1000ae08:	8880100c 	andi	r2,r17,64
1000ae0c:	d8001d85 	stb	zero,118(sp)
1000ae10:	1000461e 	bne	r2,zero,1000af2c <___vfiprintf_internal_r+0x1268>
1000ae14:	d9002217 	ldw	r4,136(sp)
1000ae18:	0029883a 	mov	r20,zero
1000ae1c:	20800104 	addi	r2,r4,4
1000ae20:	24c00017 	ldw	r19,0(r4)
1000ae24:	803df80e 	bge	r16,zero,1000a608 <__alt_data_end+0xf800a608>
1000ae28:	9d06b03a 	or	r3,r19,r20
1000ae2c:	d8802215 	stw	r2,136(sp)
1000ae30:	183d5e1e 	bne	r3,zero,1000a3ac <__alt_data_end+0xf800a3ac>
1000ae34:	002b883a 	mov	r21,zero
1000ae38:	0005883a 	mov	r2,zero
1000ae3c:	003e1006 	br	1000a680 <__alt_data_end+0xf800a680>
1000ae40:	8880040c 	andi	r2,r17,16
1000ae44:	1000321e 	bne	r2,zero,1000af10 <___vfiprintf_internal_r+0x124c>
1000ae48:	8c40100c 	andi	r17,r17,64
1000ae4c:	88008d26 	beq	r17,zero,1000b084 <___vfiprintf_internal_r+0x13c0>
1000ae50:	d9402217 	ldw	r5,136(sp)
1000ae54:	d8c02417 	ldw	r3,144(sp)
1000ae58:	28800017 	ldw	r2,0(r5)
1000ae5c:	29400104 	addi	r5,r5,4
1000ae60:	d9402215 	stw	r5,136(sp)
1000ae64:	10c0000d 	sth	r3,0(r2)
1000ae68:	003bca06 	br	10009d94 <__alt_data_end+0xf8009d94>
1000ae6c:	8880100c 	andi	r2,r17,64
1000ae70:	10003a26 	beq	r2,zero,1000af5c <___vfiprintf_internal_r+0x1298>
1000ae74:	d8802217 	ldw	r2,136(sp)
1000ae78:	14c0000f 	ldh	r19,0(r2)
1000ae7c:	10800104 	addi	r2,r2,4
1000ae80:	d8802215 	stw	r2,136(sp)
1000ae84:	9829d7fa 	srai	r20,r19,31
1000ae88:	a005883a 	mov	r2,r20
1000ae8c:	003d8506 	br	1000a4a4 <__alt_data_end+0xf800a4a4>
1000ae90:	8880100c 	andi	r2,r17,64
1000ae94:	10002b26 	beq	r2,zero,1000af44 <___vfiprintf_internal_r+0x1280>
1000ae98:	d8802217 	ldw	r2,136(sp)
1000ae9c:	0029883a 	mov	r20,zero
1000aea0:	14c0000b 	ldhu	r19,0(r2)
1000aea4:	10800104 	addi	r2,r2,4
1000aea8:	d8802215 	stw	r2,136(sp)
1000aeac:	003d5d06 	br	1000a424 <__alt_data_end+0xf800a424>
1000aeb0:	d9402017 	ldw	r5,128(sp)
1000aeb4:	d9002117 	ldw	r4,132(sp)
1000aeb8:	d9801a04 	addi	r6,sp,104
1000aebc:	d8c02a15 	stw	r3,168(sp)
1000aec0:	d9c02b15 	stw	r7,172(sp)
1000aec4:	0009bb00 	call	10009bb0 <__sprint_r.part.0>
1000aec8:	d8c02a17 	ldw	r3,168(sp)
1000aecc:	d9c02b17 	ldw	r7,172(sp)
1000aed0:	103eb41e 	bne	r2,zero,1000a9a4 <__alt_data_end+0xf800a9a4>
1000aed4:	d9001b17 	ldw	r4,108(sp)
1000aed8:	d8801c17 	ldw	r2,112(sp)
1000aedc:	d811883a 	mov	r8,sp
1000aee0:	21400044 	addi	r5,r4,1
1000aee4:	003e6706 	br	1000a884 <__alt_data_end+0xf800a884>
1000aee8:	00bfffc4 	movi	r2,-1
1000aeec:	003c4a06 	br	1000a018 <__alt_data_end+0xf800a018>
1000aef0:	9805883a 	mov	r2,r19
1000aef4:	003ee806 	br	1000aa98 <__alt_data_end+0xf800aa98>
1000aef8:	d8c02217 	ldw	r3,136(sp)
1000aefc:	0029883a 	mov	r20,zero
1000af00:	18800104 	addi	r2,r3,4
1000af04:	1cc0000b 	ldhu	r19,0(r3)
1000af08:	803f9e0e 	bge	r16,zero,1000ad84 <__alt_data_end+0xf800ad84>
1000af0c:	003dd706 	br	1000a66c <__alt_data_end+0xf800a66c>
1000af10:	d8c02217 	ldw	r3,136(sp)
1000af14:	d9002417 	ldw	r4,144(sp)
1000af18:	18800017 	ldw	r2,0(r3)
1000af1c:	18c00104 	addi	r3,r3,4
1000af20:	d8c02215 	stw	r3,136(sp)
1000af24:	11000015 	stw	r4,0(r2)
1000af28:	003b9a06 	br	10009d94 <__alt_data_end+0xf8009d94>
1000af2c:	d8c02217 	ldw	r3,136(sp)
1000af30:	0029883a 	mov	r20,zero
1000af34:	18800104 	addi	r2,r3,4
1000af38:	1cc0000b 	ldhu	r19,0(r3)
1000af3c:	803db20e 	bge	r16,zero,1000a608 <__alt_data_end+0xf800a608>
1000af40:	003fb906 	br	1000ae28 <__alt_data_end+0xf800ae28>
1000af44:	d9002217 	ldw	r4,136(sp)
1000af48:	0029883a 	mov	r20,zero
1000af4c:	24c00017 	ldw	r19,0(r4)
1000af50:	21000104 	addi	r4,r4,4
1000af54:	d9002215 	stw	r4,136(sp)
1000af58:	003d3206 	br	1000a424 <__alt_data_end+0xf800a424>
1000af5c:	d8c02217 	ldw	r3,136(sp)
1000af60:	1cc00017 	ldw	r19,0(r3)
1000af64:	18c00104 	addi	r3,r3,4
1000af68:	d8c02215 	stw	r3,136(sp)
1000af6c:	9829d7fa 	srai	r20,r19,31
1000af70:	a005883a 	mov	r2,r20
1000af74:	003d4b06 	br	1000a4a4 <__alt_data_end+0xf800a4a4>
1000af78:	0009883a 	mov	r4,zero
1000af7c:	01400044 	movi	r5,1
1000af80:	d811883a 	mov	r8,sp
1000af84:	003e4f06 	br	1000a8c4 <__alt_data_end+0xf800a8c4>
1000af88:	d8c02215 	stw	r3,136(sp)
1000af8c:	002b883a 	mov	r21,zero
1000af90:	003db806 	br	1000a674 <__alt_data_end+0xf800a674>
1000af94:	d811883a 	mov	r8,sp
1000af98:	003e9606 	br	1000a9f4 <__alt_data_end+0xf800a9f4>
1000af9c:	01040074 	movhi	r4,4097
1000afa0:	2108e904 	addi	r4,r4,9124
1000afa4:	d9002315 	stw	r4,140(sp)
1000afa8:	003e6306 	br	1000a938 <__alt_data_end+0xf800a938>
1000afac:	b0c00043 	ldbu	r3,1(r22)
1000afb0:	8c400814 	ori	r17,r17,32
1000afb4:	b5800044 	addi	r22,r22,1
1000afb8:	18c03fcc 	andi	r3,r3,255
1000afbc:	18c0201c 	xori	r3,r3,128
1000afc0:	18ffe004 	addi	r3,r3,-128
1000afc4:	003b9c06 	br	10009e38 <__alt_data_end+0xf8009e38>
1000afc8:	b809883a 	mov	r4,r23
1000afcc:	da002a15 	stw	r8,168(sp)
1000afd0:	00024340 	call	10002434 <strlen>
1000afd4:	1029883a 	mov	r20,r2
1000afd8:	dd401d83 	ldbu	r21,118(sp)
1000afdc:	df002215 	stw	fp,136(sp)
1000afe0:	0021883a 	mov	r16,zero
1000afe4:	da002a17 	ldw	r8,168(sp)
1000afe8:	003c3906 	br	1000a0d0 <__alt_data_end+0xf800a0d0>
1000afec:	d9402017 	ldw	r5,128(sp)
1000aff0:	d9002117 	ldw	r4,132(sp)
1000aff4:	d9801a04 	addi	r6,sp,104
1000aff8:	0009bb00 	call	10009bb0 <__sprint_r.part.0>
1000affc:	103e691e 	bne	r2,zero,1000a9a4 <__alt_data_end+0xf800a9a4>
1000b000:	d9001b17 	ldw	r4,108(sp)
1000b004:	d8801c17 	ldw	r2,112(sp)
1000b008:	d811883a 	mov	r8,sp
1000b00c:	21400044 	addi	r5,r4,1
1000b010:	003e2e06 	br	1000a8cc <__alt_data_end+0xf800a8cc>
1000b014:	01040074 	movhi	r4,4097
1000b018:	2108ed04 	addi	r4,r4,9140
1000b01c:	d9002315 	stw	r4,140(sp)
1000b020:	d9001b17 	ldw	r4,108(sp)
1000b024:	21000044 	addi	r4,r4,1
1000b028:	003c5e06 	br	1000a1a4 <__alt_data_end+0xf800a1a4>
1000b02c:	002b883a 	mov	r21,zero
1000b030:	00800084 	movi	r2,2
1000b034:	10803fcc 	andi	r2,r2,255
1000b038:	01000044 	movi	r4,1
1000b03c:	11002b26 	beq	r2,r4,1000b0ec <___vfiprintf_internal_r+0x1428>
1000b040:	01000084 	movi	r4,2
1000b044:	11002b1e 	bne	r2,r4,1000b0f4 <___vfiprintf_internal_r+0x1430>
1000b048:	1823883a 	mov	r17,r3
1000b04c:	003ee506 	br	1000abe4 <__alt_data_end+0xf800abe4>
1000b050:	8807883a 	mov	r3,r17
1000b054:	00800044 	movi	r2,1
1000b058:	003ff606 	br	1000b034 <__alt_data_end+0xf800b034>
1000b05c:	00800184 	movi	r2,6
1000b060:	1400012e 	bgeu	r2,r16,1000b068 <___vfiprintf_internal_r+0x13a4>
1000b064:	1021883a 	mov	r16,r2
1000b068:	8029883a 	mov	r20,r16
1000b06c:	8027883a 	mov	r19,r16
1000b070:	80002216 	blt	r16,zero,1000b0fc <___vfiprintf_internal_r+0x1438>
1000b074:	05c40074 	movhi	r23,4097
1000b078:	df002215 	stw	fp,136(sp)
1000b07c:	bdc88d04 	addi	r23,r23,8756
1000b080:	003cfb06 	br	1000a470 <__alt_data_end+0xf800a470>
1000b084:	d9002217 	ldw	r4,136(sp)
1000b088:	d9402417 	ldw	r5,144(sp)
1000b08c:	20800017 	ldw	r2,0(r4)
1000b090:	21000104 	addi	r4,r4,4
1000b094:	d9002215 	stw	r4,136(sp)
1000b098:	11400015 	stw	r5,0(r2)
1000b09c:	003b3d06 	br	10009d94 <__alt_data_end+0xf8009d94>
1000b0a0:	01440074 	movhi	r5,4097
1000b0a4:	2948ed04 	addi	r5,r5,9140
1000b0a8:	d9402315 	stw	r5,140(sp)
1000b0ac:	d9401b17 	ldw	r5,108(sp)
1000b0b0:	29400044 	addi	r5,r5,1
1000b0b4:	003e6d06 	br	1000aa6c <__alt_data_end+0xf800aa6c>
1000b0b8:	8029883a 	mov	r20,r16
1000b0bc:	dd401d83 	ldbu	r21,118(sp)
1000b0c0:	df002215 	stw	fp,136(sp)
1000b0c4:	0021883a 	mov	r16,zero
1000b0c8:	003c0106 	br	1000a0d0 <__alt_data_end+0xf800a0d0>
1000b0cc:	00c40074 	movhi	r3,4097
1000b0d0:	18c8e904 	addi	r3,r3,9124
1000b0d4:	d8c02315 	stw	r3,140(sp)
1000b0d8:	280d883a 	mov	r6,r5
1000b0dc:	003c6906 	br	1000a284 <__alt_data_end+0xf800a284>
1000b0e0:	802d883a 	mov	r22,r16
1000b0e4:	0021883a 	mov	r16,zero
1000b0e8:	003b5406 	br	10009e3c <__alt_data_end+0xf8009e3c>
1000b0ec:	1823883a 	mov	r17,r3
1000b0f0:	003cf306 	br	1000a4c0 <__alt_data_end+0xf800a4c0>
1000b0f4:	1823883a 	mov	r17,r3
1000b0f8:	003cad06 	br	1000a3b0 <__alt_data_end+0xf800a3b0>
1000b0fc:	0027883a 	mov	r19,zero
1000b100:	003fdc06 	br	1000b074 <__alt_data_end+0xf800b074>
1000b104:	d9402217 	ldw	r5,136(sp)
1000b108:	8005883a 	mov	r2,r16
1000b10c:	b0c00043 	ldbu	r3,1(r22)
1000b110:	2c000017 	ldw	r16,0(r5)
1000b114:	29000104 	addi	r4,r5,4
1000b118:	d9002215 	stw	r4,136(sp)
1000b11c:	102d883a 	mov	r22,r2
1000b120:	803fa50e 	bge	r16,zero,1000afb8 <__alt_data_end+0xf800afb8>
1000b124:	18c03fcc 	andi	r3,r3,255
1000b128:	18c0201c 	xori	r3,r3,128
1000b12c:	043fffc4 	movi	r16,-1
1000b130:	18ffe004 	addi	r3,r3,-128
1000b134:	003b4006 	br	10009e38 <__alt_data_end+0xf8009e38>
1000b138:	d9402303 	ldbu	r5,140(sp)
1000b13c:	d9401d85 	stb	r5,118(sp)
1000b140:	003cae06 	br	1000a3fc <__alt_data_end+0xf800a3fc>
1000b144:	d8c02303 	ldbu	r3,140(sp)
1000b148:	d8c01d85 	stb	r3,118(sp)
1000b14c:	003d1406 	br	1000a5a0 <__alt_data_end+0xf800a5a0>
1000b150:	d8c02303 	ldbu	r3,140(sp)
1000b154:	d8c01d85 	stb	r3,118(sp)
1000b158:	003cca06 	br	1000a484 <__alt_data_end+0xf800a484>
1000b15c:	8880004c 	andi	r2,r17,1
1000b160:	002b883a 	mov	r21,zero
1000b164:	10000526 	beq	r2,zero,1000b17c <___vfiprintf_internal_r+0x14b8>
1000b168:	00800c04 	movi	r2,48
1000b16c:	d88019c5 	stb	r2,103(sp)
1000b170:	dd002817 	ldw	r20,160(sp)
1000b174:	ddc019c4 	addi	r23,sp,103
1000b178:	003bd506 	br	1000a0d0 <__alt_data_end+0xf800a0d0>
1000b17c:	0029883a 	mov	r20,zero
1000b180:	ddc01a04 	addi	r23,sp,104
1000b184:	003bd206 	br	1000a0d0 <__alt_data_end+0xf800a0d0>
1000b188:	d9002303 	ldbu	r4,140(sp)
1000b18c:	d9001d85 	stb	r4,118(sp)
1000b190:	003da606 	br	1000a82c <__alt_data_end+0xf800a82c>
1000b194:	d8c02303 	ldbu	r3,140(sp)
1000b198:	d8c01d85 	stb	r3,118(sp)
1000b19c:	003c7606 	br	1000a378 <__alt_data_end+0xf800a378>
1000b1a0:	d8c02303 	ldbu	r3,140(sp)
1000b1a4:	d8c01d85 	stb	r3,118(sp)
1000b1a8:	003c6506 	br	1000a340 <__alt_data_end+0xf800a340>
1000b1ac:	d9002303 	ldbu	r4,140(sp)
1000b1b0:	d9001d85 	stb	r4,118(sp)
1000b1b4:	003d3d06 	br	1000a6ac <__alt_data_end+0xf800a6ac>
1000b1b8:	d8c02303 	ldbu	r3,140(sp)
1000b1bc:	d8c01d85 	stb	r3,118(sp)
1000b1c0:	003d1d06 	br	1000a638 <__alt_data_end+0xf800a638>
1000b1c4:	d8c02303 	ldbu	r3,140(sp)
1000b1c8:	d8c01d85 	stb	r3,118(sp)
1000b1cc:	003d0306 	br	1000a5dc <__alt_data_end+0xf800a5dc>

1000b1d0 <__vfiprintf_internal>:
1000b1d0:	00840074 	movhi	r2,4097
1000b1d4:	108fea04 	addi	r2,r2,16296
1000b1d8:	300f883a 	mov	r7,r6
1000b1dc:	280d883a 	mov	r6,r5
1000b1e0:	200b883a 	mov	r5,r4
1000b1e4:	11000017 	ldw	r4,0(r2)
1000b1e8:	0009cc41 	jmpi	10009cc4 <___vfiprintf_internal_r>

1000b1ec <__sbprintf>:
1000b1ec:	2880030b 	ldhu	r2,12(r5)
1000b1f0:	2ac01917 	ldw	r11,100(r5)
1000b1f4:	2a80038b 	ldhu	r10,14(r5)
1000b1f8:	2a400717 	ldw	r9,28(r5)
1000b1fc:	2a000917 	ldw	r8,36(r5)
1000b200:	defee204 	addi	sp,sp,-1144
1000b204:	00c10004 	movi	r3,1024
1000b208:	dc011a15 	stw	r16,1128(sp)
1000b20c:	10bfff4c 	andi	r2,r2,65533
1000b210:	2821883a 	mov	r16,r5
1000b214:	d8cb883a 	add	r5,sp,r3
1000b218:	dc811c15 	stw	r18,1136(sp)
1000b21c:	dc411b15 	stw	r17,1132(sp)
1000b220:	dfc11d15 	stw	ra,1140(sp)
1000b224:	2025883a 	mov	r18,r4
1000b228:	d881030d 	sth	r2,1036(sp)
1000b22c:	dac11915 	stw	r11,1124(sp)
1000b230:	da81038d 	sth	r10,1038(sp)
1000b234:	da410715 	stw	r9,1052(sp)
1000b238:	da010915 	stw	r8,1060(sp)
1000b23c:	dec10015 	stw	sp,1024(sp)
1000b240:	dec10415 	stw	sp,1040(sp)
1000b244:	d8c10215 	stw	r3,1032(sp)
1000b248:	d8c10515 	stw	r3,1044(sp)
1000b24c:	d8010615 	stw	zero,1048(sp)
1000b250:	0009cc40 	call	10009cc4 <___vfiprintf_internal_r>
1000b254:	1023883a 	mov	r17,r2
1000b258:	10000416 	blt	r2,zero,1000b26c <__sbprintf+0x80>
1000b25c:	d9410004 	addi	r5,sp,1024
1000b260:	9009883a 	mov	r4,r18
1000b264:	00064a00 	call	100064a0 <_fflush_r>
1000b268:	10000d1e 	bne	r2,zero,1000b2a0 <__sbprintf+0xb4>
1000b26c:	d881030b 	ldhu	r2,1036(sp)
1000b270:	1080100c 	andi	r2,r2,64
1000b274:	10000326 	beq	r2,zero,1000b284 <__sbprintf+0x98>
1000b278:	8080030b 	ldhu	r2,12(r16)
1000b27c:	10801014 	ori	r2,r2,64
1000b280:	8080030d 	sth	r2,12(r16)
1000b284:	8805883a 	mov	r2,r17
1000b288:	dfc11d17 	ldw	ra,1140(sp)
1000b28c:	dc811c17 	ldw	r18,1136(sp)
1000b290:	dc411b17 	ldw	r17,1132(sp)
1000b294:	dc011a17 	ldw	r16,1128(sp)
1000b298:	dec11e04 	addi	sp,sp,1144
1000b29c:	f800283a 	ret
1000b2a0:	047fffc4 	movi	r17,-1
1000b2a4:	003ff106 	br	1000b26c <__alt_data_end+0xf800b26c>

1000b2a8 <_write_r>:
1000b2a8:	defffd04 	addi	sp,sp,-12
1000b2ac:	2805883a 	mov	r2,r5
1000b2b0:	dc000015 	stw	r16,0(sp)
1000b2b4:	04040074 	movhi	r16,4097
1000b2b8:	dc400115 	stw	r17,4(sp)
1000b2bc:	300b883a 	mov	r5,r6
1000b2c0:	8416bb04 	addi	r16,r16,23276
1000b2c4:	2023883a 	mov	r17,r4
1000b2c8:	380d883a 	mov	r6,r7
1000b2cc:	1009883a 	mov	r4,r2
1000b2d0:	dfc00215 	stw	ra,8(sp)
1000b2d4:	80000015 	stw	zero,0(r16)
1000b2d8:	000faf80 	call	1000faf8 <write>
1000b2dc:	00ffffc4 	movi	r3,-1
1000b2e0:	10c00526 	beq	r2,r3,1000b2f8 <_write_r+0x50>
1000b2e4:	dfc00217 	ldw	ra,8(sp)
1000b2e8:	dc400117 	ldw	r17,4(sp)
1000b2ec:	dc000017 	ldw	r16,0(sp)
1000b2f0:	dec00304 	addi	sp,sp,12
1000b2f4:	f800283a 	ret
1000b2f8:	80c00017 	ldw	r3,0(r16)
1000b2fc:	183ff926 	beq	r3,zero,1000b2e4 <__alt_data_end+0xf800b2e4>
1000b300:	88c00015 	stw	r3,0(r17)
1000b304:	003ff706 	br	1000b2e4 <__alt_data_end+0xf800b2e4>

1000b308 <_close_r>:
1000b308:	defffd04 	addi	sp,sp,-12
1000b30c:	dc000015 	stw	r16,0(sp)
1000b310:	04040074 	movhi	r16,4097
1000b314:	dc400115 	stw	r17,4(sp)
1000b318:	8416bb04 	addi	r16,r16,23276
1000b31c:	2023883a 	mov	r17,r4
1000b320:	2809883a 	mov	r4,r5
1000b324:	dfc00215 	stw	ra,8(sp)
1000b328:	80000015 	stw	zero,0(r16)
1000b32c:	000f2700 	call	1000f270 <close>
1000b330:	00ffffc4 	movi	r3,-1
1000b334:	10c00526 	beq	r2,r3,1000b34c <_close_r+0x44>
1000b338:	dfc00217 	ldw	ra,8(sp)
1000b33c:	dc400117 	ldw	r17,4(sp)
1000b340:	dc000017 	ldw	r16,0(sp)
1000b344:	dec00304 	addi	sp,sp,12
1000b348:	f800283a 	ret
1000b34c:	80c00017 	ldw	r3,0(r16)
1000b350:	183ff926 	beq	r3,zero,1000b338 <__alt_data_end+0xf800b338>
1000b354:	88c00015 	stw	r3,0(r17)
1000b358:	003ff706 	br	1000b338 <__alt_data_end+0xf800b338>

1000b35c <_calloc_r>:
1000b35c:	defffe04 	addi	sp,sp,-8
1000b360:	2805883a 	mov	r2,r5
1000b364:	dc000015 	stw	r16,0(sp)
1000b368:	300b883a 	mov	r5,r6
1000b36c:	2021883a 	mov	r16,r4
1000b370:	1009883a 	mov	r4,r2
1000b374:	dfc00115 	stw	ra,4(sp)
1000b378:	000c9680 	call	1000c968 <__mulsi3>
1000b37c:	100b883a 	mov	r5,r2
1000b380:	8009883a 	mov	r4,r16
1000b384:	00075f80 	call	100075f8 <_malloc_r>
1000b388:	10002926 	beq	r2,zero,1000b430 <_calloc_r+0xd4>
1000b38c:	11bfff17 	ldw	r6,-4(r2)
1000b390:	1021883a 	mov	r16,r2
1000b394:	00bfff04 	movi	r2,-4
1000b398:	308c703a 	and	r6,r6,r2
1000b39c:	00c00904 	movi	r3,36
1000b3a0:	308d883a 	add	r6,r6,r2
1000b3a4:	19801636 	bltu	r3,r6,1000b400 <_calloc_r+0xa4>
1000b3a8:	008004c4 	movi	r2,19
1000b3ac:	11800b2e 	bgeu	r2,r6,1000b3dc <_calloc_r+0x80>
1000b3b0:	80000015 	stw	zero,0(r16)
1000b3b4:	80000115 	stw	zero,4(r16)
1000b3b8:	008006c4 	movi	r2,27
1000b3bc:	11801a2e 	bgeu	r2,r6,1000b428 <_calloc_r+0xcc>
1000b3c0:	80000215 	stw	zero,8(r16)
1000b3c4:	80000315 	stw	zero,12(r16)
1000b3c8:	30c0151e 	bne	r6,r3,1000b420 <_calloc_r+0xc4>
1000b3cc:	80000415 	stw	zero,16(r16)
1000b3d0:	80800604 	addi	r2,r16,24
1000b3d4:	80000515 	stw	zero,20(r16)
1000b3d8:	00000106 	br	1000b3e0 <_calloc_r+0x84>
1000b3dc:	8005883a 	mov	r2,r16
1000b3e0:	10000015 	stw	zero,0(r2)
1000b3e4:	10000115 	stw	zero,4(r2)
1000b3e8:	10000215 	stw	zero,8(r2)
1000b3ec:	8005883a 	mov	r2,r16
1000b3f0:	dfc00117 	ldw	ra,4(sp)
1000b3f4:	dc000017 	ldw	r16,0(sp)
1000b3f8:	dec00204 	addi	sp,sp,8
1000b3fc:	f800283a 	ret
1000b400:	000b883a 	mov	r5,zero
1000b404:	8009883a 	mov	r4,r16
1000b408:	000818c0 	call	1000818c <memset>
1000b40c:	8005883a 	mov	r2,r16
1000b410:	dfc00117 	ldw	ra,4(sp)
1000b414:	dc000017 	ldw	r16,0(sp)
1000b418:	dec00204 	addi	sp,sp,8
1000b41c:	f800283a 	ret
1000b420:	80800404 	addi	r2,r16,16
1000b424:	003fee06 	br	1000b3e0 <__alt_data_end+0xf800b3e0>
1000b428:	80800204 	addi	r2,r16,8
1000b42c:	003fec06 	br	1000b3e0 <__alt_data_end+0xf800b3e0>
1000b430:	0005883a 	mov	r2,zero
1000b434:	003fee06 	br	1000b3f0 <__alt_data_end+0xf800b3f0>

1000b438 <_fclose_r>:
1000b438:	28003926 	beq	r5,zero,1000b520 <_fclose_r+0xe8>
1000b43c:	defffc04 	addi	sp,sp,-16
1000b440:	dc400115 	stw	r17,4(sp)
1000b444:	dc000015 	stw	r16,0(sp)
1000b448:	dfc00315 	stw	ra,12(sp)
1000b44c:	dc800215 	stw	r18,8(sp)
1000b450:	2023883a 	mov	r17,r4
1000b454:	2821883a 	mov	r16,r5
1000b458:	20000226 	beq	r4,zero,1000b464 <_fclose_r+0x2c>
1000b45c:	20800e17 	ldw	r2,56(r4)
1000b460:	10002726 	beq	r2,zero,1000b500 <_fclose_r+0xc8>
1000b464:	8080030f 	ldh	r2,12(r16)
1000b468:	1000071e 	bne	r2,zero,1000b488 <_fclose_r+0x50>
1000b46c:	0005883a 	mov	r2,zero
1000b470:	dfc00317 	ldw	ra,12(sp)
1000b474:	dc800217 	ldw	r18,8(sp)
1000b478:	dc400117 	ldw	r17,4(sp)
1000b47c:	dc000017 	ldw	r16,0(sp)
1000b480:	dec00404 	addi	sp,sp,16
1000b484:	f800283a 	ret
1000b488:	800b883a 	mov	r5,r16
1000b48c:	8809883a 	mov	r4,r17
1000b490:	00062840 	call	10006284 <__sflush_r>
1000b494:	1025883a 	mov	r18,r2
1000b498:	80800b17 	ldw	r2,44(r16)
1000b49c:	10000426 	beq	r2,zero,1000b4b0 <_fclose_r+0x78>
1000b4a0:	81400717 	ldw	r5,28(r16)
1000b4a4:	8809883a 	mov	r4,r17
1000b4a8:	103ee83a 	callr	r2
1000b4ac:	10001616 	blt	r2,zero,1000b508 <_fclose_r+0xd0>
1000b4b0:	8080030b 	ldhu	r2,12(r16)
1000b4b4:	1080200c 	andi	r2,r2,128
1000b4b8:	1000151e 	bne	r2,zero,1000b510 <_fclose_r+0xd8>
1000b4bc:	81400c17 	ldw	r5,48(r16)
1000b4c0:	28000526 	beq	r5,zero,1000b4d8 <_fclose_r+0xa0>
1000b4c4:	80801004 	addi	r2,r16,64
1000b4c8:	28800226 	beq	r5,r2,1000b4d4 <_fclose_r+0x9c>
1000b4cc:	8809883a 	mov	r4,r17
1000b4d0:	0006a000 	call	10006a00 <_free_r>
1000b4d4:	80000c15 	stw	zero,48(r16)
1000b4d8:	81401117 	ldw	r5,68(r16)
1000b4dc:	28000326 	beq	r5,zero,1000b4ec <_fclose_r+0xb4>
1000b4e0:	8809883a 	mov	r4,r17
1000b4e4:	0006a000 	call	10006a00 <_free_r>
1000b4e8:	80001115 	stw	zero,68(r16)
1000b4ec:	000689c0 	call	1000689c <__sfp_lock_acquire>
1000b4f0:	8000030d 	sth	zero,12(r16)
1000b4f4:	00068a00 	call	100068a0 <__sfp_lock_release>
1000b4f8:	9005883a 	mov	r2,r18
1000b4fc:	003fdc06 	br	1000b470 <__alt_data_end+0xf800b470>
1000b500:	000688c0 	call	1000688c <__sinit>
1000b504:	003fd706 	br	1000b464 <__alt_data_end+0xf800b464>
1000b508:	04bfffc4 	movi	r18,-1
1000b50c:	003fe806 	br	1000b4b0 <__alt_data_end+0xf800b4b0>
1000b510:	81400417 	ldw	r5,16(r16)
1000b514:	8809883a 	mov	r4,r17
1000b518:	0006a000 	call	10006a00 <_free_r>
1000b51c:	003fe706 	br	1000b4bc <__alt_data_end+0xf800b4bc>
1000b520:	0005883a 	mov	r2,zero
1000b524:	f800283a 	ret

1000b528 <fclose>:
1000b528:	00840074 	movhi	r2,4097
1000b52c:	108fea04 	addi	r2,r2,16296
1000b530:	200b883a 	mov	r5,r4
1000b534:	11000017 	ldw	r4,0(r2)
1000b538:	000b4381 	jmpi	1000b438 <_fclose_r>

1000b53c <__fputwc>:
1000b53c:	defff804 	addi	sp,sp,-32
1000b540:	dcc00415 	stw	r19,16(sp)
1000b544:	dc800315 	stw	r18,12(sp)
1000b548:	dc000115 	stw	r16,4(sp)
1000b54c:	dfc00715 	stw	ra,28(sp)
1000b550:	dd400615 	stw	r21,24(sp)
1000b554:	dd000515 	stw	r20,20(sp)
1000b558:	dc400215 	stw	r17,8(sp)
1000b55c:	2027883a 	mov	r19,r4
1000b560:	2825883a 	mov	r18,r5
1000b564:	3021883a 	mov	r16,r6
1000b568:	00073e80 	call	100073e8 <__locale_mb_cur_max>
1000b56c:	00c00044 	movi	r3,1
1000b570:	10c03e26 	beq	r2,r3,1000b66c <__fputwc+0x130>
1000b574:	81c01704 	addi	r7,r16,92
1000b578:	900d883a 	mov	r6,r18
1000b57c:	d80b883a 	mov	r5,sp
1000b580:	9809883a 	mov	r4,r19
1000b584:	000ba0c0 	call	1000ba0c <_wcrtomb_r>
1000b588:	1029883a 	mov	r20,r2
1000b58c:	00bfffc4 	movi	r2,-1
1000b590:	a0802026 	beq	r20,r2,1000b614 <__fputwc+0xd8>
1000b594:	d9400003 	ldbu	r5,0(sp)
1000b598:	a0001c26 	beq	r20,zero,1000b60c <__fputwc+0xd0>
1000b59c:	0023883a 	mov	r17,zero
1000b5a0:	05400284 	movi	r21,10
1000b5a4:	00000906 	br	1000b5cc <__fputwc+0x90>
1000b5a8:	80800017 	ldw	r2,0(r16)
1000b5ac:	11400005 	stb	r5,0(r2)
1000b5b0:	80c00017 	ldw	r3,0(r16)
1000b5b4:	18c00044 	addi	r3,r3,1
1000b5b8:	80c00015 	stw	r3,0(r16)
1000b5bc:	8c400044 	addi	r17,r17,1
1000b5c0:	dc45883a 	add	r2,sp,r17
1000b5c4:	8d00112e 	bgeu	r17,r20,1000b60c <__fputwc+0xd0>
1000b5c8:	11400003 	ldbu	r5,0(r2)
1000b5cc:	80c00217 	ldw	r3,8(r16)
1000b5d0:	18ffffc4 	addi	r3,r3,-1
1000b5d4:	80c00215 	stw	r3,8(r16)
1000b5d8:	183ff30e 	bge	r3,zero,1000b5a8 <__alt_data_end+0xf800b5a8>
1000b5dc:	80800617 	ldw	r2,24(r16)
1000b5e0:	18801916 	blt	r3,r2,1000b648 <__fputwc+0x10c>
1000b5e4:	80800017 	ldw	r2,0(r16)
1000b5e8:	11400005 	stb	r5,0(r2)
1000b5ec:	80800017 	ldw	r2,0(r16)
1000b5f0:	10c00003 	ldbu	r3,0(r2)
1000b5f4:	10800044 	addi	r2,r2,1
1000b5f8:	1d402326 	beq	r3,r21,1000b688 <__fputwc+0x14c>
1000b5fc:	80800015 	stw	r2,0(r16)
1000b600:	8c400044 	addi	r17,r17,1
1000b604:	dc45883a 	add	r2,sp,r17
1000b608:	8d3fef36 	bltu	r17,r20,1000b5c8 <__alt_data_end+0xf800b5c8>
1000b60c:	9005883a 	mov	r2,r18
1000b610:	00000406 	br	1000b624 <__fputwc+0xe8>
1000b614:	80c0030b 	ldhu	r3,12(r16)
1000b618:	a005883a 	mov	r2,r20
1000b61c:	18c01014 	ori	r3,r3,64
1000b620:	80c0030d 	sth	r3,12(r16)
1000b624:	dfc00717 	ldw	ra,28(sp)
1000b628:	dd400617 	ldw	r21,24(sp)
1000b62c:	dd000517 	ldw	r20,20(sp)
1000b630:	dcc00417 	ldw	r19,16(sp)
1000b634:	dc800317 	ldw	r18,12(sp)
1000b638:	dc400217 	ldw	r17,8(sp)
1000b63c:	dc000117 	ldw	r16,4(sp)
1000b640:	dec00804 	addi	sp,sp,32
1000b644:	f800283a 	ret
1000b648:	800d883a 	mov	r6,r16
1000b64c:	29403fcc 	andi	r5,r5,255
1000b650:	9809883a 	mov	r4,r19
1000b654:	000b8b40 	call	1000b8b4 <__swbuf_r>
1000b658:	10bfffe0 	cmpeqi	r2,r2,-1
1000b65c:	10803fcc 	andi	r2,r2,255
1000b660:	103fd626 	beq	r2,zero,1000b5bc <__alt_data_end+0xf800b5bc>
1000b664:	00bfffc4 	movi	r2,-1
1000b668:	003fee06 	br	1000b624 <__alt_data_end+0xf800b624>
1000b66c:	90ffffc4 	addi	r3,r18,-1
1000b670:	01003f84 	movi	r4,254
1000b674:	20ffbf36 	bltu	r4,r3,1000b574 <__alt_data_end+0xf800b574>
1000b678:	900b883a 	mov	r5,r18
1000b67c:	dc800005 	stb	r18,0(sp)
1000b680:	1029883a 	mov	r20,r2
1000b684:	003fc506 	br	1000b59c <__alt_data_end+0xf800b59c>
1000b688:	800d883a 	mov	r6,r16
1000b68c:	a80b883a 	mov	r5,r21
1000b690:	9809883a 	mov	r4,r19
1000b694:	000b8b40 	call	1000b8b4 <__swbuf_r>
1000b698:	10bfffe0 	cmpeqi	r2,r2,-1
1000b69c:	003fef06 	br	1000b65c <__alt_data_end+0xf800b65c>

1000b6a0 <_fputwc_r>:
1000b6a0:	3080030b 	ldhu	r2,12(r6)
1000b6a4:	10c8000c 	andi	r3,r2,8192
1000b6a8:	1800051e 	bne	r3,zero,1000b6c0 <_fputwc_r+0x20>
1000b6ac:	30c01917 	ldw	r3,100(r6)
1000b6b0:	10880014 	ori	r2,r2,8192
1000b6b4:	3080030d 	sth	r2,12(r6)
1000b6b8:	18880014 	ori	r2,r3,8192
1000b6bc:	30801915 	stw	r2,100(r6)
1000b6c0:	000b53c1 	jmpi	1000b53c <__fputwc>

1000b6c4 <fputwc>:
1000b6c4:	00840074 	movhi	r2,4097
1000b6c8:	defffc04 	addi	sp,sp,-16
1000b6cc:	108fea04 	addi	r2,r2,16296
1000b6d0:	dc000115 	stw	r16,4(sp)
1000b6d4:	14000017 	ldw	r16,0(r2)
1000b6d8:	dc400215 	stw	r17,8(sp)
1000b6dc:	dfc00315 	stw	ra,12(sp)
1000b6e0:	2023883a 	mov	r17,r4
1000b6e4:	80000226 	beq	r16,zero,1000b6f0 <fputwc+0x2c>
1000b6e8:	80800e17 	ldw	r2,56(r16)
1000b6ec:	10001026 	beq	r2,zero,1000b730 <fputwc+0x6c>
1000b6f0:	2880030b 	ldhu	r2,12(r5)
1000b6f4:	10c8000c 	andi	r3,r2,8192
1000b6f8:	1800051e 	bne	r3,zero,1000b710 <fputwc+0x4c>
1000b6fc:	28c01917 	ldw	r3,100(r5)
1000b700:	10880014 	ori	r2,r2,8192
1000b704:	2880030d 	sth	r2,12(r5)
1000b708:	18880014 	ori	r2,r3,8192
1000b70c:	28801915 	stw	r2,100(r5)
1000b710:	280d883a 	mov	r6,r5
1000b714:	8009883a 	mov	r4,r16
1000b718:	880b883a 	mov	r5,r17
1000b71c:	dfc00317 	ldw	ra,12(sp)
1000b720:	dc400217 	ldw	r17,8(sp)
1000b724:	dc000117 	ldw	r16,4(sp)
1000b728:	dec00404 	addi	sp,sp,16
1000b72c:	000b53c1 	jmpi	1000b53c <__fputwc>
1000b730:	8009883a 	mov	r4,r16
1000b734:	d9400015 	stw	r5,0(sp)
1000b738:	000688c0 	call	1000688c <__sinit>
1000b73c:	d9400017 	ldw	r5,0(sp)
1000b740:	003feb06 	br	1000b6f0 <__alt_data_end+0xf800b6f0>

1000b744 <_fstat_r>:
1000b744:	defffd04 	addi	sp,sp,-12
1000b748:	2805883a 	mov	r2,r5
1000b74c:	dc000015 	stw	r16,0(sp)
1000b750:	04040074 	movhi	r16,4097
1000b754:	dc400115 	stw	r17,4(sp)
1000b758:	8416bb04 	addi	r16,r16,23276
1000b75c:	2023883a 	mov	r17,r4
1000b760:	300b883a 	mov	r5,r6
1000b764:	1009883a 	mov	r4,r2
1000b768:	dfc00215 	stw	ra,8(sp)
1000b76c:	80000015 	stw	zero,0(r16)
1000b770:	000f3b00 	call	1000f3b0 <fstat>
1000b774:	00ffffc4 	movi	r3,-1
1000b778:	10c00526 	beq	r2,r3,1000b790 <_fstat_r+0x4c>
1000b77c:	dfc00217 	ldw	ra,8(sp)
1000b780:	dc400117 	ldw	r17,4(sp)
1000b784:	dc000017 	ldw	r16,0(sp)
1000b788:	dec00304 	addi	sp,sp,12
1000b78c:	f800283a 	ret
1000b790:	80c00017 	ldw	r3,0(r16)
1000b794:	183ff926 	beq	r3,zero,1000b77c <__alt_data_end+0xf800b77c>
1000b798:	88c00015 	stw	r3,0(r17)
1000b79c:	003ff706 	br	1000b77c <__alt_data_end+0xf800b77c>

1000b7a0 <_isatty_r>:
1000b7a0:	defffd04 	addi	sp,sp,-12
1000b7a4:	dc000015 	stw	r16,0(sp)
1000b7a8:	04040074 	movhi	r16,4097
1000b7ac:	dc400115 	stw	r17,4(sp)
1000b7b0:	8416bb04 	addi	r16,r16,23276
1000b7b4:	2023883a 	mov	r17,r4
1000b7b8:	2809883a 	mov	r4,r5
1000b7bc:	dfc00215 	stw	ra,8(sp)
1000b7c0:	80000015 	stw	zero,0(r16)
1000b7c4:	000f4a40 	call	1000f4a4 <isatty>
1000b7c8:	00ffffc4 	movi	r3,-1
1000b7cc:	10c00526 	beq	r2,r3,1000b7e4 <_isatty_r+0x44>
1000b7d0:	dfc00217 	ldw	ra,8(sp)
1000b7d4:	dc400117 	ldw	r17,4(sp)
1000b7d8:	dc000017 	ldw	r16,0(sp)
1000b7dc:	dec00304 	addi	sp,sp,12
1000b7e0:	f800283a 	ret
1000b7e4:	80c00017 	ldw	r3,0(r16)
1000b7e8:	183ff926 	beq	r3,zero,1000b7d0 <__alt_data_end+0xf800b7d0>
1000b7ec:	88c00015 	stw	r3,0(r17)
1000b7f0:	003ff706 	br	1000b7d0 <__alt_data_end+0xf800b7d0>

1000b7f4 <_lseek_r>:
1000b7f4:	defffd04 	addi	sp,sp,-12
1000b7f8:	2805883a 	mov	r2,r5
1000b7fc:	dc000015 	stw	r16,0(sp)
1000b800:	04040074 	movhi	r16,4097
1000b804:	dc400115 	stw	r17,4(sp)
1000b808:	300b883a 	mov	r5,r6
1000b80c:	8416bb04 	addi	r16,r16,23276
1000b810:	2023883a 	mov	r17,r4
1000b814:	380d883a 	mov	r6,r7
1000b818:	1009883a 	mov	r4,r2
1000b81c:	dfc00215 	stw	ra,8(sp)
1000b820:	80000015 	stw	zero,0(r16)
1000b824:	000f6780 	call	1000f678 <lseek>
1000b828:	00ffffc4 	movi	r3,-1
1000b82c:	10c00526 	beq	r2,r3,1000b844 <_lseek_r+0x50>
1000b830:	dfc00217 	ldw	ra,8(sp)
1000b834:	dc400117 	ldw	r17,4(sp)
1000b838:	dc000017 	ldw	r16,0(sp)
1000b83c:	dec00304 	addi	sp,sp,12
1000b840:	f800283a 	ret
1000b844:	80c00017 	ldw	r3,0(r16)
1000b848:	183ff926 	beq	r3,zero,1000b830 <__alt_data_end+0xf800b830>
1000b84c:	88c00015 	stw	r3,0(r17)
1000b850:	003ff706 	br	1000b830 <__alt_data_end+0xf800b830>

1000b854 <_read_r>:
1000b854:	defffd04 	addi	sp,sp,-12
1000b858:	2805883a 	mov	r2,r5
1000b85c:	dc000015 	stw	r16,0(sp)
1000b860:	04040074 	movhi	r16,4097
1000b864:	dc400115 	stw	r17,4(sp)
1000b868:	300b883a 	mov	r5,r6
1000b86c:	8416bb04 	addi	r16,r16,23276
1000b870:	2023883a 	mov	r17,r4
1000b874:	380d883a 	mov	r6,r7
1000b878:	1009883a 	mov	r4,r2
1000b87c:	dfc00215 	stw	ra,8(sp)
1000b880:	80000015 	stw	zero,0(r16)
1000b884:	000f8540 	call	1000f854 <read>
1000b888:	00ffffc4 	movi	r3,-1
1000b88c:	10c00526 	beq	r2,r3,1000b8a4 <_read_r+0x50>
1000b890:	dfc00217 	ldw	ra,8(sp)
1000b894:	dc400117 	ldw	r17,4(sp)
1000b898:	dc000017 	ldw	r16,0(sp)
1000b89c:	dec00304 	addi	sp,sp,12
1000b8a0:	f800283a 	ret
1000b8a4:	80c00017 	ldw	r3,0(r16)
1000b8a8:	183ff926 	beq	r3,zero,1000b890 <__alt_data_end+0xf800b890>
1000b8ac:	88c00015 	stw	r3,0(r17)
1000b8b0:	003ff706 	br	1000b890 <__alt_data_end+0xf800b890>

1000b8b4 <__swbuf_r>:
1000b8b4:	defffb04 	addi	sp,sp,-20
1000b8b8:	dcc00315 	stw	r19,12(sp)
1000b8bc:	dc800215 	stw	r18,8(sp)
1000b8c0:	dc000015 	stw	r16,0(sp)
1000b8c4:	dfc00415 	stw	ra,16(sp)
1000b8c8:	dc400115 	stw	r17,4(sp)
1000b8cc:	2025883a 	mov	r18,r4
1000b8d0:	2827883a 	mov	r19,r5
1000b8d4:	3021883a 	mov	r16,r6
1000b8d8:	20000226 	beq	r4,zero,1000b8e4 <__swbuf_r+0x30>
1000b8dc:	20800e17 	ldw	r2,56(r4)
1000b8e0:	10004226 	beq	r2,zero,1000b9ec <__swbuf_r+0x138>
1000b8e4:	80800617 	ldw	r2,24(r16)
1000b8e8:	8100030b 	ldhu	r4,12(r16)
1000b8ec:	80800215 	stw	r2,8(r16)
1000b8f0:	2080020c 	andi	r2,r4,8
1000b8f4:	10003626 	beq	r2,zero,1000b9d0 <__swbuf_r+0x11c>
1000b8f8:	80c00417 	ldw	r3,16(r16)
1000b8fc:	18003426 	beq	r3,zero,1000b9d0 <__swbuf_r+0x11c>
1000b900:	2088000c 	andi	r2,r4,8192
1000b904:	9c403fcc 	andi	r17,r19,255
1000b908:	10001a26 	beq	r2,zero,1000b974 <__swbuf_r+0xc0>
1000b90c:	80800017 	ldw	r2,0(r16)
1000b910:	81000517 	ldw	r4,20(r16)
1000b914:	10c7c83a 	sub	r3,r2,r3
1000b918:	1900200e 	bge	r3,r4,1000b99c <__swbuf_r+0xe8>
1000b91c:	18c00044 	addi	r3,r3,1
1000b920:	81000217 	ldw	r4,8(r16)
1000b924:	11400044 	addi	r5,r2,1
1000b928:	81400015 	stw	r5,0(r16)
1000b92c:	213fffc4 	addi	r4,r4,-1
1000b930:	81000215 	stw	r4,8(r16)
1000b934:	14c00005 	stb	r19,0(r2)
1000b938:	80800517 	ldw	r2,20(r16)
1000b93c:	10c01e26 	beq	r2,r3,1000b9b8 <__swbuf_r+0x104>
1000b940:	8080030b 	ldhu	r2,12(r16)
1000b944:	1080004c 	andi	r2,r2,1
1000b948:	10000226 	beq	r2,zero,1000b954 <__swbuf_r+0xa0>
1000b94c:	00800284 	movi	r2,10
1000b950:	88801926 	beq	r17,r2,1000b9b8 <__swbuf_r+0x104>
1000b954:	8805883a 	mov	r2,r17
1000b958:	dfc00417 	ldw	ra,16(sp)
1000b95c:	dcc00317 	ldw	r19,12(sp)
1000b960:	dc800217 	ldw	r18,8(sp)
1000b964:	dc400117 	ldw	r17,4(sp)
1000b968:	dc000017 	ldw	r16,0(sp)
1000b96c:	dec00504 	addi	sp,sp,20
1000b970:	f800283a 	ret
1000b974:	81401917 	ldw	r5,100(r16)
1000b978:	00b7ffc4 	movi	r2,-8193
1000b97c:	21080014 	ori	r4,r4,8192
1000b980:	2884703a 	and	r2,r5,r2
1000b984:	80801915 	stw	r2,100(r16)
1000b988:	80800017 	ldw	r2,0(r16)
1000b98c:	8100030d 	sth	r4,12(r16)
1000b990:	81000517 	ldw	r4,20(r16)
1000b994:	10c7c83a 	sub	r3,r2,r3
1000b998:	193fe016 	blt	r3,r4,1000b91c <__alt_data_end+0xf800b91c>
1000b99c:	800b883a 	mov	r5,r16
1000b9a0:	9009883a 	mov	r4,r18
1000b9a4:	00064a00 	call	100064a0 <_fflush_r>
1000b9a8:	1000071e 	bne	r2,zero,1000b9c8 <__swbuf_r+0x114>
1000b9ac:	80800017 	ldw	r2,0(r16)
1000b9b0:	00c00044 	movi	r3,1
1000b9b4:	003fda06 	br	1000b920 <__alt_data_end+0xf800b920>
1000b9b8:	800b883a 	mov	r5,r16
1000b9bc:	9009883a 	mov	r4,r18
1000b9c0:	00064a00 	call	100064a0 <_fflush_r>
1000b9c4:	103fe326 	beq	r2,zero,1000b954 <__alt_data_end+0xf800b954>
1000b9c8:	00bfffc4 	movi	r2,-1
1000b9cc:	003fe206 	br	1000b958 <__alt_data_end+0xf800b958>
1000b9d0:	800b883a 	mov	r5,r16
1000b9d4:	9009883a 	mov	r4,r18
1000b9d8:	00048800 	call	10004880 <__swsetup_r>
1000b9dc:	103ffa1e 	bne	r2,zero,1000b9c8 <__alt_data_end+0xf800b9c8>
1000b9e0:	8100030b 	ldhu	r4,12(r16)
1000b9e4:	80c00417 	ldw	r3,16(r16)
1000b9e8:	003fc506 	br	1000b900 <__alt_data_end+0xf800b900>
1000b9ec:	000688c0 	call	1000688c <__sinit>
1000b9f0:	003fbc06 	br	1000b8e4 <__alt_data_end+0xf800b8e4>

1000b9f4 <__swbuf>:
1000b9f4:	00840074 	movhi	r2,4097
1000b9f8:	108fea04 	addi	r2,r2,16296
1000b9fc:	280d883a 	mov	r6,r5
1000ba00:	200b883a 	mov	r5,r4
1000ba04:	11000017 	ldw	r4,0(r2)
1000ba08:	000b8b41 	jmpi	1000b8b4 <__swbuf_r>

1000ba0c <_wcrtomb_r>:
1000ba0c:	defff604 	addi	sp,sp,-40
1000ba10:	00840074 	movhi	r2,4097
1000ba14:	dc800815 	stw	r18,32(sp)
1000ba18:	dc400715 	stw	r17,28(sp)
1000ba1c:	dc000615 	stw	r16,24(sp)
1000ba20:	108fee04 	addi	r2,r2,16312
1000ba24:	dfc00915 	stw	ra,36(sp)
1000ba28:	2021883a 	mov	r16,r4
1000ba2c:	3823883a 	mov	r17,r7
1000ba30:	14800017 	ldw	r18,0(r2)
1000ba34:	28001426 	beq	r5,zero,1000ba88 <_wcrtomb_r+0x7c>
1000ba38:	d9400415 	stw	r5,16(sp)
1000ba3c:	d9800515 	stw	r6,20(sp)
1000ba40:	00073dc0 	call	100073dc <__locale_charset>
1000ba44:	d9800517 	ldw	r6,20(sp)
1000ba48:	d9400417 	ldw	r5,16(sp)
1000ba4c:	100f883a 	mov	r7,r2
1000ba50:	dc400015 	stw	r17,0(sp)
1000ba54:	8009883a 	mov	r4,r16
1000ba58:	903ee83a 	callr	r18
1000ba5c:	00ffffc4 	movi	r3,-1
1000ba60:	10c0031e 	bne	r2,r3,1000ba70 <_wcrtomb_r+0x64>
1000ba64:	88000015 	stw	zero,0(r17)
1000ba68:	00c02284 	movi	r3,138
1000ba6c:	80c00015 	stw	r3,0(r16)
1000ba70:	dfc00917 	ldw	ra,36(sp)
1000ba74:	dc800817 	ldw	r18,32(sp)
1000ba78:	dc400717 	ldw	r17,28(sp)
1000ba7c:	dc000617 	ldw	r16,24(sp)
1000ba80:	dec00a04 	addi	sp,sp,40
1000ba84:	f800283a 	ret
1000ba88:	00073dc0 	call	100073dc <__locale_charset>
1000ba8c:	100f883a 	mov	r7,r2
1000ba90:	dc400015 	stw	r17,0(sp)
1000ba94:	000d883a 	mov	r6,zero
1000ba98:	d9400104 	addi	r5,sp,4
1000ba9c:	8009883a 	mov	r4,r16
1000baa0:	903ee83a 	callr	r18
1000baa4:	003fed06 	br	1000ba5c <__alt_data_end+0xf800ba5c>

1000baa8 <wcrtomb>:
1000baa8:	defff604 	addi	sp,sp,-40
1000baac:	00840074 	movhi	r2,4097
1000bab0:	dc800615 	stw	r18,24(sp)
1000bab4:	dc400515 	stw	r17,20(sp)
1000bab8:	108fea04 	addi	r2,r2,16296
1000babc:	dfc00915 	stw	ra,36(sp)
1000bac0:	dd000815 	stw	r20,32(sp)
1000bac4:	dcc00715 	stw	r19,28(sp)
1000bac8:	dc000415 	stw	r16,16(sp)
1000bacc:	3025883a 	mov	r18,r6
1000bad0:	14400017 	ldw	r17,0(r2)
1000bad4:	20001926 	beq	r4,zero,1000bb3c <wcrtomb+0x94>
1000bad8:	00840074 	movhi	r2,4097
1000badc:	108fee04 	addi	r2,r2,16312
1000bae0:	15000017 	ldw	r20,0(r2)
1000bae4:	2021883a 	mov	r16,r4
1000bae8:	2827883a 	mov	r19,r5
1000baec:	00073dc0 	call	100073dc <__locale_charset>
1000baf0:	100f883a 	mov	r7,r2
1000baf4:	dc800015 	stw	r18,0(sp)
1000baf8:	980d883a 	mov	r6,r19
1000bafc:	800b883a 	mov	r5,r16
1000bb00:	8809883a 	mov	r4,r17
1000bb04:	a03ee83a 	callr	r20
1000bb08:	00ffffc4 	movi	r3,-1
1000bb0c:	10c0031e 	bne	r2,r3,1000bb1c <wcrtomb+0x74>
1000bb10:	90000015 	stw	zero,0(r18)
1000bb14:	00c02284 	movi	r3,138
1000bb18:	88c00015 	stw	r3,0(r17)
1000bb1c:	dfc00917 	ldw	ra,36(sp)
1000bb20:	dd000817 	ldw	r20,32(sp)
1000bb24:	dcc00717 	ldw	r19,28(sp)
1000bb28:	dc800617 	ldw	r18,24(sp)
1000bb2c:	dc400517 	ldw	r17,20(sp)
1000bb30:	dc000417 	ldw	r16,16(sp)
1000bb34:	dec00a04 	addi	sp,sp,40
1000bb38:	f800283a 	ret
1000bb3c:	00840074 	movhi	r2,4097
1000bb40:	108fee04 	addi	r2,r2,16312
1000bb44:	14000017 	ldw	r16,0(r2)
1000bb48:	00073dc0 	call	100073dc <__locale_charset>
1000bb4c:	100f883a 	mov	r7,r2
1000bb50:	dc800015 	stw	r18,0(sp)
1000bb54:	000d883a 	mov	r6,zero
1000bb58:	d9400104 	addi	r5,sp,4
1000bb5c:	8809883a 	mov	r4,r17
1000bb60:	803ee83a 	callr	r16
1000bb64:	003fe806 	br	1000bb08 <__alt_data_end+0xf800bb08>

1000bb68 <__ascii_wctomb>:
1000bb68:	28000526 	beq	r5,zero,1000bb80 <__ascii_wctomb+0x18>
1000bb6c:	00803fc4 	movi	r2,255
1000bb70:	11800536 	bltu	r2,r6,1000bb88 <__ascii_wctomb+0x20>
1000bb74:	29800005 	stb	r6,0(r5)
1000bb78:	00800044 	movi	r2,1
1000bb7c:	f800283a 	ret
1000bb80:	0005883a 	mov	r2,zero
1000bb84:	f800283a 	ret
1000bb88:	00802284 	movi	r2,138
1000bb8c:	20800015 	stw	r2,0(r4)
1000bb90:	00bfffc4 	movi	r2,-1
1000bb94:	f800283a 	ret

1000bb98 <_wctomb_r>:
1000bb98:	00840074 	movhi	r2,4097
1000bb9c:	defff904 	addi	sp,sp,-28
1000bba0:	108fee04 	addi	r2,r2,16312
1000bba4:	dfc00615 	stw	ra,24(sp)
1000bba8:	dc400515 	stw	r17,20(sp)
1000bbac:	dc000415 	stw	r16,16(sp)
1000bbb0:	3823883a 	mov	r17,r7
1000bbb4:	14000017 	ldw	r16,0(r2)
1000bbb8:	d9000115 	stw	r4,4(sp)
1000bbbc:	d9400215 	stw	r5,8(sp)
1000bbc0:	d9800315 	stw	r6,12(sp)
1000bbc4:	00073dc0 	call	100073dc <__locale_charset>
1000bbc8:	d9800317 	ldw	r6,12(sp)
1000bbcc:	d9400217 	ldw	r5,8(sp)
1000bbd0:	d9000117 	ldw	r4,4(sp)
1000bbd4:	100f883a 	mov	r7,r2
1000bbd8:	dc400015 	stw	r17,0(sp)
1000bbdc:	803ee83a 	callr	r16
1000bbe0:	dfc00617 	ldw	ra,24(sp)
1000bbe4:	dc400517 	ldw	r17,20(sp)
1000bbe8:	dc000417 	ldw	r16,16(sp)
1000bbec:	dec00704 	addi	sp,sp,28
1000bbf0:	f800283a 	ret

1000bbf4 <__udivdi3>:
1000bbf4:	defff404 	addi	sp,sp,-48
1000bbf8:	dcc00515 	stw	r19,20(sp)
1000bbfc:	dc000215 	stw	r16,8(sp)
1000bc00:	dfc00b15 	stw	ra,44(sp)
1000bc04:	df000a15 	stw	fp,40(sp)
1000bc08:	ddc00915 	stw	r23,36(sp)
1000bc0c:	dd800815 	stw	r22,32(sp)
1000bc10:	dd400715 	stw	r21,28(sp)
1000bc14:	dd000615 	stw	r20,24(sp)
1000bc18:	dc800415 	stw	r18,16(sp)
1000bc1c:	dc400315 	stw	r17,12(sp)
1000bc20:	2027883a 	mov	r19,r4
1000bc24:	2821883a 	mov	r16,r5
1000bc28:	3800461e 	bne	r7,zero,1000bd44 <__udivdi3+0x150>
1000bc2c:	3023883a 	mov	r17,r6
1000bc30:	2025883a 	mov	r18,r4
1000bc34:	2980572e 	bgeu	r5,r6,1000bd94 <__udivdi3+0x1a0>
1000bc38:	00bfffd4 	movui	r2,65535
1000bc3c:	282d883a 	mov	r22,r5
1000bc40:	1180b236 	bltu	r2,r6,1000bf0c <__udivdi3+0x318>
1000bc44:	00803fc4 	movi	r2,255
1000bc48:	1185803a 	cmpltu	r2,r2,r6
1000bc4c:	100490fa 	slli	r2,r2,3
1000bc50:	3086d83a 	srl	r3,r6,r2
1000bc54:	01040074 	movhi	r4,4097
1000bc58:	2108f104 	addi	r4,r4,9156
1000bc5c:	20c7883a 	add	r3,r4,r3
1000bc60:	18c00003 	ldbu	r3,0(r3)
1000bc64:	1885883a 	add	r2,r3,r2
1000bc68:	00c00804 	movi	r3,32
1000bc6c:	1887c83a 	sub	r3,r3,r2
1000bc70:	18000526 	beq	r3,zero,1000bc88 <__udivdi3+0x94>
1000bc74:	80e0983a 	sll	r16,r16,r3
1000bc78:	9884d83a 	srl	r2,r19,r2
1000bc7c:	30e2983a 	sll	r17,r6,r3
1000bc80:	98e4983a 	sll	r18,r19,r3
1000bc84:	142cb03a 	or	r22,r2,r16
1000bc88:	882ad43a 	srli	r21,r17,16
1000bc8c:	b009883a 	mov	r4,r22
1000bc90:	8d3fffcc 	andi	r20,r17,65535
1000bc94:	a80b883a 	mov	r5,r21
1000bc98:	000c9100 	call	1000c910 <__umodsi3>
1000bc9c:	b009883a 	mov	r4,r22
1000bca0:	a80b883a 	mov	r5,r21
1000bca4:	1027883a 	mov	r19,r2
1000bca8:	000c8ac0 	call	1000c8ac <__udivsi3>
1000bcac:	100b883a 	mov	r5,r2
1000bcb0:	a009883a 	mov	r4,r20
1000bcb4:	102d883a 	mov	r22,r2
1000bcb8:	000c9680 	call	1000c968 <__mulsi3>
1000bcbc:	9826943a 	slli	r19,r19,16
1000bcc0:	9006d43a 	srli	r3,r18,16
1000bcc4:	1cc6b03a 	or	r3,r3,r19
1000bcc8:	1880052e 	bgeu	r3,r2,1000bce0 <__udivdi3+0xec>
1000bccc:	1c47883a 	add	r3,r3,r17
1000bcd0:	b13fffc4 	addi	r4,r22,-1
1000bcd4:	1c400136 	bltu	r3,r17,1000bcdc <__udivdi3+0xe8>
1000bcd8:	18814236 	bltu	r3,r2,1000c1e4 <__udivdi3+0x5f0>
1000bcdc:	202d883a 	mov	r22,r4
1000bce0:	18a1c83a 	sub	r16,r3,r2
1000bce4:	8009883a 	mov	r4,r16
1000bce8:	a80b883a 	mov	r5,r21
1000bcec:	000c9100 	call	1000c910 <__umodsi3>
1000bcf0:	1027883a 	mov	r19,r2
1000bcf4:	8009883a 	mov	r4,r16
1000bcf8:	a80b883a 	mov	r5,r21
1000bcfc:	9826943a 	slli	r19,r19,16
1000bd00:	000c8ac0 	call	1000c8ac <__udivsi3>
1000bd04:	100b883a 	mov	r5,r2
1000bd08:	a009883a 	mov	r4,r20
1000bd0c:	94bfffcc 	andi	r18,r18,65535
1000bd10:	1021883a 	mov	r16,r2
1000bd14:	94e4b03a 	or	r18,r18,r19
1000bd18:	000c9680 	call	1000c968 <__mulsi3>
1000bd1c:	9080052e 	bgeu	r18,r2,1000bd34 <__udivdi3+0x140>
1000bd20:	8ca5883a 	add	r18,r17,r18
1000bd24:	80ffffc4 	addi	r3,r16,-1
1000bd28:	94410c36 	bltu	r18,r17,1000c15c <__udivdi3+0x568>
1000bd2c:	90810b2e 	bgeu	r18,r2,1000c15c <__udivdi3+0x568>
1000bd30:	843fff84 	addi	r16,r16,-2
1000bd34:	b004943a 	slli	r2,r22,16
1000bd38:	0007883a 	mov	r3,zero
1000bd3c:	1404b03a 	or	r2,r2,r16
1000bd40:	00005e06 	br	1000bebc <__udivdi3+0x2c8>
1000bd44:	29c05b36 	bltu	r5,r7,1000beb4 <__udivdi3+0x2c0>
1000bd48:	00bfffd4 	movui	r2,65535
1000bd4c:	11c0672e 	bgeu	r2,r7,1000beec <__udivdi3+0x2f8>
1000bd50:	00804034 	movhi	r2,256
1000bd54:	10bfffc4 	addi	r2,r2,-1
1000bd58:	11c10a36 	bltu	r2,r7,1000c184 <__udivdi3+0x590>
1000bd5c:	00800404 	movi	r2,16
1000bd60:	3886d83a 	srl	r3,r7,r2
1000bd64:	01040074 	movhi	r4,4097
1000bd68:	2108f104 	addi	r4,r4,9156
1000bd6c:	20c7883a 	add	r3,r4,r3
1000bd70:	18c00003 	ldbu	r3,0(r3)
1000bd74:	05c00804 	movi	r23,32
1000bd78:	1885883a 	add	r2,r3,r2
1000bd7c:	b8afc83a 	sub	r23,r23,r2
1000bd80:	b800671e 	bne	r23,zero,1000bf20 <__udivdi3+0x32c>
1000bd84:	3c010536 	bltu	r7,r16,1000c19c <__udivdi3+0x5a8>
1000bd88:	9985403a 	cmpgeu	r2,r19,r6
1000bd8c:	0007883a 	mov	r3,zero
1000bd90:	00004a06 	br	1000bebc <__udivdi3+0x2c8>
1000bd94:	3000041e 	bne	r6,zero,1000bda8 <__udivdi3+0x1b4>
1000bd98:	000b883a 	mov	r5,zero
1000bd9c:	01000044 	movi	r4,1
1000bda0:	000c8ac0 	call	1000c8ac <__udivsi3>
1000bda4:	1023883a 	mov	r17,r2
1000bda8:	00bfffd4 	movui	r2,65535
1000bdac:	1440532e 	bgeu	r2,r17,1000befc <__udivdi3+0x308>
1000bdb0:	00804034 	movhi	r2,256
1000bdb4:	10bfffc4 	addi	r2,r2,-1
1000bdb8:	1440f436 	bltu	r2,r17,1000c18c <__udivdi3+0x598>
1000bdbc:	00800404 	movi	r2,16
1000bdc0:	8886d83a 	srl	r3,r17,r2
1000bdc4:	01040074 	movhi	r4,4097
1000bdc8:	2108f104 	addi	r4,r4,9156
1000bdcc:	20c7883a 	add	r3,r4,r3
1000bdd0:	18c00003 	ldbu	r3,0(r3)
1000bdd4:	1885883a 	add	r2,r3,r2
1000bdd8:	00c00804 	movi	r3,32
1000bddc:	1887c83a 	sub	r3,r3,r2
1000bde0:	1800a51e 	bne	r3,zero,1000c078 <__udivdi3+0x484>
1000bde4:	882ad43a 	srli	r21,r17,16
1000bde8:	8461c83a 	sub	r16,r16,r17
1000bdec:	8d3fffcc 	andi	r20,r17,65535
1000bdf0:	00c00044 	movi	r3,1
1000bdf4:	a80b883a 	mov	r5,r21
1000bdf8:	8009883a 	mov	r4,r16
1000bdfc:	d8c00115 	stw	r3,4(sp)
1000be00:	000c9100 	call	1000c910 <__umodsi3>
1000be04:	a80b883a 	mov	r5,r21
1000be08:	8009883a 	mov	r4,r16
1000be0c:	1027883a 	mov	r19,r2
1000be10:	000c8ac0 	call	1000c8ac <__udivsi3>
1000be14:	a00b883a 	mov	r5,r20
1000be18:	1009883a 	mov	r4,r2
1000be1c:	102d883a 	mov	r22,r2
1000be20:	000c9680 	call	1000c968 <__mulsi3>
1000be24:	9826943a 	slli	r19,r19,16
1000be28:	900ed43a 	srli	r7,r18,16
1000be2c:	d8c00117 	ldw	r3,4(sp)
1000be30:	3cceb03a 	or	r7,r7,r19
1000be34:	3880052e 	bgeu	r7,r2,1000be4c <__udivdi3+0x258>
1000be38:	3c4f883a 	add	r7,r7,r17
1000be3c:	b13fffc4 	addi	r4,r22,-1
1000be40:	3c400136 	bltu	r7,r17,1000be48 <__udivdi3+0x254>
1000be44:	3880e436 	bltu	r7,r2,1000c1d8 <__udivdi3+0x5e4>
1000be48:	202d883a 	mov	r22,r4
1000be4c:	38a1c83a 	sub	r16,r7,r2
1000be50:	8009883a 	mov	r4,r16
1000be54:	a80b883a 	mov	r5,r21
1000be58:	d8c00115 	stw	r3,4(sp)
1000be5c:	000c9100 	call	1000c910 <__umodsi3>
1000be60:	1027883a 	mov	r19,r2
1000be64:	8009883a 	mov	r4,r16
1000be68:	a80b883a 	mov	r5,r21
1000be6c:	9826943a 	slli	r19,r19,16
1000be70:	000c8ac0 	call	1000c8ac <__udivsi3>
1000be74:	a00b883a 	mov	r5,r20
1000be78:	1009883a 	mov	r4,r2
1000be7c:	94bfffcc 	andi	r18,r18,65535
1000be80:	1021883a 	mov	r16,r2
1000be84:	94e4b03a 	or	r18,r18,r19
1000be88:	000c9680 	call	1000c968 <__mulsi3>
1000be8c:	d8c00117 	ldw	r3,4(sp)
1000be90:	9080052e 	bgeu	r18,r2,1000bea8 <__udivdi3+0x2b4>
1000be94:	8ca5883a 	add	r18,r17,r18
1000be98:	813fffc4 	addi	r4,r16,-1
1000be9c:	9440ad36 	bltu	r18,r17,1000c154 <__udivdi3+0x560>
1000bea0:	9080ac2e 	bgeu	r18,r2,1000c154 <__udivdi3+0x560>
1000bea4:	843fff84 	addi	r16,r16,-2
1000bea8:	b004943a 	slli	r2,r22,16
1000beac:	1404b03a 	or	r2,r2,r16
1000beb0:	00000206 	br	1000bebc <__udivdi3+0x2c8>
1000beb4:	0007883a 	mov	r3,zero
1000beb8:	0005883a 	mov	r2,zero
1000bebc:	dfc00b17 	ldw	ra,44(sp)
1000bec0:	df000a17 	ldw	fp,40(sp)
1000bec4:	ddc00917 	ldw	r23,36(sp)
1000bec8:	dd800817 	ldw	r22,32(sp)
1000becc:	dd400717 	ldw	r21,28(sp)
1000bed0:	dd000617 	ldw	r20,24(sp)
1000bed4:	dcc00517 	ldw	r19,20(sp)
1000bed8:	dc800417 	ldw	r18,16(sp)
1000bedc:	dc400317 	ldw	r17,12(sp)
1000bee0:	dc000217 	ldw	r16,8(sp)
1000bee4:	dec00c04 	addi	sp,sp,48
1000bee8:	f800283a 	ret
1000beec:	00803fc4 	movi	r2,255
1000bef0:	11c5803a 	cmpltu	r2,r2,r7
1000bef4:	100490fa 	slli	r2,r2,3
1000bef8:	003f9906 	br	1000bd60 <__alt_data_end+0xf800bd60>
1000befc:	00803fc4 	movi	r2,255
1000bf00:	1445803a 	cmpltu	r2,r2,r17
1000bf04:	100490fa 	slli	r2,r2,3
1000bf08:	003fad06 	br	1000bdc0 <__alt_data_end+0xf800bdc0>
1000bf0c:	00804034 	movhi	r2,256
1000bf10:	10bfffc4 	addi	r2,r2,-1
1000bf14:	11809f36 	bltu	r2,r6,1000c194 <__udivdi3+0x5a0>
1000bf18:	00800404 	movi	r2,16
1000bf1c:	003f4c06 	br	1000bc50 <__alt_data_end+0xf800bc50>
1000bf20:	3dce983a 	sll	r7,r7,r23
1000bf24:	30b8d83a 	srl	fp,r6,r2
1000bf28:	80a2d83a 	srl	r17,r16,r2
1000bf2c:	35cc983a 	sll	r6,r6,r23
1000bf30:	3f38b03a 	or	fp,r7,fp
1000bf34:	e024d43a 	srli	r18,fp,16
1000bf38:	9884d83a 	srl	r2,r19,r2
1000bf3c:	85e0983a 	sll	r16,r16,r23
1000bf40:	8809883a 	mov	r4,r17
1000bf44:	900b883a 	mov	r5,r18
1000bf48:	d9800015 	stw	r6,0(sp)
1000bf4c:	1420b03a 	or	r16,r2,r16
1000bf50:	000c9100 	call	1000c910 <__umodsi3>
1000bf54:	900b883a 	mov	r5,r18
1000bf58:	8809883a 	mov	r4,r17
1000bf5c:	1029883a 	mov	r20,r2
1000bf60:	e5bfffcc 	andi	r22,fp,65535
1000bf64:	000c8ac0 	call	1000c8ac <__udivsi3>
1000bf68:	100b883a 	mov	r5,r2
1000bf6c:	b009883a 	mov	r4,r22
1000bf70:	102b883a 	mov	r21,r2
1000bf74:	000c9680 	call	1000c968 <__mulsi3>
1000bf78:	a028943a 	slli	r20,r20,16
1000bf7c:	8006d43a 	srli	r3,r16,16
1000bf80:	1d06b03a 	or	r3,r3,r20
1000bf84:	1880042e 	bgeu	r3,r2,1000bf98 <__udivdi3+0x3a4>
1000bf88:	1f07883a 	add	r3,r3,fp
1000bf8c:	a93fffc4 	addi	r4,r21,-1
1000bf90:	1f00892e 	bgeu	r3,fp,1000c1b8 <__udivdi3+0x5c4>
1000bf94:	202b883a 	mov	r21,r4
1000bf98:	18a3c83a 	sub	r17,r3,r2
1000bf9c:	8809883a 	mov	r4,r17
1000bfa0:	900b883a 	mov	r5,r18
1000bfa4:	000c9100 	call	1000c910 <__umodsi3>
1000bfa8:	1029883a 	mov	r20,r2
1000bfac:	8809883a 	mov	r4,r17
1000bfb0:	900b883a 	mov	r5,r18
1000bfb4:	a028943a 	slli	r20,r20,16
1000bfb8:	000c8ac0 	call	1000c8ac <__udivsi3>
1000bfbc:	100b883a 	mov	r5,r2
1000bfc0:	b009883a 	mov	r4,r22
1000bfc4:	843fffcc 	andi	r16,r16,65535
1000bfc8:	1023883a 	mov	r17,r2
1000bfcc:	8520b03a 	or	r16,r16,r20
1000bfd0:	000c9680 	call	1000c968 <__mulsi3>
1000bfd4:	8080042e 	bgeu	r16,r2,1000bfe8 <__udivdi3+0x3f4>
1000bfd8:	8721883a 	add	r16,r16,fp
1000bfdc:	88ffffc4 	addi	r3,r17,-1
1000bfe0:	8700712e 	bgeu	r16,fp,1000c1a8 <__udivdi3+0x5b4>
1000bfe4:	1823883a 	mov	r17,r3
1000bfe8:	a80e943a 	slli	r7,r21,16
1000bfec:	d8c00017 	ldw	r3,0(sp)
1000bff0:	80a1c83a 	sub	r16,r16,r2
1000bff4:	3c64b03a 	or	r18,r7,r17
1000bff8:	1d3fffcc 	andi	r20,r3,65535
1000bffc:	9022d43a 	srli	r17,r18,16
1000c000:	95bfffcc 	andi	r22,r18,65535
1000c004:	a00b883a 	mov	r5,r20
1000c008:	b009883a 	mov	r4,r22
1000c00c:	182ad43a 	srli	r21,r3,16
1000c010:	000c9680 	call	1000c968 <__mulsi3>
1000c014:	a00b883a 	mov	r5,r20
1000c018:	8809883a 	mov	r4,r17
1000c01c:	1039883a 	mov	fp,r2
1000c020:	000c9680 	call	1000c968 <__mulsi3>
1000c024:	8809883a 	mov	r4,r17
1000c028:	a80b883a 	mov	r5,r21
1000c02c:	1029883a 	mov	r20,r2
1000c030:	000c9680 	call	1000c968 <__mulsi3>
1000c034:	a80b883a 	mov	r5,r21
1000c038:	b009883a 	mov	r4,r22
1000c03c:	1023883a 	mov	r17,r2
1000c040:	000c9680 	call	1000c968 <__mulsi3>
1000c044:	e006d43a 	srli	r3,fp,16
1000c048:	1505883a 	add	r2,r2,r20
1000c04c:	1887883a 	add	r3,r3,r2
1000c050:	1d00022e 	bgeu	r3,r20,1000c05c <__udivdi3+0x468>
1000c054:	00800074 	movhi	r2,1
1000c058:	88a3883a 	add	r17,r17,r2
1000c05c:	1804d43a 	srli	r2,r3,16
1000c060:	1463883a 	add	r17,r2,r17
1000c064:	84404436 	bltu	r16,r17,1000c178 <__udivdi3+0x584>
1000c068:	84403e26 	beq	r16,r17,1000c164 <__udivdi3+0x570>
1000c06c:	9005883a 	mov	r2,r18
1000c070:	0007883a 	mov	r3,zero
1000c074:	003f9106 	br	1000bebc <__alt_data_end+0xf800bebc>
1000c078:	88e2983a 	sll	r17,r17,r3
1000c07c:	80aed83a 	srl	r23,r16,r2
1000c080:	80e0983a 	sll	r16,r16,r3
1000c084:	882ad43a 	srli	r21,r17,16
1000c088:	9884d83a 	srl	r2,r19,r2
1000c08c:	b809883a 	mov	r4,r23
1000c090:	a80b883a 	mov	r5,r21
1000c094:	98e4983a 	sll	r18,r19,r3
1000c098:	142cb03a 	or	r22,r2,r16
1000c09c:	000c9100 	call	1000c910 <__umodsi3>
1000c0a0:	b809883a 	mov	r4,r23
1000c0a4:	a80b883a 	mov	r5,r21
1000c0a8:	1027883a 	mov	r19,r2
1000c0ac:	8d3fffcc 	andi	r20,r17,65535
1000c0b0:	000c8ac0 	call	1000c8ac <__udivsi3>
1000c0b4:	a009883a 	mov	r4,r20
1000c0b8:	100b883a 	mov	r5,r2
1000c0bc:	102f883a 	mov	r23,r2
1000c0c0:	000c9680 	call	1000c968 <__mulsi3>
1000c0c4:	9826943a 	slli	r19,r19,16
1000c0c8:	b008d43a 	srli	r4,r22,16
1000c0cc:	24c8b03a 	or	r4,r4,r19
1000c0d0:	2080062e 	bgeu	r4,r2,1000c0ec <__udivdi3+0x4f8>
1000c0d4:	2449883a 	add	r4,r4,r17
1000c0d8:	b8ffffc4 	addi	r3,r23,-1
1000c0dc:	24403c36 	bltu	r4,r17,1000c1d0 <__udivdi3+0x5dc>
1000c0e0:	20803b2e 	bgeu	r4,r2,1000c1d0 <__udivdi3+0x5dc>
1000c0e4:	bdffff84 	addi	r23,r23,-2
1000c0e8:	2449883a 	add	r4,r4,r17
1000c0ec:	20a1c83a 	sub	r16,r4,r2
1000c0f0:	a80b883a 	mov	r5,r21
1000c0f4:	8009883a 	mov	r4,r16
1000c0f8:	000c9100 	call	1000c910 <__umodsi3>
1000c0fc:	a80b883a 	mov	r5,r21
1000c100:	8009883a 	mov	r4,r16
1000c104:	1027883a 	mov	r19,r2
1000c108:	000c8ac0 	call	1000c8ac <__udivsi3>
1000c10c:	a009883a 	mov	r4,r20
1000c110:	100b883a 	mov	r5,r2
1000c114:	9826943a 	slli	r19,r19,16
1000c118:	1039883a 	mov	fp,r2
1000c11c:	000c9680 	call	1000c968 <__mulsi3>
1000c120:	b13fffcc 	andi	r4,r22,65535
1000c124:	24c8b03a 	or	r4,r4,r19
1000c128:	2080062e 	bgeu	r4,r2,1000c144 <__udivdi3+0x550>
1000c12c:	2449883a 	add	r4,r4,r17
1000c130:	e0ffffc4 	addi	r3,fp,-1
1000c134:	24402436 	bltu	r4,r17,1000c1c8 <__udivdi3+0x5d4>
1000c138:	2080232e 	bgeu	r4,r2,1000c1c8 <__udivdi3+0x5d4>
1000c13c:	e73fff84 	addi	fp,fp,-2
1000c140:	2449883a 	add	r4,r4,r17
1000c144:	b82e943a 	slli	r23,r23,16
1000c148:	20a1c83a 	sub	r16,r4,r2
1000c14c:	bf06b03a 	or	r3,r23,fp
1000c150:	003f2806 	br	1000bdf4 <__alt_data_end+0xf800bdf4>
1000c154:	2021883a 	mov	r16,r4
1000c158:	003f5306 	br	1000bea8 <__alt_data_end+0xf800bea8>
1000c15c:	1821883a 	mov	r16,r3
1000c160:	003ef406 	br	1000bd34 <__alt_data_end+0xf800bd34>
1000c164:	1806943a 	slli	r3,r3,16
1000c168:	9de6983a 	sll	r19,r19,r23
1000c16c:	e73fffcc 	andi	fp,fp,65535
1000c170:	1f07883a 	add	r3,r3,fp
1000c174:	98ffbd2e 	bgeu	r19,r3,1000c06c <__alt_data_end+0xf800c06c>
1000c178:	90bfffc4 	addi	r2,r18,-1
1000c17c:	0007883a 	mov	r3,zero
1000c180:	003f4e06 	br	1000bebc <__alt_data_end+0xf800bebc>
1000c184:	00800604 	movi	r2,24
1000c188:	003ef506 	br	1000bd60 <__alt_data_end+0xf800bd60>
1000c18c:	00800604 	movi	r2,24
1000c190:	003f0b06 	br	1000bdc0 <__alt_data_end+0xf800bdc0>
1000c194:	00800604 	movi	r2,24
1000c198:	003ead06 	br	1000bc50 <__alt_data_end+0xf800bc50>
1000c19c:	0007883a 	mov	r3,zero
1000c1a0:	00800044 	movi	r2,1
1000c1a4:	003f4506 	br	1000bebc <__alt_data_end+0xf800bebc>
1000c1a8:	80bf8e2e 	bgeu	r16,r2,1000bfe4 <__alt_data_end+0xf800bfe4>
1000c1ac:	8c7fff84 	addi	r17,r17,-2
1000c1b0:	8721883a 	add	r16,r16,fp
1000c1b4:	003f8c06 	br	1000bfe8 <__alt_data_end+0xf800bfe8>
1000c1b8:	18bf762e 	bgeu	r3,r2,1000bf94 <__alt_data_end+0xf800bf94>
1000c1bc:	ad7fff84 	addi	r21,r21,-2
1000c1c0:	1f07883a 	add	r3,r3,fp
1000c1c4:	003f7406 	br	1000bf98 <__alt_data_end+0xf800bf98>
1000c1c8:	1839883a 	mov	fp,r3
1000c1cc:	003fdd06 	br	1000c144 <__alt_data_end+0xf800c144>
1000c1d0:	182f883a 	mov	r23,r3
1000c1d4:	003fc506 	br	1000c0ec <__alt_data_end+0xf800c0ec>
1000c1d8:	b5bfff84 	addi	r22,r22,-2
1000c1dc:	3c4f883a 	add	r7,r7,r17
1000c1e0:	003f1a06 	br	1000be4c <__alt_data_end+0xf800be4c>
1000c1e4:	b5bfff84 	addi	r22,r22,-2
1000c1e8:	1c47883a 	add	r3,r3,r17
1000c1ec:	003ebc06 	br	1000bce0 <__alt_data_end+0xf800bce0>

1000c1f0 <__umoddi3>:
1000c1f0:	defff304 	addi	sp,sp,-52
1000c1f4:	df000b15 	stw	fp,44(sp)
1000c1f8:	dc400415 	stw	r17,16(sp)
1000c1fc:	dc000315 	stw	r16,12(sp)
1000c200:	dfc00c15 	stw	ra,48(sp)
1000c204:	ddc00a15 	stw	r23,40(sp)
1000c208:	dd800915 	stw	r22,36(sp)
1000c20c:	dd400815 	stw	r21,32(sp)
1000c210:	dd000715 	stw	r20,28(sp)
1000c214:	dcc00615 	stw	r19,24(sp)
1000c218:	dc800515 	stw	r18,20(sp)
1000c21c:	2021883a 	mov	r16,r4
1000c220:	2823883a 	mov	r17,r5
1000c224:	2839883a 	mov	fp,r5
1000c228:	3800401e 	bne	r7,zero,1000c32c <__umoddi3+0x13c>
1000c22c:	3027883a 	mov	r19,r6
1000c230:	2029883a 	mov	r20,r4
1000c234:	2980552e 	bgeu	r5,r6,1000c38c <__umoddi3+0x19c>
1000c238:	00bfffd4 	movui	r2,65535
1000c23c:	1180a236 	bltu	r2,r6,1000c4c8 <__umoddi3+0x2d8>
1000c240:	01003fc4 	movi	r4,255
1000c244:	2189803a 	cmpltu	r4,r4,r6
1000c248:	200890fa 	slli	r4,r4,3
1000c24c:	3104d83a 	srl	r2,r6,r4
1000c250:	00c40074 	movhi	r3,4097
1000c254:	18c8f104 	addi	r3,r3,9156
1000c258:	1885883a 	add	r2,r3,r2
1000c25c:	10c00003 	ldbu	r3,0(r2)
1000c260:	00800804 	movi	r2,32
1000c264:	1909883a 	add	r4,r3,r4
1000c268:	1125c83a 	sub	r18,r2,r4
1000c26c:	90000526 	beq	r18,zero,1000c284 <__umoddi3+0x94>
1000c270:	8ca2983a 	sll	r17,r17,r18
1000c274:	8108d83a 	srl	r4,r16,r4
1000c278:	34a6983a 	sll	r19,r6,r18
1000c27c:	84a8983a 	sll	r20,r16,r18
1000c280:	2478b03a 	or	fp,r4,r17
1000c284:	982cd43a 	srli	r22,r19,16
1000c288:	e009883a 	mov	r4,fp
1000c28c:	9dffffcc 	andi	r23,r19,65535
1000c290:	b00b883a 	mov	r5,r22
1000c294:	000c9100 	call	1000c910 <__umodsi3>
1000c298:	b00b883a 	mov	r5,r22
1000c29c:	e009883a 	mov	r4,fp
1000c2a0:	102b883a 	mov	r21,r2
1000c2a4:	000c8ac0 	call	1000c8ac <__udivsi3>
1000c2a8:	100b883a 	mov	r5,r2
1000c2ac:	b809883a 	mov	r4,r23
1000c2b0:	000c9680 	call	1000c968 <__mulsi3>
1000c2b4:	a82a943a 	slli	r21,r21,16
1000c2b8:	a006d43a 	srli	r3,r20,16
1000c2bc:	1d46b03a 	or	r3,r3,r21
1000c2c0:	1880032e 	bgeu	r3,r2,1000c2d0 <__umoddi3+0xe0>
1000c2c4:	1cc7883a 	add	r3,r3,r19
1000c2c8:	1cc00136 	bltu	r3,r19,1000c2d0 <__umoddi3+0xe0>
1000c2cc:	18813136 	bltu	r3,r2,1000c794 <__umoddi3+0x5a4>
1000c2d0:	18a1c83a 	sub	r16,r3,r2
1000c2d4:	b00b883a 	mov	r5,r22
1000c2d8:	8009883a 	mov	r4,r16
1000c2dc:	000c9100 	call	1000c910 <__umodsi3>
1000c2e0:	b00b883a 	mov	r5,r22
1000c2e4:	8009883a 	mov	r4,r16
1000c2e8:	1023883a 	mov	r17,r2
1000c2ec:	000c8ac0 	call	1000c8ac <__udivsi3>
1000c2f0:	100b883a 	mov	r5,r2
1000c2f4:	b809883a 	mov	r4,r23
1000c2f8:	8822943a 	slli	r17,r17,16
1000c2fc:	000c9680 	call	1000c968 <__mulsi3>
1000c300:	a0ffffcc 	andi	r3,r20,65535
1000c304:	1c46b03a 	or	r3,r3,r17
1000c308:	1880042e 	bgeu	r3,r2,1000c31c <__umoddi3+0x12c>
1000c30c:	1cc7883a 	add	r3,r3,r19
1000c310:	1cc00236 	bltu	r3,r19,1000c31c <__umoddi3+0x12c>
1000c314:	1880012e 	bgeu	r3,r2,1000c31c <__umoddi3+0x12c>
1000c318:	1cc7883a 	add	r3,r3,r19
1000c31c:	1885c83a 	sub	r2,r3,r2
1000c320:	1484d83a 	srl	r2,r2,r18
1000c324:	0007883a 	mov	r3,zero
1000c328:	00005306 	br	1000c478 <__umoddi3+0x288>
1000c32c:	29c05036 	bltu	r5,r7,1000c470 <__umoddi3+0x280>
1000c330:	00bfffd4 	movui	r2,65535
1000c334:	11c05c2e 	bgeu	r2,r7,1000c4a8 <__umoddi3+0x2b8>
1000c338:	00804034 	movhi	r2,256
1000c33c:	10bfffc4 	addi	r2,r2,-1
1000c340:	11c10636 	bltu	r2,r7,1000c75c <__umoddi3+0x56c>
1000c344:	01000404 	movi	r4,16
1000c348:	3904d83a 	srl	r2,r7,r4
1000c34c:	00c40074 	movhi	r3,4097
1000c350:	18c8f104 	addi	r3,r3,9156
1000c354:	1885883a 	add	r2,r3,r2
1000c358:	14c00003 	ldbu	r19,0(r2)
1000c35c:	00c00804 	movi	r3,32
1000c360:	9927883a 	add	r19,r19,r4
1000c364:	1ce9c83a 	sub	r20,r3,r19
1000c368:	a0005c1e 	bne	r20,zero,1000c4dc <__umoddi3+0x2ec>
1000c36c:	3c400136 	bltu	r7,r17,1000c374 <__umoddi3+0x184>
1000c370:	81810a36 	bltu	r16,r6,1000c79c <__umoddi3+0x5ac>
1000c374:	8185c83a 	sub	r2,r16,r6
1000c378:	89e3c83a 	sub	r17,r17,r7
1000c37c:	8089803a 	cmpltu	r4,r16,r2
1000c380:	8939c83a 	sub	fp,r17,r4
1000c384:	e007883a 	mov	r3,fp
1000c388:	00003b06 	br	1000c478 <__umoddi3+0x288>
1000c38c:	3000041e 	bne	r6,zero,1000c3a0 <__umoddi3+0x1b0>
1000c390:	000b883a 	mov	r5,zero
1000c394:	01000044 	movi	r4,1
1000c398:	000c8ac0 	call	1000c8ac <__udivsi3>
1000c39c:	1027883a 	mov	r19,r2
1000c3a0:	00bfffd4 	movui	r2,65535
1000c3a4:	14c0442e 	bgeu	r2,r19,1000c4b8 <__umoddi3+0x2c8>
1000c3a8:	00804034 	movhi	r2,256
1000c3ac:	10bfffc4 	addi	r2,r2,-1
1000c3b0:	14c0ec36 	bltu	r2,r19,1000c764 <__umoddi3+0x574>
1000c3b4:	00800404 	movi	r2,16
1000c3b8:	9886d83a 	srl	r3,r19,r2
1000c3bc:	01040074 	movhi	r4,4097
1000c3c0:	2108f104 	addi	r4,r4,9156
1000c3c4:	20c7883a 	add	r3,r4,r3
1000c3c8:	18c00003 	ldbu	r3,0(r3)
1000c3cc:	1887883a 	add	r3,r3,r2
1000c3d0:	00800804 	movi	r2,32
1000c3d4:	10e5c83a 	sub	r18,r2,r3
1000c3d8:	9000ab1e 	bne	r18,zero,1000c688 <__umoddi3+0x498>
1000c3dc:	982cd43a 	srli	r22,r19,16
1000c3e0:	8ce3c83a 	sub	r17,r17,r19
1000c3e4:	9dffffcc 	andi	r23,r19,65535
1000c3e8:	b00b883a 	mov	r5,r22
1000c3ec:	8809883a 	mov	r4,r17
1000c3f0:	000c9100 	call	1000c910 <__umodsi3>
1000c3f4:	b00b883a 	mov	r5,r22
1000c3f8:	8809883a 	mov	r4,r17
1000c3fc:	102b883a 	mov	r21,r2
1000c400:	000c8ac0 	call	1000c8ac <__udivsi3>
1000c404:	b80b883a 	mov	r5,r23
1000c408:	1009883a 	mov	r4,r2
1000c40c:	000c9680 	call	1000c968 <__mulsi3>
1000c410:	a82a943a 	slli	r21,r21,16
1000c414:	a006d43a 	srli	r3,r20,16
1000c418:	1d46b03a 	or	r3,r3,r21
1000c41c:	1880042e 	bgeu	r3,r2,1000c430 <__umoddi3+0x240>
1000c420:	1cc7883a 	add	r3,r3,r19
1000c424:	1cc00236 	bltu	r3,r19,1000c430 <__umoddi3+0x240>
1000c428:	1880012e 	bgeu	r3,r2,1000c430 <__umoddi3+0x240>
1000c42c:	1cc7883a 	add	r3,r3,r19
1000c430:	18a1c83a 	sub	r16,r3,r2
1000c434:	b00b883a 	mov	r5,r22
1000c438:	8009883a 	mov	r4,r16
1000c43c:	000c9100 	call	1000c910 <__umodsi3>
1000c440:	1023883a 	mov	r17,r2
1000c444:	b00b883a 	mov	r5,r22
1000c448:	8009883a 	mov	r4,r16
1000c44c:	000c8ac0 	call	1000c8ac <__udivsi3>
1000c450:	8822943a 	slli	r17,r17,16
1000c454:	b80b883a 	mov	r5,r23
1000c458:	1009883a 	mov	r4,r2
1000c45c:	000c9680 	call	1000c968 <__mulsi3>
1000c460:	a53fffcc 	andi	r20,r20,65535
1000c464:	a446b03a 	or	r3,r20,r17
1000c468:	18bfac2e 	bgeu	r3,r2,1000c31c <__alt_data_end+0xf800c31c>
1000c46c:	003fa706 	br	1000c30c <__alt_data_end+0xf800c30c>
1000c470:	2005883a 	mov	r2,r4
1000c474:	2807883a 	mov	r3,r5
1000c478:	dfc00c17 	ldw	ra,48(sp)
1000c47c:	df000b17 	ldw	fp,44(sp)
1000c480:	ddc00a17 	ldw	r23,40(sp)
1000c484:	dd800917 	ldw	r22,36(sp)
1000c488:	dd400817 	ldw	r21,32(sp)
1000c48c:	dd000717 	ldw	r20,28(sp)
1000c490:	dcc00617 	ldw	r19,24(sp)
1000c494:	dc800517 	ldw	r18,20(sp)
1000c498:	dc400417 	ldw	r17,16(sp)
1000c49c:	dc000317 	ldw	r16,12(sp)
1000c4a0:	dec00d04 	addi	sp,sp,52
1000c4a4:	f800283a 	ret
1000c4a8:	04c03fc4 	movi	r19,255
1000c4ac:	99c9803a 	cmpltu	r4,r19,r7
1000c4b0:	200890fa 	slli	r4,r4,3
1000c4b4:	003fa406 	br	1000c348 <__alt_data_end+0xf800c348>
1000c4b8:	00803fc4 	movi	r2,255
1000c4bc:	14c5803a 	cmpltu	r2,r2,r19
1000c4c0:	100490fa 	slli	r2,r2,3
1000c4c4:	003fbc06 	br	1000c3b8 <__alt_data_end+0xf800c3b8>
1000c4c8:	00804034 	movhi	r2,256
1000c4cc:	10bfffc4 	addi	r2,r2,-1
1000c4d0:	1180a636 	bltu	r2,r6,1000c76c <__umoddi3+0x57c>
1000c4d4:	01000404 	movi	r4,16
1000c4d8:	003f5c06 	br	1000c24c <__alt_data_end+0xf800c24c>
1000c4dc:	3d0e983a 	sll	r7,r7,r20
1000c4e0:	34ead83a 	srl	r21,r6,r19
1000c4e4:	8cc6d83a 	srl	r3,r17,r19
1000c4e8:	8d10983a 	sll	r8,r17,r20
1000c4ec:	3d6ab03a 	or	r21,r7,r21
1000c4f0:	a82cd43a 	srli	r22,r21,16
1000c4f4:	84e2d83a 	srl	r17,r16,r19
1000c4f8:	1809883a 	mov	r4,r3
1000c4fc:	b00b883a 	mov	r5,r22
1000c500:	8a22b03a 	or	r17,r17,r8
1000c504:	3524983a 	sll	r18,r6,r20
1000c508:	dc400015 	stw	r17,0(sp)
1000c50c:	d8c00115 	stw	r3,4(sp)
1000c510:	000c9100 	call	1000c910 <__umodsi3>
1000c514:	d8c00117 	ldw	r3,4(sp)
1000c518:	b00b883a 	mov	r5,r22
1000c51c:	1039883a 	mov	fp,r2
1000c520:	1809883a 	mov	r4,r3
1000c524:	000c8ac0 	call	1000c8ac <__udivsi3>
1000c528:	adffffcc 	andi	r23,r21,65535
1000c52c:	100b883a 	mov	r5,r2
1000c530:	b809883a 	mov	r4,r23
1000c534:	1023883a 	mov	r17,r2
1000c538:	000c9680 	call	1000c968 <__mulsi3>
1000c53c:	d9400017 	ldw	r5,0(sp)
1000c540:	e008943a 	slli	r4,fp,16
1000c544:	8520983a 	sll	r16,r16,r20
1000c548:	2806d43a 	srli	r3,r5,16
1000c54c:	1906b03a 	or	r3,r3,r4
1000c550:	1880042e 	bgeu	r3,r2,1000c564 <__umoddi3+0x374>
1000c554:	1d47883a 	add	r3,r3,r21
1000c558:	893fffc4 	addi	r4,r17,-1
1000c55c:	1d40892e 	bgeu	r3,r21,1000c784 <__umoddi3+0x594>
1000c560:	2023883a 	mov	r17,r4
1000c564:	18b9c83a 	sub	fp,r3,r2
1000c568:	b00b883a 	mov	r5,r22
1000c56c:	e009883a 	mov	r4,fp
1000c570:	000c9100 	call	1000c910 <__umodsi3>
1000c574:	b00b883a 	mov	r5,r22
1000c578:	e009883a 	mov	r4,fp
1000c57c:	d8800215 	stw	r2,8(sp)
1000c580:	000c8ac0 	call	1000c8ac <__udivsi3>
1000c584:	100b883a 	mov	r5,r2
1000c588:	b809883a 	mov	r4,r23
1000c58c:	102d883a 	mov	r22,r2
1000c590:	000c9680 	call	1000c968 <__mulsi3>
1000c594:	d9800217 	ldw	r6,8(sp)
1000c598:	d8c00017 	ldw	r3,0(sp)
1000c59c:	300c943a 	slli	r6,r6,16
1000c5a0:	1a3fffcc 	andi	r8,r3,65535
1000c5a4:	4190b03a 	or	r8,r8,r6
1000c5a8:	4080042e 	bgeu	r8,r2,1000c5bc <__umoddi3+0x3cc>
1000c5ac:	4551883a 	add	r8,r8,r21
1000c5b0:	b0ffffc4 	addi	r3,r22,-1
1000c5b4:	45406f2e 	bgeu	r8,r21,1000c774 <__umoddi3+0x584>
1000c5b8:	182d883a 	mov	r22,r3
1000c5bc:	880e943a 	slli	r7,r17,16
1000c5c0:	9006d43a 	srli	r3,r18,16
1000c5c4:	91bfffcc 	andi	r6,r18,65535
1000c5c8:	3dacb03a 	or	r22,r7,r22
1000c5cc:	b02ed43a 	srli	r23,r22,16
1000c5d0:	b5bfffcc 	andi	r22,r22,65535
1000c5d4:	300b883a 	mov	r5,r6
1000c5d8:	b009883a 	mov	r4,r22
1000c5dc:	40a3c83a 	sub	r17,r8,r2
1000c5e0:	d8c00115 	stw	r3,4(sp)
1000c5e4:	d9800215 	stw	r6,8(sp)
1000c5e8:	000c9680 	call	1000c968 <__mulsi3>
1000c5ec:	d9800217 	ldw	r6,8(sp)
1000c5f0:	b809883a 	mov	r4,r23
1000c5f4:	1039883a 	mov	fp,r2
1000c5f8:	300b883a 	mov	r5,r6
1000c5fc:	000c9680 	call	1000c968 <__mulsi3>
1000c600:	d8c00117 	ldw	r3,4(sp)
1000c604:	b809883a 	mov	r4,r23
1000c608:	d8800215 	stw	r2,8(sp)
1000c60c:	180b883a 	mov	r5,r3
1000c610:	000c9680 	call	1000c968 <__mulsi3>
1000c614:	d8c00117 	ldw	r3,4(sp)
1000c618:	b009883a 	mov	r4,r22
1000c61c:	102f883a 	mov	r23,r2
1000c620:	180b883a 	mov	r5,r3
1000c624:	000c9680 	call	1000c968 <__mulsi3>
1000c628:	d9800217 	ldw	r6,8(sp)
1000c62c:	e006d43a 	srli	r3,fp,16
1000c630:	1185883a 	add	r2,r2,r6
1000c634:	1885883a 	add	r2,r3,r2
1000c638:	1180022e 	bgeu	r2,r6,1000c644 <__umoddi3+0x454>
1000c63c:	00c00074 	movhi	r3,1
1000c640:	b8ef883a 	add	r23,r23,r3
1000c644:	1006d43a 	srli	r3,r2,16
1000c648:	1004943a 	slli	r2,r2,16
1000c64c:	e73fffcc 	andi	fp,fp,65535
1000c650:	1dc7883a 	add	r3,r3,r23
1000c654:	1739883a 	add	fp,r2,fp
1000c658:	88c03a36 	bltu	r17,r3,1000c744 <__umoddi3+0x554>
1000c65c:	88c05126 	beq	r17,r3,1000c7a4 <__umoddi3+0x5b4>
1000c660:	88c9c83a 	sub	r4,r17,r3
1000c664:	e00f883a 	mov	r7,fp
1000c668:	81cfc83a 	sub	r7,r16,r7
1000c66c:	81c7803a 	cmpltu	r3,r16,r7
1000c670:	20c7c83a 	sub	r3,r4,r3
1000c674:	1cc4983a 	sll	r2,r3,r19
1000c678:	3d0ed83a 	srl	r7,r7,r20
1000c67c:	1d06d83a 	srl	r3,r3,r20
1000c680:	11c4b03a 	or	r2,r2,r7
1000c684:	003f7c06 	br	1000c478 <__alt_data_end+0xf800c478>
1000c688:	9ca6983a 	sll	r19,r19,r18
1000c68c:	88f8d83a 	srl	fp,r17,r3
1000c690:	80c4d83a 	srl	r2,r16,r3
1000c694:	982cd43a 	srli	r22,r19,16
1000c698:	8ca2983a 	sll	r17,r17,r18
1000c69c:	e009883a 	mov	r4,fp
1000c6a0:	b00b883a 	mov	r5,r22
1000c6a4:	146ab03a 	or	r21,r2,r17
1000c6a8:	000c9100 	call	1000c910 <__umodsi3>
1000c6ac:	b00b883a 	mov	r5,r22
1000c6b0:	e009883a 	mov	r4,fp
1000c6b4:	1029883a 	mov	r20,r2
1000c6b8:	9dffffcc 	andi	r23,r19,65535
1000c6bc:	000c8ac0 	call	1000c8ac <__udivsi3>
1000c6c0:	b809883a 	mov	r4,r23
1000c6c4:	100b883a 	mov	r5,r2
1000c6c8:	000c9680 	call	1000c968 <__mulsi3>
1000c6cc:	a008943a 	slli	r4,r20,16
1000c6d0:	a806d43a 	srli	r3,r21,16
1000c6d4:	84a8983a 	sll	r20,r16,r18
1000c6d8:	1906b03a 	or	r3,r3,r4
1000c6dc:	1880042e 	bgeu	r3,r2,1000c6f0 <__umoddi3+0x500>
1000c6e0:	1cc7883a 	add	r3,r3,r19
1000c6e4:	1cc00236 	bltu	r3,r19,1000c6f0 <__umoddi3+0x500>
1000c6e8:	1880012e 	bgeu	r3,r2,1000c6f0 <__umoddi3+0x500>
1000c6ec:	1cc7883a 	add	r3,r3,r19
1000c6f0:	18a3c83a 	sub	r17,r3,r2
1000c6f4:	b00b883a 	mov	r5,r22
1000c6f8:	8809883a 	mov	r4,r17
1000c6fc:	000c9100 	call	1000c910 <__umodsi3>
1000c700:	b00b883a 	mov	r5,r22
1000c704:	8809883a 	mov	r4,r17
1000c708:	1021883a 	mov	r16,r2
1000c70c:	000c8ac0 	call	1000c8ac <__udivsi3>
1000c710:	100b883a 	mov	r5,r2
1000c714:	b809883a 	mov	r4,r23
1000c718:	8020943a 	slli	r16,r16,16
1000c71c:	000c9680 	call	1000c968 <__mulsi3>
1000c720:	a8ffffcc 	andi	r3,r21,65535
1000c724:	1c06b03a 	or	r3,r3,r16
1000c728:	1880042e 	bgeu	r3,r2,1000c73c <__umoddi3+0x54c>
1000c72c:	1cc7883a 	add	r3,r3,r19
1000c730:	1cc00236 	bltu	r3,r19,1000c73c <__umoddi3+0x54c>
1000c734:	1880012e 	bgeu	r3,r2,1000c73c <__umoddi3+0x54c>
1000c738:	1cc7883a 	add	r3,r3,r19
1000c73c:	18a3c83a 	sub	r17,r3,r2
1000c740:	003f2906 	br	1000c3e8 <__alt_data_end+0xf800c3e8>
1000c744:	e48fc83a 	sub	r7,fp,r18
1000c748:	1d49c83a 	sub	r4,r3,r21
1000c74c:	e1f9803a 	cmpltu	fp,fp,r7
1000c750:	2739c83a 	sub	fp,r4,fp
1000c754:	8f09c83a 	sub	r4,r17,fp
1000c758:	003fc306 	br	1000c668 <__alt_data_end+0xf800c668>
1000c75c:	01000604 	movi	r4,24
1000c760:	003ef906 	br	1000c348 <__alt_data_end+0xf800c348>
1000c764:	00800604 	movi	r2,24
1000c768:	003f1306 	br	1000c3b8 <__alt_data_end+0xf800c3b8>
1000c76c:	01000604 	movi	r4,24
1000c770:	003eb606 	br	1000c24c <__alt_data_end+0xf800c24c>
1000c774:	40bf902e 	bgeu	r8,r2,1000c5b8 <__alt_data_end+0xf800c5b8>
1000c778:	b5bfff84 	addi	r22,r22,-2
1000c77c:	4551883a 	add	r8,r8,r21
1000c780:	003f8e06 	br	1000c5bc <__alt_data_end+0xf800c5bc>
1000c784:	18bf762e 	bgeu	r3,r2,1000c560 <__alt_data_end+0xf800c560>
1000c788:	8c7fff84 	addi	r17,r17,-2
1000c78c:	1d47883a 	add	r3,r3,r21
1000c790:	003f7406 	br	1000c564 <__alt_data_end+0xf800c564>
1000c794:	1cc7883a 	add	r3,r3,r19
1000c798:	003ecd06 	br	1000c2d0 <__alt_data_end+0xf800c2d0>
1000c79c:	8005883a 	mov	r2,r16
1000c7a0:	003ef806 	br	1000c384 <__alt_data_end+0xf800c384>
1000c7a4:	873fe736 	bltu	r16,fp,1000c744 <__alt_data_end+0xf800c744>
1000c7a8:	e00f883a 	mov	r7,fp
1000c7ac:	0009883a 	mov	r4,zero
1000c7b0:	003fad06 	br	1000c668 <__alt_data_end+0xf800c668>

1000c7b4 <__divsi3>:
1000c7b4:	20001b16 	blt	r4,zero,1000c824 <__divsi3+0x70>
1000c7b8:	000f883a 	mov	r7,zero
1000c7bc:	28001616 	blt	r5,zero,1000c818 <__divsi3+0x64>
1000c7c0:	200d883a 	mov	r6,r4
1000c7c4:	29001a2e 	bgeu	r5,r4,1000c830 <__divsi3+0x7c>
1000c7c8:	00800804 	movi	r2,32
1000c7cc:	00c00044 	movi	r3,1
1000c7d0:	00000106 	br	1000c7d8 <__divsi3+0x24>
1000c7d4:	10000d26 	beq	r2,zero,1000c80c <__divsi3+0x58>
1000c7d8:	294b883a 	add	r5,r5,r5
1000c7dc:	10bfffc4 	addi	r2,r2,-1
1000c7e0:	18c7883a 	add	r3,r3,r3
1000c7e4:	293ffb36 	bltu	r5,r4,1000c7d4 <__alt_data_end+0xf800c7d4>
1000c7e8:	0005883a 	mov	r2,zero
1000c7ec:	18000726 	beq	r3,zero,1000c80c <__divsi3+0x58>
1000c7f0:	0005883a 	mov	r2,zero
1000c7f4:	31400236 	bltu	r6,r5,1000c800 <__divsi3+0x4c>
1000c7f8:	314dc83a 	sub	r6,r6,r5
1000c7fc:	10c4b03a 	or	r2,r2,r3
1000c800:	1806d07a 	srli	r3,r3,1
1000c804:	280ad07a 	srli	r5,r5,1
1000c808:	183ffa1e 	bne	r3,zero,1000c7f4 <__alt_data_end+0xf800c7f4>
1000c80c:	38000126 	beq	r7,zero,1000c814 <__divsi3+0x60>
1000c810:	0085c83a 	sub	r2,zero,r2
1000c814:	f800283a 	ret
1000c818:	014bc83a 	sub	r5,zero,r5
1000c81c:	39c0005c 	xori	r7,r7,1
1000c820:	003fe706 	br	1000c7c0 <__alt_data_end+0xf800c7c0>
1000c824:	0109c83a 	sub	r4,zero,r4
1000c828:	01c00044 	movi	r7,1
1000c82c:	003fe306 	br	1000c7bc <__alt_data_end+0xf800c7bc>
1000c830:	00c00044 	movi	r3,1
1000c834:	003fee06 	br	1000c7f0 <__alt_data_end+0xf800c7f0>

1000c838 <__modsi3>:
1000c838:	20001716 	blt	r4,zero,1000c898 <__modsi3+0x60>
1000c83c:	000f883a 	mov	r7,zero
1000c840:	2005883a 	mov	r2,r4
1000c844:	28001216 	blt	r5,zero,1000c890 <__modsi3+0x58>
1000c848:	2900162e 	bgeu	r5,r4,1000c8a4 <__modsi3+0x6c>
1000c84c:	01800804 	movi	r6,32
1000c850:	00c00044 	movi	r3,1
1000c854:	00000106 	br	1000c85c <__modsi3+0x24>
1000c858:	30000a26 	beq	r6,zero,1000c884 <__modsi3+0x4c>
1000c85c:	294b883a 	add	r5,r5,r5
1000c860:	31bfffc4 	addi	r6,r6,-1
1000c864:	18c7883a 	add	r3,r3,r3
1000c868:	293ffb36 	bltu	r5,r4,1000c858 <__alt_data_end+0xf800c858>
1000c86c:	18000526 	beq	r3,zero,1000c884 <__modsi3+0x4c>
1000c870:	1806d07a 	srli	r3,r3,1
1000c874:	11400136 	bltu	r2,r5,1000c87c <__modsi3+0x44>
1000c878:	1145c83a 	sub	r2,r2,r5
1000c87c:	280ad07a 	srli	r5,r5,1
1000c880:	183ffb1e 	bne	r3,zero,1000c870 <__alt_data_end+0xf800c870>
1000c884:	38000126 	beq	r7,zero,1000c88c <__modsi3+0x54>
1000c888:	0085c83a 	sub	r2,zero,r2
1000c88c:	f800283a 	ret
1000c890:	014bc83a 	sub	r5,zero,r5
1000c894:	003fec06 	br	1000c848 <__alt_data_end+0xf800c848>
1000c898:	0109c83a 	sub	r4,zero,r4
1000c89c:	01c00044 	movi	r7,1
1000c8a0:	003fe706 	br	1000c840 <__alt_data_end+0xf800c840>
1000c8a4:	00c00044 	movi	r3,1
1000c8a8:	003ff106 	br	1000c870 <__alt_data_end+0xf800c870>

1000c8ac <__udivsi3>:
1000c8ac:	200d883a 	mov	r6,r4
1000c8b0:	2900152e 	bgeu	r5,r4,1000c908 <__udivsi3+0x5c>
1000c8b4:	28001416 	blt	r5,zero,1000c908 <__udivsi3+0x5c>
1000c8b8:	00800804 	movi	r2,32
1000c8bc:	00c00044 	movi	r3,1
1000c8c0:	00000206 	br	1000c8cc <__udivsi3+0x20>
1000c8c4:	10000e26 	beq	r2,zero,1000c900 <__udivsi3+0x54>
1000c8c8:	28000516 	blt	r5,zero,1000c8e0 <__udivsi3+0x34>
1000c8cc:	294b883a 	add	r5,r5,r5
1000c8d0:	10bfffc4 	addi	r2,r2,-1
1000c8d4:	18c7883a 	add	r3,r3,r3
1000c8d8:	293ffa36 	bltu	r5,r4,1000c8c4 <__alt_data_end+0xf800c8c4>
1000c8dc:	18000826 	beq	r3,zero,1000c900 <__udivsi3+0x54>
1000c8e0:	0005883a 	mov	r2,zero
1000c8e4:	31400236 	bltu	r6,r5,1000c8f0 <__udivsi3+0x44>
1000c8e8:	314dc83a 	sub	r6,r6,r5
1000c8ec:	10c4b03a 	or	r2,r2,r3
1000c8f0:	1806d07a 	srli	r3,r3,1
1000c8f4:	280ad07a 	srli	r5,r5,1
1000c8f8:	183ffa1e 	bne	r3,zero,1000c8e4 <__alt_data_end+0xf800c8e4>
1000c8fc:	f800283a 	ret
1000c900:	0005883a 	mov	r2,zero
1000c904:	f800283a 	ret
1000c908:	00c00044 	movi	r3,1
1000c90c:	003ff406 	br	1000c8e0 <__alt_data_end+0xf800c8e0>

1000c910 <__umodsi3>:
1000c910:	2005883a 	mov	r2,r4
1000c914:	2900122e 	bgeu	r5,r4,1000c960 <__umodsi3+0x50>
1000c918:	28001116 	blt	r5,zero,1000c960 <__umodsi3+0x50>
1000c91c:	01800804 	movi	r6,32
1000c920:	00c00044 	movi	r3,1
1000c924:	00000206 	br	1000c930 <__umodsi3+0x20>
1000c928:	30000c26 	beq	r6,zero,1000c95c <__umodsi3+0x4c>
1000c92c:	28000516 	blt	r5,zero,1000c944 <__umodsi3+0x34>
1000c930:	294b883a 	add	r5,r5,r5
1000c934:	31bfffc4 	addi	r6,r6,-1
1000c938:	18c7883a 	add	r3,r3,r3
1000c93c:	293ffa36 	bltu	r5,r4,1000c928 <__alt_data_end+0xf800c928>
1000c940:	18000626 	beq	r3,zero,1000c95c <__umodsi3+0x4c>
1000c944:	1806d07a 	srli	r3,r3,1
1000c948:	11400136 	bltu	r2,r5,1000c950 <__umodsi3+0x40>
1000c94c:	1145c83a 	sub	r2,r2,r5
1000c950:	280ad07a 	srli	r5,r5,1
1000c954:	183ffb1e 	bne	r3,zero,1000c944 <__alt_data_end+0xf800c944>
1000c958:	f800283a 	ret
1000c95c:	f800283a 	ret
1000c960:	00c00044 	movi	r3,1
1000c964:	003ff706 	br	1000c944 <__alt_data_end+0xf800c944>

1000c968 <__mulsi3>:
1000c968:	0005883a 	mov	r2,zero
1000c96c:	20000726 	beq	r4,zero,1000c98c <__mulsi3+0x24>
1000c970:	20c0004c 	andi	r3,r4,1
1000c974:	2008d07a 	srli	r4,r4,1
1000c978:	18000126 	beq	r3,zero,1000c980 <__mulsi3+0x18>
1000c97c:	1145883a 	add	r2,r2,r5
1000c980:	294b883a 	add	r5,r5,r5
1000c984:	203ffa1e 	bne	r4,zero,1000c970 <__alt_data_end+0xf800c970>
1000c988:	f800283a 	ret
1000c98c:	f800283a 	ret

1000c990 <__adddf3>:
1000c990:	02c00434 	movhi	r11,16
1000c994:	5affffc4 	addi	r11,r11,-1
1000c998:	2806d7fa 	srli	r3,r5,31
1000c99c:	2ad4703a 	and	r10,r5,r11
1000c9a0:	3ad2703a 	and	r9,r7,r11
1000c9a4:	3804d53a 	srli	r2,r7,20
1000c9a8:	3018d77a 	srli	r12,r6,29
1000c9ac:	280ad53a 	srli	r5,r5,20
1000c9b0:	501490fa 	slli	r10,r10,3
1000c9b4:	2010d77a 	srli	r8,r4,29
1000c9b8:	481290fa 	slli	r9,r9,3
1000c9bc:	380ed7fa 	srli	r7,r7,31
1000c9c0:	defffb04 	addi	sp,sp,-20
1000c9c4:	dc800215 	stw	r18,8(sp)
1000c9c8:	dc400115 	stw	r17,4(sp)
1000c9cc:	dc000015 	stw	r16,0(sp)
1000c9d0:	dfc00415 	stw	ra,16(sp)
1000c9d4:	dcc00315 	stw	r19,12(sp)
1000c9d8:	1c803fcc 	andi	r18,r3,255
1000c9dc:	2c01ffcc 	andi	r16,r5,2047
1000c9e0:	5210b03a 	or	r8,r10,r8
1000c9e4:	202290fa 	slli	r17,r4,3
1000c9e8:	1081ffcc 	andi	r2,r2,2047
1000c9ec:	4b12b03a 	or	r9,r9,r12
1000c9f0:	300c90fa 	slli	r6,r6,3
1000c9f4:	91c07526 	beq	r18,r7,1000cbcc <__adddf3+0x23c>
1000c9f8:	8087c83a 	sub	r3,r16,r2
1000c9fc:	00c0ab0e 	bge	zero,r3,1000ccac <__adddf3+0x31c>
1000ca00:	10002a1e 	bne	r2,zero,1000caac <__adddf3+0x11c>
1000ca04:	4984b03a 	or	r2,r9,r6
1000ca08:	1000961e 	bne	r2,zero,1000cc64 <__adddf3+0x2d4>
1000ca0c:	888001cc 	andi	r2,r17,7
1000ca10:	10000726 	beq	r2,zero,1000ca30 <__adddf3+0xa0>
1000ca14:	888003cc 	andi	r2,r17,15
1000ca18:	00c00104 	movi	r3,4
1000ca1c:	10c00426 	beq	r2,r3,1000ca30 <__adddf3+0xa0>
1000ca20:	88c7883a 	add	r3,r17,r3
1000ca24:	1c63803a 	cmpltu	r17,r3,r17
1000ca28:	4451883a 	add	r8,r8,r17
1000ca2c:	1823883a 	mov	r17,r3
1000ca30:	4080202c 	andhi	r2,r8,128
1000ca34:	10005926 	beq	r2,zero,1000cb9c <__adddf3+0x20c>
1000ca38:	84000044 	addi	r16,r16,1
1000ca3c:	0081ffc4 	movi	r2,2047
1000ca40:	8080ba26 	beq	r16,r2,1000cd2c <__adddf3+0x39c>
1000ca44:	00bfe034 	movhi	r2,65408
1000ca48:	10bfffc4 	addi	r2,r2,-1
1000ca4c:	4090703a 	and	r8,r8,r2
1000ca50:	4004977a 	slli	r2,r8,29
1000ca54:	4010927a 	slli	r8,r8,9
1000ca58:	8822d0fa 	srli	r17,r17,3
1000ca5c:	8401ffcc 	andi	r16,r16,2047
1000ca60:	4010d33a 	srli	r8,r8,12
1000ca64:	9007883a 	mov	r3,r18
1000ca68:	1444b03a 	or	r2,r2,r17
1000ca6c:	8401ffcc 	andi	r16,r16,2047
1000ca70:	8020953a 	slli	r16,r16,20
1000ca74:	18c03fcc 	andi	r3,r3,255
1000ca78:	01000434 	movhi	r4,16
1000ca7c:	213fffc4 	addi	r4,r4,-1
1000ca80:	180697fa 	slli	r3,r3,31
1000ca84:	4110703a 	and	r8,r8,r4
1000ca88:	4410b03a 	or	r8,r8,r16
1000ca8c:	40c6b03a 	or	r3,r8,r3
1000ca90:	dfc00417 	ldw	ra,16(sp)
1000ca94:	dcc00317 	ldw	r19,12(sp)
1000ca98:	dc800217 	ldw	r18,8(sp)
1000ca9c:	dc400117 	ldw	r17,4(sp)
1000caa0:	dc000017 	ldw	r16,0(sp)
1000caa4:	dec00504 	addi	sp,sp,20
1000caa8:	f800283a 	ret
1000caac:	0081ffc4 	movi	r2,2047
1000cab0:	80bfd626 	beq	r16,r2,1000ca0c <__alt_data_end+0xf800ca0c>
1000cab4:	4a402034 	orhi	r9,r9,128
1000cab8:	00800e04 	movi	r2,56
1000cabc:	10c09f16 	blt	r2,r3,1000cd3c <__adddf3+0x3ac>
1000cac0:	008007c4 	movi	r2,31
1000cac4:	10c0c216 	blt	r2,r3,1000cdd0 <__adddf3+0x440>
1000cac8:	00800804 	movi	r2,32
1000cacc:	10c5c83a 	sub	r2,r2,r3
1000cad0:	488a983a 	sll	r5,r9,r2
1000cad4:	30c8d83a 	srl	r4,r6,r3
1000cad8:	3084983a 	sll	r2,r6,r2
1000cadc:	48c6d83a 	srl	r3,r9,r3
1000cae0:	290cb03a 	or	r6,r5,r4
1000cae4:	1004c03a 	cmpne	r2,r2,zero
1000cae8:	308cb03a 	or	r6,r6,r2
1000caec:	898dc83a 	sub	r6,r17,r6
1000caf0:	89a3803a 	cmpltu	r17,r17,r6
1000caf4:	40d1c83a 	sub	r8,r8,r3
1000caf8:	4451c83a 	sub	r8,r8,r17
1000cafc:	3023883a 	mov	r17,r6
1000cb00:	4080202c 	andhi	r2,r8,128
1000cb04:	10002326 	beq	r2,zero,1000cb94 <__adddf3+0x204>
1000cb08:	04c02034 	movhi	r19,128
1000cb0c:	9cffffc4 	addi	r19,r19,-1
1000cb10:	44e6703a 	and	r19,r8,r19
1000cb14:	98007626 	beq	r19,zero,1000ccf0 <__adddf3+0x360>
1000cb18:	9809883a 	mov	r4,r19
1000cb1c:	000f1d00 	call	1000f1d0 <__clzsi2>
1000cb20:	10fffe04 	addi	r3,r2,-8
1000cb24:	010007c4 	movi	r4,31
1000cb28:	20c07716 	blt	r4,r3,1000cd08 <__adddf3+0x378>
1000cb2c:	00800804 	movi	r2,32
1000cb30:	10c5c83a 	sub	r2,r2,r3
1000cb34:	8884d83a 	srl	r2,r17,r2
1000cb38:	98d0983a 	sll	r8,r19,r3
1000cb3c:	88e2983a 	sll	r17,r17,r3
1000cb40:	1204b03a 	or	r2,r2,r8
1000cb44:	1c007416 	blt	r3,r16,1000cd18 <__adddf3+0x388>
1000cb48:	1c21c83a 	sub	r16,r3,r16
1000cb4c:	82000044 	addi	r8,r16,1
1000cb50:	00c007c4 	movi	r3,31
1000cb54:	1a009116 	blt	r3,r8,1000cd9c <__adddf3+0x40c>
1000cb58:	00c00804 	movi	r3,32
1000cb5c:	1a07c83a 	sub	r3,r3,r8
1000cb60:	8a08d83a 	srl	r4,r17,r8
1000cb64:	88e2983a 	sll	r17,r17,r3
1000cb68:	10c6983a 	sll	r3,r2,r3
1000cb6c:	1210d83a 	srl	r8,r2,r8
1000cb70:	8804c03a 	cmpne	r2,r17,zero
1000cb74:	1906b03a 	or	r3,r3,r4
1000cb78:	18a2b03a 	or	r17,r3,r2
1000cb7c:	0021883a 	mov	r16,zero
1000cb80:	003fa206 	br	1000ca0c <__alt_data_end+0xf800ca0c>
1000cb84:	1890b03a 	or	r8,r3,r2
1000cb88:	40017d26 	beq	r8,zero,1000d180 <__adddf3+0x7f0>
1000cb8c:	1011883a 	mov	r8,r2
1000cb90:	1823883a 	mov	r17,r3
1000cb94:	888001cc 	andi	r2,r17,7
1000cb98:	103f9e1e 	bne	r2,zero,1000ca14 <__alt_data_end+0xf800ca14>
1000cb9c:	4004977a 	slli	r2,r8,29
1000cba0:	8822d0fa 	srli	r17,r17,3
1000cba4:	4010d0fa 	srli	r8,r8,3
1000cba8:	9007883a 	mov	r3,r18
1000cbac:	1444b03a 	or	r2,r2,r17
1000cbb0:	0101ffc4 	movi	r4,2047
1000cbb4:	81002426 	beq	r16,r4,1000cc48 <__adddf3+0x2b8>
1000cbb8:	8120703a 	and	r16,r16,r4
1000cbbc:	01000434 	movhi	r4,16
1000cbc0:	213fffc4 	addi	r4,r4,-1
1000cbc4:	4110703a 	and	r8,r8,r4
1000cbc8:	003fa806 	br	1000ca6c <__alt_data_end+0xf800ca6c>
1000cbcc:	8089c83a 	sub	r4,r16,r2
1000cbd0:	01005e0e 	bge	zero,r4,1000cd4c <__adddf3+0x3bc>
1000cbd4:	10002b26 	beq	r2,zero,1000cc84 <__adddf3+0x2f4>
1000cbd8:	0081ffc4 	movi	r2,2047
1000cbdc:	80bf8b26 	beq	r16,r2,1000ca0c <__alt_data_end+0xf800ca0c>
1000cbe0:	4a402034 	orhi	r9,r9,128
1000cbe4:	00800e04 	movi	r2,56
1000cbe8:	1100a40e 	bge	r2,r4,1000ce7c <__adddf3+0x4ec>
1000cbec:	498cb03a 	or	r6,r9,r6
1000cbf0:	300ac03a 	cmpne	r5,r6,zero
1000cbf4:	0013883a 	mov	r9,zero
1000cbf8:	2c4b883a 	add	r5,r5,r17
1000cbfc:	2c63803a 	cmpltu	r17,r5,r17
1000cc00:	4a11883a 	add	r8,r9,r8
1000cc04:	8a11883a 	add	r8,r17,r8
1000cc08:	2823883a 	mov	r17,r5
1000cc0c:	4080202c 	andhi	r2,r8,128
1000cc10:	103fe026 	beq	r2,zero,1000cb94 <__alt_data_end+0xf800cb94>
1000cc14:	84000044 	addi	r16,r16,1
1000cc18:	0081ffc4 	movi	r2,2047
1000cc1c:	8080d226 	beq	r16,r2,1000cf68 <__adddf3+0x5d8>
1000cc20:	00bfe034 	movhi	r2,65408
1000cc24:	10bfffc4 	addi	r2,r2,-1
1000cc28:	4090703a 	and	r8,r8,r2
1000cc2c:	880ad07a 	srli	r5,r17,1
1000cc30:	400897fa 	slli	r4,r8,31
1000cc34:	88c0004c 	andi	r3,r17,1
1000cc38:	28e2b03a 	or	r17,r5,r3
1000cc3c:	4010d07a 	srli	r8,r8,1
1000cc40:	2462b03a 	or	r17,r4,r17
1000cc44:	003f7106 	br	1000ca0c <__alt_data_end+0xf800ca0c>
1000cc48:	4088b03a 	or	r4,r8,r2
1000cc4c:	20014526 	beq	r4,zero,1000d164 <__adddf3+0x7d4>
1000cc50:	01000434 	movhi	r4,16
1000cc54:	42000234 	orhi	r8,r8,8
1000cc58:	213fffc4 	addi	r4,r4,-1
1000cc5c:	4110703a 	and	r8,r8,r4
1000cc60:	003f8206 	br	1000ca6c <__alt_data_end+0xf800ca6c>
1000cc64:	18ffffc4 	addi	r3,r3,-1
1000cc68:	1800491e 	bne	r3,zero,1000cd90 <__adddf3+0x400>
1000cc6c:	898bc83a 	sub	r5,r17,r6
1000cc70:	8963803a 	cmpltu	r17,r17,r5
1000cc74:	4251c83a 	sub	r8,r8,r9
1000cc78:	4451c83a 	sub	r8,r8,r17
1000cc7c:	2823883a 	mov	r17,r5
1000cc80:	003f9f06 	br	1000cb00 <__alt_data_end+0xf800cb00>
1000cc84:	4984b03a 	or	r2,r9,r6
1000cc88:	103f6026 	beq	r2,zero,1000ca0c <__alt_data_end+0xf800ca0c>
1000cc8c:	213fffc4 	addi	r4,r4,-1
1000cc90:	2000931e 	bne	r4,zero,1000cee0 <__adddf3+0x550>
1000cc94:	898d883a 	add	r6,r17,r6
1000cc98:	3463803a 	cmpltu	r17,r6,r17
1000cc9c:	4251883a 	add	r8,r8,r9
1000cca0:	8a11883a 	add	r8,r17,r8
1000cca4:	3023883a 	mov	r17,r6
1000cca8:	003fd806 	br	1000cc0c <__alt_data_end+0xf800cc0c>
1000ccac:	1800541e 	bne	r3,zero,1000ce00 <__adddf3+0x470>
1000ccb0:	80800044 	addi	r2,r16,1
1000ccb4:	1081ffcc 	andi	r2,r2,2047
1000ccb8:	00c00044 	movi	r3,1
1000ccbc:	1880a00e 	bge	r3,r2,1000cf40 <__adddf3+0x5b0>
1000ccc0:	8989c83a 	sub	r4,r17,r6
1000ccc4:	8905803a 	cmpltu	r2,r17,r4
1000ccc8:	4267c83a 	sub	r19,r8,r9
1000cccc:	98a7c83a 	sub	r19,r19,r2
1000ccd0:	9880202c 	andhi	r2,r19,128
1000ccd4:	10006326 	beq	r2,zero,1000ce64 <__adddf3+0x4d4>
1000ccd8:	3463c83a 	sub	r17,r6,r17
1000ccdc:	4a07c83a 	sub	r3,r9,r8
1000cce0:	344d803a 	cmpltu	r6,r6,r17
1000cce4:	19a7c83a 	sub	r19,r3,r6
1000cce8:	3825883a 	mov	r18,r7
1000ccec:	983f8a1e 	bne	r19,zero,1000cb18 <__alt_data_end+0xf800cb18>
1000ccf0:	8809883a 	mov	r4,r17
1000ccf4:	000f1d00 	call	1000f1d0 <__clzsi2>
1000ccf8:	10800804 	addi	r2,r2,32
1000ccfc:	10fffe04 	addi	r3,r2,-8
1000cd00:	010007c4 	movi	r4,31
1000cd04:	20ff890e 	bge	r4,r3,1000cb2c <__alt_data_end+0xf800cb2c>
1000cd08:	10bff604 	addi	r2,r2,-40
1000cd0c:	8884983a 	sll	r2,r17,r2
1000cd10:	0023883a 	mov	r17,zero
1000cd14:	1c3f8c0e 	bge	r3,r16,1000cb48 <__alt_data_end+0xf800cb48>
1000cd18:	023fe034 	movhi	r8,65408
1000cd1c:	423fffc4 	addi	r8,r8,-1
1000cd20:	80e1c83a 	sub	r16,r16,r3
1000cd24:	1210703a 	and	r8,r2,r8
1000cd28:	003f3806 	br	1000ca0c <__alt_data_end+0xf800ca0c>
1000cd2c:	9007883a 	mov	r3,r18
1000cd30:	0011883a 	mov	r8,zero
1000cd34:	0005883a 	mov	r2,zero
1000cd38:	003f4c06 	br	1000ca6c <__alt_data_end+0xf800ca6c>
1000cd3c:	498cb03a 	or	r6,r9,r6
1000cd40:	300cc03a 	cmpne	r6,r6,zero
1000cd44:	0007883a 	mov	r3,zero
1000cd48:	003f6806 	br	1000caec <__alt_data_end+0xf800caec>
1000cd4c:	20009c1e 	bne	r4,zero,1000cfc0 <__adddf3+0x630>
1000cd50:	80800044 	addi	r2,r16,1
1000cd54:	1141ffcc 	andi	r5,r2,2047
1000cd58:	01000044 	movi	r4,1
1000cd5c:	2140670e 	bge	r4,r5,1000cefc <__adddf3+0x56c>
1000cd60:	0101ffc4 	movi	r4,2047
1000cd64:	11007f26 	beq	r2,r4,1000cf64 <__adddf3+0x5d4>
1000cd68:	898d883a 	add	r6,r17,r6
1000cd6c:	4247883a 	add	r3,r8,r9
1000cd70:	3451803a 	cmpltu	r8,r6,r17
1000cd74:	40d1883a 	add	r8,r8,r3
1000cd78:	402297fa 	slli	r17,r8,31
1000cd7c:	300cd07a 	srli	r6,r6,1
1000cd80:	4010d07a 	srli	r8,r8,1
1000cd84:	1021883a 	mov	r16,r2
1000cd88:	89a2b03a 	or	r17,r17,r6
1000cd8c:	003f1f06 	br	1000ca0c <__alt_data_end+0xf800ca0c>
1000cd90:	0081ffc4 	movi	r2,2047
1000cd94:	80bf481e 	bne	r16,r2,1000cab8 <__alt_data_end+0xf800cab8>
1000cd98:	003f1c06 	br	1000ca0c <__alt_data_end+0xf800ca0c>
1000cd9c:	843ff844 	addi	r16,r16,-31
1000cda0:	01000804 	movi	r4,32
1000cda4:	1406d83a 	srl	r3,r2,r16
1000cda8:	41005026 	beq	r8,r4,1000ceec <__adddf3+0x55c>
1000cdac:	01001004 	movi	r4,64
1000cdb0:	2211c83a 	sub	r8,r4,r8
1000cdb4:	1204983a 	sll	r2,r2,r8
1000cdb8:	88a2b03a 	or	r17,r17,r2
1000cdbc:	8822c03a 	cmpne	r17,r17,zero
1000cdc0:	1c62b03a 	or	r17,r3,r17
1000cdc4:	0011883a 	mov	r8,zero
1000cdc8:	0021883a 	mov	r16,zero
1000cdcc:	003f7106 	br	1000cb94 <__alt_data_end+0xf800cb94>
1000cdd0:	193ff804 	addi	r4,r3,-32
1000cdd4:	00800804 	movi	r2,32
1000cdd8:	4908d83a 	srl	r4,r9,r4
1000cddc:	18804526 	beq	r3,r2,1000cef4 <__adddf3+0x564>
1000cde0:	00801004 	movi	r2,64
1000cde4:	10c5c83a 	sub	r2,r2,r3
1000cde8:	4886983a 	sll	r3,r9,r2
1000cdec:	198cb03a 	or	r6,r3,r6
1000cdf0:	300cc03a 	cmpne	r6,r6,zero
1000cdf4:	218cb03a 	or	r6,r4,r6
1000cdf8:	0007883a 	mov	r3,zero
1000cdfc:	003f3b06 	br	1000caec <__alt_data_end+0xf800caec>
1000ce00:	80002a26 	beq	r16,zero,1000ceac <__adddf3+0x51c>
1000ce04:	0101ffc4 	movi	r4,2047
1000ce08:	11006826 	beq	r2,r4,1000cfac <__adddf3+0x61c>
1000ce0c:	00c7c83a 	sub	r3,zero,r3
1000ce10:	42002034 	orhi	r8,r8,128
1000ce14:	01000e04 	movi	r4,56
1000ce18:	20c07c16 	blt	r4,r3,1000d00c <__adddf3+0x67c>
1000ce1c:	010007c4 	movi	r4,31
1000ce20:	20c0da16 	blt	r4,r3,1000d18c <__adddf3+0x7fc>
1000ce24:	01000804 	movi	r4,32
1000ce28:	20c9c83a 	sub	r4,r4,r3
1000ce2c:	4114983a 	sll	r10,r8,r4
1000ce30:	88cad83a 	srl	r5,r17,r3
1000ce34:	8908983a 	sll	r4,r17,r4
1000ce38:	40c6d83a 	srl	r3,r8,r3
1000ce3c:	5162b03a 	or	r17,r10,r5
1000ce40:	2008c03a 	cmpne	r4,r4,zero
1000ce44:	8922b03a 	or	r17,r17,r4
1000ce48:	3463c83a 	sub	r17,r6,r17
1000ce4c:	48c7c83a 	sub	r3,r9,r3
1000ce50:	344d803a 	cmpltu	r6,r6,r17
1000ce54:	1991c83a 	sub	r8,r3,r6
1000ce58:	1021883a 	mov	r16,r2
1000ce5c:	3825883a 	mov	r18,r7
1000ce60:	003f2706 	br	1000cb00 <__alt_data_end+0xf800cb00>
1000ce64:	24d0b03a 	or	r8,r4,r19
1000ce68:	40001b1e 	bne	r8,zero,1000ced8 <__adddf3+0x548>
1000ce6c:	0005883a 	mov	r2,zero
1000ce70:	0007883a 	mov	r3,zero
1000ce74:	0021883a 	mov	r16,zero
1000ce78:	003f4d06 	br	1000cbb0 <__alt_data_end+0xf800cbb0>
1000ce7c:	008007c4 	movi	r2,31
1000ce80:	11003c16 	blt	r2,r4,1000cf74 <__adddf3+0x5e4>
1000ce84:	00800804 	movi	r2,32
1000ce88:	1105c83a 	sub	r2,r2,r4
1000ce8c:	488e983a 	sll	r7,r9,r2
1000ce90:	310ad83a 	srl	r5,r6,r4
1000ce94:	3084983a 	sll	r2,r6,r2
1000ce98:	4912d83a 	srl	r9,r9,r4
1000ce9c:	394ab03a 	or	r5,r7,r5
1000cea0:	1004c03a 	cmpne	r2,r2,zero
1000cea4:	288ab03a 	or	r5,r5,r2
1000cea8:	003f5306 	br	1000cbf8 <__alt_data_end+0xf800cbf8>
1000ceac:	4448b03a 	or	r4,r8,r17
1000ceb0:	20003e26 	beq	r4,zero,1000cfac <__adddf3+0x61c>
1000ceb4:	00c6303a 	nor	r3,zero,r3
1000ceb8:	18003a1e 	bne	r3,zero,1000cfa4 <__adddf3+0x614>
1000cebc:	3463c83a 	sub	r17,r6,r17
1000cec0:	4a07c83a 	sub	r3,r9,r8
1000cec4:	344d803a 	cmpltu	r6,r6,r17
1000cec8:	1991c83a 	sub	r8,r3,r6
1000cecc:	1021883a 	mov	r16,r2
1000ced0:	3825883a 	mov	r18,r7
1000ced4:	003f0a06 	br	1000cb00 <__alt_data_end+0xf800cb00>
1000ced8:	2023883a 	mov	r17,r4
1000cedc:	003f0d06 	br	1000cb14 <__alt_data_end+0xf800cb14>
1000cee0:	0081ffc4 	movi	r2,2047
1000cee4:	80bf3f1e 	bne	r16,r2,1000cbe4 <__alt_data_end+0xf800cbe4>
1000cee8:	003ec806 	br	1000ca0c <__alt_data_end+0xf800ca0c>
1000ceec:	0005883a 	mov	r2,zero
1000cef0:	003fb106 	br	1000cdb8 <__alt_data_end+0xf800cdb8>
1000cef4:	0007883a 	mov	r3,zero
1000cef8:	003fbc06 	br	1000cdec <__alt_data_end+0xf800cdec>
1000cefc:	4444b03a 	or	r2,r8,r17
1000cf00:	8000871e 	bne	r16,zero,1000d120 <__adddf3+0x790>
1000cf04:	1000ba26 	beq	r2,zero,1000d1f0 <__adddf3+0x860>
1000cf08:	4984b03a 	or	r2,r9,r6
1000cf0c:	103ebf26 	beq	r2,zero,1000ca0c <__alt_data_end+0xf800ca0c>
1000cf10:	8985883a 	add	r2,r17,r6
1000cf14:	4247883a 	add	r3,r8,r9
1000cf18:	1451803a 	cmpltu	r8,r2,r17
1000cf1c:	40d1883a 	add	r8,r8,r3
1000cf20:	40c0202c 	andhi	r3,r8,128
1000cf24:	1023883a 	mov	r17,r2
1000cf28:	183f1a26 	beq	r3,zero,1000cb94 <__alt_data_end+0xf800cb94>
1000cf2c:	00bfe034 	movhi	r2,65408
1000cf30:	10bfffc4 	addi	r2,r2,-1
1000cf34:	2021883a 	mov	r16,r4
1000cf38:	4090703a 	and	r8,r8,r2
1000cf3c:	003eb306 	br	1000ca0c <__alt_data_end+0xf800ca0c>
1000cf40:	4444b03a 	or	r2,r8,r17
1000cf44:	8000291e 	bne	r16,zero,1000cfec <__adddf3+0x65c>
1000cf48:	10004b1e 	bne	r2,zero,1000d078 <__adddf3+0x6e8>
1000cf4c:	4990b03a 	or	r8,r9,r6
1000cf50:	40008b26 	beq	r8,zero,1000d180 <__adddf3+0x7f0>
1000cf54:	4811883a 	mov	r8,r9
1000cf58:	3023883a 	mov	r17,r6
1000cf5c:	3825883a 	mov	r18,r7
1000cf60:	003eaa06 	br	1000ca0c <__alt_data_end+0xf800ca0c>
1000cf64:	1021883a 	mov	r16,r2
1000cf68:	0011883a 	mov	r8,zero
1000cf6c:	0005883a 	mov	r2,zero
1000cf70:	003f0f06 	br	1000cbb0 <__alt_data_end+0xf800cbb0>
1000cf74:	217ff804 	addi	r5,r4,-32
1000cf78:	00800804 	movi	r2,32
1000cf7c:	494ad83a 	srl	r5,r9,r5
1000cf80:	20807d26 	beq	r4,r2,1000d178 <__adddf3+0x7e8>
1000cf84:	00801004 	movi	r2,64
1000cf88:	1109c83a 	sub	r4,r2,r4
1000cf8c:	4912983a 	sll	r9,r9,r4
1000cf90:	498cb03a 	or	r6,r9,r6
1000cf94:	300cc03a 	cmpne	r6,r6,zero
1000cf98:	298ab03a 	or	r5,r5,r6
1000cf9c:	0013883a 	mov	r9,zero
1000cfa0:	003f1506 	br	1000cbf8 <__alt_data_end+0xf800cbf8>
1000cfa4:	0101ffc4 	movi	r4,2047
1000cfa8:	113f9a1e 	bne	r2,r4,1000ce14 <__alt_data_end+0xf800ce14>
1000cfac:	4811883a 	mov	r8,r9
1000cfb0:	3023883a 	mov	r17,r6
1000cfb4:	1021883a 	mov	r16,r2
1000cfb8:	3825883a 	mov	r18,r7
1000cfbc:	003e9306 	br	1000ca0c <__alt_data_end+0xf800ca0c>
1000cfc0:	8000161e 	bne	r16,zero,1000d01c <__adddf3+0x68c>
1000cfc4:	444ab03a 	or	r5,r8,r17
1000cfc8:	28005126 	beq	r5,zero,1000d110 <__adddf3+0x780>
1000cfcc:	0108303a 	nor	r4,zero,r4
1000cfd0:	20004d1e 	bne	r4,zero,1000d108 <__adddf3+0x778>
1000cfd4:	89a3883a 	add	r17,r17,r6
1000cfd8:	4253883a 	add	r9,r8,r9
1000cfdc:	898d803a 	cmpltu	r6,r17,r6
1000cfe0:	3251883a 	add	r8,r6,r9
1000cfe4:	1021883a 	mov	r16,r2
1000cfe8:	003f0806 	br	1000cc0c <__alt_data_end+0xf800cc0c>
1000cfec:	1000301e 	bne	r2,zero,1000d0b0 <__adddf3+0x720>
1000cff0:	4984b03a 	or	r2,r9,r6
1000cff4:	10007126 	beq	r2,zero,1000d1bc <__adddf3+0x82c>
1000cff8:	4811883a 	mov	r8,r9
1000cffc:	3023883a 	mov	r17,r6
1000d000:	3825883a 	mov	r18,r7
1000d004:	0401ffc4 	movi	r16,2047
1000d008:	003e8006 	br	1000ca0c <__alt_data_end+0xf800ca0c>
1000d00c:	4462b03a 	or	r17,r8,r17
1000d010:	8822c03a 	cmpne	r17,r17,zero
1000d014:	0007883a 	mov	r3,zero
1000d018:	003f8b06 	br	1000ce48 <__alt_data_end+0xf800ce48>
1000d01c:	0141ffc4 	movi	r5,2047
1000d020:	11403b26 	beq	r2,r5,1000d110 <__adddf3+0x780>
1000d024:	0109c83a 	sub	r4,zero,r4
1000d028:	42002034 	orhi	r8,r8,128
1000d02c:	01400e04 	movi	r5,56
1000d030:	29006716 	blt	r5,r4,1000d1d0 <__adddf3+0x840>
1000d034:	014007c4 	movi	r5,31
1000d038:	29007016 	blt	r5,r4,1000d1fc <__adddf3+0x86c>
1000d03c:	01400804 	movi	r5,32
1000d040:	290bc83a 	sub	r5,r5,r4
1000d044:	4154983a 	sll	r10,r8,r5
1000d048:	890ed83a 	srl	r7,r17,r4
1000d04c:	894a983a 	sll	r5,r17,r5
1000d050:	4108d83a 	srl	r4,r8,r4
1000d054:	51e2b03a 	or	r17,r10,r7
1000d058:	280ac03a 	cmpne	r5,r5,zero
1000d05c:	8962b03a 	or	r17,r17,r5
1000d060:	89a3883a 	add	r17,r17,r6
1000d064:	2253883a 	add	r9,r4,r9
1000d068:	898d803a 	cmpltu	r6,r17,r6
1000d06c:	3251883a 	add	r8,r6,r9
1000d070:	1021883a 	mov	r16,r2
1000d074:	003ee506 	br	1000cc0c <__alt_data_end+0xf800cc0c>
1000d078:	4984b03a 	or	r2,r9,r6
1000d07c:	103e6326 	beq	r2,zero,1000ca0c <__alt_data_end+0xf800ca0c>
1000d080:	8987c83a 	sub	r3,r17,r6
1000d084:	88c9803a 	cmpltu	r4,r17,r3
1000d088:	4245c83a 	sub	r2,r8,r9
1000d08c:	1105c83a 	sub	r2,r2,r4
1000d090:	1100202c 	andhi	r4,r2,128
1000d094:	203ebb26 	beq	r4,zero,1000cb84 <__alt_data_end+0xf800cb84>
1000d098:	3463c83a 	sub	r17,r6,r17
1000d09c:	4a07c83a 	sub	r3,r9,r8
1000d0a0:	344d803a 	cmpltu	r6,r6,r17
1000d0a4:	1991c83a 	sub	r8,r3,r6
1000d0a8:	3825883a 	mov	r18,r7
1000d0ac:	003e5706 	br	1000ca0c <__alt_data_end+0xf800ca0c>
1000d0b0:	4984b03a 	or	r2,r9,r6
1000d0b4:	10002e26 	beq	r2,zero,1000d170 <__adddf3+0x7e0>
1000d0b8:	4004d0fa 	srli	r2,r8,3
1000d0bc:	8822d0fa 	srli	r17,r17,3
1000d0c0:	4010977a 	slli	r8,r8,29
1000d0c4:	10c0022c 	andhi	r3,r2,8
1000d0c8:	4462b03a 	or	r17,r8,r17
1000d0cc:	18000826 	beq	r3,zero,1000d0f0 <__adddf3+0x760>
1000d0d0:	4808d0fa 	srli	r4,r9,3
1000d0d4:	20c0022c 	andhi	r3,r4,8
1000d0d8:	1800051e 	bne	r3,zero,1000d0f0 <__adddf3+0x760>
1000d0dc:	300cd0fa 	srli	r6,r6,3
1000d0e0:	4806977a 	slli	r3,r9,29
1000d0e4:	2005883a 	mov	r2,r4
1000d0e8:	3825883a 	mov	r18,r7
1000d0ec:	19a2b03a 	or	r17,r3,r6
1000d0f0:	8810d77a 	srli	r8,r17,29
1000d0f4:	100490fa 	slli	r2,r2,3
1000d0f8:	882290fa 	slli	r17,r17,3
1000d0fc:	0401ffc4 	movi	r16,2047
1000d100:	4090b03a 	or	r8,r8,r2
1000d104:	003e4106 	br	1000ca0c <__alt_data_end+0xf800ca0c>
1000d108:	0141ffc4 	movi	r5,2047
1000d10c:	117fc71e 	bne	r2,r5,1000d02c <__alt_data_end+0xf800d02c>
1000d110:	4811883a 	mov	r8,r9
1000d114:	3023883a 	mov	r17,r6
1000d118:	1021883a 	mov	r16,r2
1000d11c:	003e3b06 	br	1000ca0c <__alt_data_end+0xf800ca0c>
1000d120:	10002f26 	beq	r2,zero,1000d1e0 <__adddf3+0x850>
1000d124:	4984b03a 	or	r2,r9,r6
1000d128:	10001126 	beq	r2,zero,1000d170 <__adddf3+0x7e0>
1000d12c:	4004d0fa 	srli	r2,r8,3
1000d130:	8822d0fa 	srli	r17,r17,3
1000d134:	4010977a 	slli	r8,r8,29
1000d138:	10c0022c 	andhi	r3,r2,8
1000d13c:	4462b03a 	or	r17,r8,r17
1000d140:	183feb26 	beq	r3,zero,1000d0f0 <__alt_data_end+0xf800d0f0>
1000d144:	4808d0fa 	srli	r4,r9,3
1000d148:	20c0022c 	andhi	r3,r4,8
1000d14c:	183fe81e 	bne	r3,zero,1000d0f0 <__alt_data_end+0xf800d0f0>
1000d150:	300cd0fa 	srli	r6,r6,3
1000d154:	4806977a 	slli	r3,r9,29
1000d158:	2005883a 	mov	r2,r4
1000d15c:	19a2b03a 	or	r17,r3,r6
1000d160:	003fe306 	br	1000d0f0 <__alt_data_end+0xf800d0f0>
1000d164:	0011883a 	mov	r8,zero
1000d168:	0005883a 	mov	r2,zero
1000d16c:	003e3f06 	br	1000ca6c <__alt_data_end+0xf800ca6c>
1000d170:	0401ffc4 	movi	r16,2047
1000d174:	003e2506 	br	1000ca0c <__alt_data_end+0xf800ca0c>
1000d178:	0013883a 	mov	r9,zero
1000d17c:	003f8406 	br	1000cf90 <__alt_data_end+0xf800cf90>
1000d180:	0005883a 	mov	r2,zero
1000d184:	0007883a 	mov	r3,zero
1000d188:	003e8906 	br	1000cbb0 <__alt_data_end+0xf800cbb0>
1000d18c:	197ff804 	addi	r5,r3,-32
1000d190:	01000804 	movi	r4,32
1000d194:	414ad83a 	srl	r5,r8,r5
1000d198:	19002426 	beq	r3,r4,1000d22c <__adddf3+0x89c>
1000d19c:	01001004 	movi	r4,64
1000d1a0:	20c7c83a 	sub	r3,r4,r3
1000d1a4:	40c6983a 	sll	r3,r8,r3
1000d1a8:	1c46b03a 	or	r3,r3,r17
1000d1ac:	1806c03a 	cmpne	r3,r3,zero
1000d1b0:	28e2b03a 	or	r17,r5,r3
1000d1b4:	0007883a 	mov	r3,zero
1000d1b8:	003f2306 	br	1000ce48 <__alt_data_end+0xf800ce48>
1000d1bc:	0007883a 	mov	r3,zero
1000d1c0:	5811883a 	mov	r8,r11
1000d1c4:	00bfffc4 	movi	r2,-1
1000d1c8:	0401ffc4 	movi	r16,2047
1000d1cc:	003e7806 	br	1000cbb0 <__alt_data_end+0xf800cbb0>
1000d1d0:	4462b03a 	or	r17,r8,r17
1000d1d4:	8822c03a 	cmpne	r17,r17,zero
1000d1d8:	0009883a 	mov	r4,zero
1000d1dc:	003fa006 	br	1000d060 <__alt_data_end+0xf800d060>
1000d1e0:	4811883a 	mov	r8,r9
1000d1e4:	3023883a 	mov	r17,r6
1000d1e8:	0401ffc4 	movi	r16,2047
1000d1ec:	003e0706 	br	1000ca0c <__alt_data_end+0xf800ca0c>
1000d1f0:	4811883a 	mov	r8,r9
1000d1f4:	3023883a 	mov	r17,r6
1000d1f8:	003e0406 	br	1000ca0c <__alt_data_end+0xf800ca0c>
1000d1fc:	21fff804 	addi	r7,r4,-32
1000d200:	01400804 	movi	r5,32
1000d204:	41ced83a 	srl	r7,r8,r7
1000d208:	21400a26 	beq	r4,r5,1000d234 <__adddf3+0x8a4>
1000d20c:	01401004 	movi	r5,64
1000d210:	2909c83a 	sub	r4,r5,r4
1000d214:	4108983a 	sll	r4,r8,r4
1000d218:	2448b03a 	or	r4,r4,r17
1000d21c:	2008c03a 	cmpne	r4,r4,zero
1000d220:	3922b03a 	or	r17,r7,r4
1000d224:	0009883a 	mov	r4,zero
1000d228:	003f8d06 	br	1000d060 <__alt_data_end+0xf800d060>
1000d22c:	0007883a 	mov	r3,zero
1000d230:	003fdd06 	br	1000d1a8 <__alt_data_end+0xf800d1a8>
1000d234:	0009883a 	mov	r4,zero
1000d238:	003ff706 	br	1000d218 <__alt_data_end+0xf800d218>

1000d23c <__divdf3>:
1000d23c:	defff004 	addi	sp,sp,-64
1000d240:	dc800815 	stw	r18,32(sp)
1000d244:	2824d53a 	srli	r18,r5,20
1000d248:	dd800c15 	stw	r22,48(sp)
1000d24c:	282cd7fa 	srli	r22,r5,31
1000d250:	dc000615 	stw	r16,24(sp)
1000d254:	04000434 	movhi	r16,16
1000d258:	843fffc4 	addi	r16,r16,-1
1000d25c:	dfc00f15 	stw	ra,60(sp)
1000d260:	df000e15 	stw	fp,56(sp)
1000d264:	ddc00d15 	stw	r23,52(sp)
1000d268:	dd400b15 	stw	r21,44(sp)
1000d26c:	dd000a15 	stw	r20,40(sp)
1000d270:	dcc00915 	stw	r19,36(sp)
1000d274:	dc400715 	stw	r17,28(sp)
1000d278:	9481ffcc 	andi	r18,r18,2047
1000d27c:	2c20703a 	and	r16,r5,r16
1000d280:	b2003fcc 	andi	r8,r22,255
1000d284:	90006126 	beq	r18,zero,1000d40c <__divdf3+0x1d0>
1000d288:	0081ffc4 	movi	r2,2047
1000d28c:	202b883a 	mov	r21,r4
1000d290:	90803726 	beq	r18,r2,1000d370 <__divdf3+0x134>
1000d294:	80800434 	orhi	r2,r16,16
1000d298:	100490fa 	slli	r2,r2,3
1000d29c:	2020d77a 	srli	r16,r4,29
1000d2a0:	202a90fa 	slli	r21,r4,3
1000d2a4:	94bf0044 	addi	r18,r18,-1023
1000d2a8:	80a0b03a 	or	r16,r16,r2
1000d2ac:	0013883a 	mov	r9,zero
1000d2b0:	000b883a 	mov	r5,zero
1000d2b4:	3806d53a 	srli	r3,r7,20
1000d2b8:	382ed7fa 	srli	r23,r7,31
1000d2bc:	04400434 	movhi	r17,16
1000d2c0:	8c7fffc4 	addi	r17,r17,-1
1000d2c4:	18c1ffcc 	andi	r3,r3,2047
1000d2c8:	3029883a 	mov	r20,r6
1000d2cc:	3c62703a 	and	r17,r7,r17
1000d2d0:	bf003fcc 	andi	fp,r23,255
1000d2d4:	18006e26 	beq	r3,zero,1000d490 <__divdf3+0x254>
1000d2d8:	0081ffc4 	movi	r2,2047
1000d2dc:	18806626 	beq	r3,r2,1000d478 <__divdf3+0x23c>
1000d2e0:	88800434 	orhi	r2,r17,16
1000d2e4:	100490fa 	slli	r2,r2,3
1000d2e8:	3022d77a 	srli	r17,r6,29
1000d2ec:	302890fa 	slli	r20,r6,3
1000d2f0:	18ff0044 	addi	r3,r3,-1023
1000d2f4:	88a2b03a 	or	r17,r17,r2
1000d2f8:	000f883a 	mov	r7,zero
1000d2fc:	b5e6f03a 	xor	r19,r22,r23
1000d300:	3a4cb03a 	or	r6,r7,r9
1000d304:	008003c4 	movi	r2,15
1000d308:	9809883a 	mov	r4,r19
1000d30c:	90c7c83a 	sub	r3,r18,r3
1000d310:	9cc03fcc 	andi	r19,r19,255
1000d314:	11809636 	bltu	r2,r6,1000d570 <__divdf3+0x334>
1000d318:	300c90ba 	slli	r6,r6,2
1000d31c:	00840074 	movhi	r2,4097
1000d320:	10b4cc04 	addi	r2,r2,-11472
1000d324:	308d883a 	add	r6,r6,r2
1000d328:	30800017 	ldw	r2,0(r6)
1000d32c:	1000683a 	jmp	r2
1000d330:	1000d570 	cmpltui	zero,r2,853
1000d334:	1000d3a8 	cmpgeui	zero,r2,846
1000d338:	1000d560 	cmpeqi	zero,r2,853
1000d33c:	1000d39c 	xori	zero,r2,846
1000d340:	1000d560 	cmpeqi	zero,r2,853
1000d344:	1000d534 	orhi	zero,r2,852
1000d348:	1000d560 	cmpeqi	zero,r2,853
1000d34c:	1000d39c 	xori	zero,r2,846
1000d350:	1000d3a8 	cmpgeui	zero,r2,846
1000d354:	1000d3a8 	cmpgeui	zero,r2,846
1000d358:	1000d534 	orhi	zero,r2,852
1000d35c:	1000d39c 	xori	zero,r2,846
1000d360:	1000d38c 	andi	zero,r2,846
1000d364:	1000d38c 	andi	zero,r2,846
1000d368:	1000d38c 	andi	zero,r2,846
1000d36c:	1000d8f8 	rdprs	zero,r2,867
1000d370:	2404b03a 	or	r2,r4,r16
1000d374:	10006c1e 	bne	r2,zero,1000d528 <__divdf3+0x2ec>
1000d378:	02400204 	movi	r9,8
1000d37c:	0021883a 	mov	r16,zero
1000d380:	002b883a 	mov	r21,zero
1000d384:	01400084 	movi	r5,2
1000d388:	003fca06 	br	1000d2b4 <__alt_data_end+0xf800d2b4>
1000d38c:	8023883a 	mov	r17,r16
1000d390:	a829883a 	mov	r20,r21
1000d394:	4039883a 	mov	fp,r8
1000d398:	280f883a 	mov	r7,r5
1000d39c:	00800084 	movi	r2,2
1000d3a0:	3881601e 	bne	r7,r2,1000d924 <__divdf3+0x6e8>
1000d3a4:	e027883a 	mov	r19,fp
1000d3a8:	9900004c 	andi	r4,r19,1
1000d3ac:	0081ffc4 	movi	r2,2047
1000d3b0:	0021883a 	mov	r16,zero
1000d3b4:	002b883a 	mov	r21,zero
1000d3b8:	1004953a 	slli	r2,r2,20
1000d3bc:	20c03fcc 	andi	r3,r4,255
1000d3c0:	01400434 	movhi	r5,16
1000d3c4:	297fffc4 	addi	r5,r5,-1
1000d3c8:	180697fa 	slli	r3,r3,31
1000d3cc:	8160703a 	and	r16,r16,r5
1000d3d0:	80a0b03a 	or	r16,r16,r2
1000d3d4:	80c6b03a 	or	r3,r16,r3
1000d3d8:	a805883a 	mov	r2,r21
1000d3dc:	dfc00f17 	ldw	ra,60(sp)
1000d3e0:	df000e17 	ldw	fp,56(sp)
1000d3e4:	ddc00d17 	ldw	r23,52(sp)
1000d3e8:	dd800c17 	ldw	r22,48(sp)
1000d3ec:	dd400b17 	ldw	r21,44(sp)
1000d3f0:	dd000a17 	ldw	r20,40(sp)
1000d3f4:	dcc00917 	ldw	r19,36(sp)
1000d3f8:	dc800817 	ldw	r18,32(sp)
1000d3fc:	dc400717 	ldw	r17,28(sp)
1000d400:	dc000617 	ldw	r16,24(sp)
1000d404:	dec01004 	addi	sp,sp,64
1000d408:	f800283a 	ret
1000d40c:	2404b03a 	or	r2,r4,r16
1000d410:	2023883a 	mov	r17,r4
1000d414:	10003f26 	beq	r2,zero,1000d514 <__divdf3+0x2d8>
1000d418:	80015e26 	beq	r16,zero,1000d994 <__divdf3+0x758>
1000d41c:	8009883a 	mov	r4,r16
1000d420:	d9800215 	stw	r6,8(sp)
1000d424:	d9c00515 	stw	r7,20(sp)
1000d428:	da000415 	stw	r8,16(sp)
1000d42c:	000f1d00 	call	1000f1d0 <__clzsi2>
1000d430:	d9800217 	ldw	r6,8(sp)
1000d434:	d9c00517 	ldw	r7,20(sp)
1000d438:	da000417 	ldw	r8,16(sp)
1000d43c:	113ffd44 	addi	r4,r2,-11
1000d440:	00c00704 	movi	r3,28
1000d444:	19014f16 	blt	r3,r4,1000d984 <__divdf3+0x748>
1000d448:	00c00744 	movi	r3,29
1000d44c:	157ffe04 	addi	r21,r2,-8
1000d450:	1907c83a 	sub	r3,r3,r4
1000d454:	8560983a 	sll	r16,r16,r21
1000d458:	88c6d83a 	srl	r3,r17,r3
1000d45c:	8d6a983a 	sll	r21,r17,r21
1000d460:	1c20b03a 	or	r16,r3,r16
1000d464:	1080fcc4 	addi	r2,r2,1011
1000d468:	00a5c83a 	sub	r18,zero,r2
1000d46c:	0013883a 	mov	r9,zero
1000d470:	000b883a 	mov	r5,zero
1000d474:	003f8f06 	br	1000d2b4 <__alt_data_end+0xf800d2b4>
1000d478:	3444b03a 	or	r2,r6,r17
1000d47c:	1000231e 	bne	r2,zero,1000d50c <__divdf3+0x2d0>
1000d480:	0023883a 	mov	r17,zero
1000d484:	0029883a 	mov	r20,zero
1000d488:	01c00084 	movi	r7,2
1000d48c:	003f9b06 	br	1000d2fc <__alt_data_end+0xf800d2fc>
1000d490:	3444b03a 	or	r2,r6,r17
1000d494:	10001926 	beq	r2,zero,1000d4fc <__divdf3+0x2c0>
1000d498:	88014b26 	beq	r17,zero,1000d9c8 <__divdf3+0x78c>
1000d49c:	8809883a 	mov	r4,r17
1000d4a0:	d9400115 	stw	r5,4(sp)
1000d4a4:	d9800215 	stw	r6,8(sp)
1000d4a8:	da000415 	stw	r8,16(sp)
1000d4ac:	da400315 	stw	r9,12(sp)
1000d4b0:	000f1d00 	call	1000f1d0 <__clzsi2>
1000d4b4:	d9400117 	ldw	r5,4(sp)
1000d4b8:	d9800217 	ldw	r6,8(sp)
1000d4bc:	da000417 	ldw	r8,16(sp)
1000d4c0:	da400317 	ldw	r9,12(sp)
1000d4c4:	113ffd44 	addi	r4,r2,-11
1000d4c8:	00c00704 	movi	r3,28
1000d4cc:	19013a16 	blt	r3,r4,1000d9b8 <__divdf3+0x77c>
1000d4d0:	00c00744 	movi	r3,29
1000d4d4:	153ffe04 	addi	r20,r2,-8
1000d4d8:	1907c83a 	sub	r3,r3,r4
1000d4dc:	8d22983a 	sll	r17,r17,r20
1000d4e0:	30c6d83a 	srl	r3,r6,r3
1000d4e4:	3528983a 	sll	r20,r6,r20
1000d4e8:	1c62b03a 	or	r17,r3,r17
1000d4ec:	1080fcc4 	addi	r2,r2,1011
1000d4f0:	0087c83a 	sub	r3,zero,r2
1000d4f4:	000f883a 	mov	r7,zero
1000d4f8:	003f8006 	br	1000d2fc <__alt_data_end+0xf800d2fc>
1000d4fc:	0023883a 	mov	r17,zero
1000d500:	0029883a 	mov	r20,zero
1000d504:	01c00044 	movi	r7,1
1000d508:	003f7c06 	br	1000d2fc <__alt_data_end+0xf800d2fc>
1000d50c:	01c000c4 	movi	r7,3
1000d510:	003f7a06 	br	1000d2fc <__alt_data_end+0xf800d2fc>
1000d514:	02400104 	movi	r9,4
1000d518:	0021883a 	mov	r16,zero
1000d51c:	002b883a 	mov	r21,zero
1000d520:	01400044 	movi	r5,1
1000d524:	003f6306 	br	1000d2b4 <__alt_data_end+0xf800d2b4>
1000d528:	02400304 	movi	r9,12
1000d52c:	014000c4 	movi	r5,3
1000d530:	003f6006 	br	1000d2b4 <__alt_data_end+0xf800d2b4>
1000d534:	04000434 	movhi	r16,16
1000d538:	0009883a 	mov	r4,zero
1000d53c:	843fffc4 	addi	r16,r16,-1
1000d540:	057fffc4 	movi	r21,-1
1000d544:	0081ffc4 	movi	r2,2047
1000d548:	003f9b06 	br	1000d3b8 <__alt_data_end+0xf800d3b8>
1000d54c:	00c00044 	movi	r3,1
1000d550:	1887c83a 	sub	r3,r3,r2
1000d554:	01000e04 	movi	r4,56
1000d558:	20c1530e 	bge	r4,r3,1000daa8 <__divdf3+0x86c>
1000d55c:	9900004c 	andi	r4,r19,1
1000d560:	0005883a 	mov	r2,zero
1000d564:	0021883a 	mov	r16,zero
1000d568:	002b883a 	mov	r21,zero
1000d56c:	003f9206 	br	1000d3b8 <__alt_data_end+0xf800d3b8>
1000d570:	8c012e36 	bltu	r17,r16,1000da2c <__divdf3+0x7f0>
1000d574:	84412c26 	beq	r16,r17,1000da28 <__divdf3+0x7ec>
1000d578:	a82f883a 	mov	r23,r21
1000d57c:	18ffffc4 	addi	r3,r3,-1
1000d580:	002b883a 	mov	r21,zero
1000d584:	a004d63a 	srli	r2,r20,24
1000d588:	8822923a 	slli	r17,r17,8
1000d58c:	a028923a 	slli	r20,r20,8
1000d590:	8009883a 	mov	r4,r16
1000d594:	88acb03a 	or	r22,r17,r2
1000d598:	dd000015 	stw	r20,0(sp)
1000d59c:	b028d43a 	srli	r20,r22,16
1000d5a0:	d8c00215 	stw	r3,8(sp)
1000d5a4:	b4bfffcc 	andi	r18,r22,65535
1000d5a8:	a00b883a 	mov	r5,r20
1000d5ac:	000c8ac0 	call	1000c8ac <__udivsi3>
1000d5b0:	100b883a 	mov	r5,r2
1000d5b4:	9009883a 	mov	r4,r18
1000d5b8:	1023883a 	mov	r17,r2
1000d5bc:	000c9680 	call	1000c968 <__mulsi3>
1000d5c0:	8009883a 	mov	r4,r16
1000d5c4:	a00b883a 	mov	r5,r20
1000d5c8:	1039883a 	mov	fp,r2
1000d5cc:	000c9100 	call	1000c910 <__umodsi3>
1000d5d0:	1004943a 	slli	r2,r2,16
1000d5d4:	b808d43a 	srli	r4,r23,16
1000d5d8:	d8c00217 	ldw	r3,8(sp)
1000d5dc:	2084b03a 	or	r2,r4,r2
1000d5e0:	1700062e 	bgeu	r2,fp,1000d5fc <__divdf3+0x3c0>
1000d5e4:	1585883a 	add	r2,r2,r22
1000d5e8:	893fffc4 	addi	r4,r17,-1
1000d5ec:	15811d36 	bltu	r2,r22,1000da64 <__divdf3+0x828>
1000d5f0:	17011c2e 	bgeu	r2,fp,1000da64 <__divdf3+0x828>
1000d5f4:	8c7fff84 	addi	r17,r17,-2
1000d5f8:	1585883a 	add	r2,r2,r22
1000d5fc:	1739c83a 	sub	fp,r2,fp
1000d600:	a00b883a 	mov	r5,r20
1000d604:	e009883a 	mov	r4,fp
1000d608:	d8c00215 	stw	r3,8(sp)
1000d60c:	000c8ac0 	call	1000c8ac <__udivsi3>
1000d610:	100b883a 	mov	r5,r2
1000d614:	9009883a 	mov	r4,r18
1000d618:	1021883a 	mov	r16,r2
1000d61c:	000c9680 	call	1000c968 <__mulsi3>
1000d620:	a00b883a 	mov	r5,r20
1000d624:	e009883a 	mov	r4,fp
1000d628:	d8800415 	stw	r2,16(sp)
1000d62c:	000c9100 	call	1000c910 <__umodsi3>
1000d630:	1004943a 	slli	r2,r2,16
1000d634:	da000417 	ldw	r8,16(sp)
1000d638:	bdffffcc 	andi	r23,r23,65535
1000d63c:	b884b03a 	or	r2,r23,r2
1000d640:	d8c00217 	ldw	r3,8(sp)
1000d644:	1200062e 	bgeu	r2,r8,1000d660 <__divdf3+0x424>
1000d648:	1585883a 	add	r2,r2,r22
1000d64c:	813fffc4 	addi	r4,r16,-1
1000d650:	15810236 	bltu	r2,r22,1000da5c <__divdf3+0x820>
1000d654:	1201012e 	bgeu	r2,r8,1000da5c <__divdf3+0x820>
1000d658:	843fff84 	addi	r16,r16,-2
1000d65c:	1585883a 	add	r2,r2,r22
1000d660:	8822943a 	slli	r17,r17,16
1000d664:	d9800017 	ldw	r6,0(sp)
1000d668:	1211c83a 	sub	r8,r2,r8
1000d66c:	8c22b03a 	or	r17,r17,r16
1000d670:	373fffcc 	andi	fp,r6,65535
1000d674:	8abfffcc 	andi	r10,r17,65535
1000d678:	8820d43a 	srli	r16,r17,16
1000d67c:	5009883a 	mov	r4,r10
1000d680:	e00b883a 	mov	r5,fp
1000d684:	302ed43a 	srli	r23,r6,16
1000d688:	d8c00215 	stw	r3,8(sp)
1000d68c:	da000415 	stw	r8,16(sp)
1000d690:	da800115 	stw	r10,4(sp)
1000d694:	000c9680 	call	1000c968 <__mulsi3>
1000d698:	800b883a 	mov	r5,r16
1000d69c:	e009883a 	mov	r4,fp
1000d6a0:	d8800515 	stw	r2,20(sp)
1000d6a4:	000c9680 	call	1000c968 <__mulsi3>
1000d6a8:	8009883a 	mov	r4,r16
1000d6ac:	b80b883a 	mov	r5,r23
1000d6b0:	d8800315 	stw	r2,12(sp)
1000d6b4:	000c9680 	call	1000c968 <__mulsi3>
1000d6b8:	da800117 	ldw	r10,4(sp)
1000d6bc:	b80b883a 	mov	r5,r23
1000d6c0:	1021883a 	mov	r16,r2
1000d6c4:	5009883a 	mov	r4,r10
1000d6c8:	000c9680 	call	1000c968 <__mulsi3>
1000d6cc:	d9c00517 	ldw	r7,20(sp)
1000d6d0:	da400317 	ldw	r9,12(sp)
1000d6d4:	d8c00217 	ldw	r3,8(sp)
1000d6d8:	3808d43a 	srli	r4,r7,16
1000d6dc:	1245883a 	add	r2,r2,r9
1000d6e0:	da000417 	ldw	r8,16(sp)
1000d6e4:	2085883a 	add	r2,r4,r2
1000d6e8:	1240022e 	bgeu	r2,r9,1000d6f4 <__divdf3+0x4b8>
1000d6ec:	01000074 	movhi	r4,1
1000d6f0:	8121883a 	add	r16,r16,r4
1000d6f4:	1008d43a 	srli	r4,r2,16
1000d6f8:	1004943a 	slli	r2,r2,16
1000d6fc:	39ffffcc 	andi	r7,r7,65535
1000d700:	2409883a 	add	r4,r4,r16
1000d704:	11c5883a 	add	r2,r2,r7
1000d708:	4100bb36 	bltu	r8,r4,1000d9f8 <__divdf3+0x7bc>
1000d70c:	4100d726 	beq	r8,r4,1000da6c <__divdf3+0x830>
1000d710:	4109c83a 	sub	r4,r8,r4
1000d714:	a8a1c83a 	sub	r16,r21,r2
1000d718:	ac2b803a 	cmpltu	r21,r21,r16
1000d71c:	256bc83a 	sub	r21,r4,r21
1000d720:	b540d926 	beq	r22,r21,1000da88 <__divdf3+0x84c>
1000d724:	a00b883a 	mov	r5,r20
1000d728:	a809883a 	mov	r4,r21
1000d72c:	d8c00215 	stw	r3,8(sp)
1000d730:	000c8ac0 	call	1000c8ac <__udivsi3>
1000d734:	100b883a 	mov	r5,r2
1000d738:	9009883a 	mov	r4,r18
1000d73c:	d8800515 	stw	r2,20(sp)
1000d740:	000c9680 	call	1000c968 <__mulsi3>
1000d744:	a809883a 	mov	r4,r21
1000d748:	a00b883a 	mov	r5,r20
1000d74c:	d8800415 	stw	r2,16(sp)
1000d750:	000c9100 	call	1000c910 <__umodsi3>
1000d754:	1004943a 	slli	r2,r2,16
1000d758:	8008d43a 	srli	r4,r16,16
1000d75c:	da000417 	ldw	r8,16(sp)
1000d760:	d8c00217 	ldw	r3,8(sp)
1000d764:	2084b03a 	or	r2,r4,r2
1000d768:	d9c00517 	ldw	r7,20(sp)
1000d76c:	1200062e 	bgeu	r2,r8,1000d788 <__divdf3+0x54c>
1000d770:	1585883a 	add	r2,r2,r22
1000d774:	393fffc4 	addi	r4,r7,-1
1000d778:	1580c536 	bltu	r2,r22,1000da90 <__divdf3+0x854>
1000d77c:	1200c42e 	bgeu	r2,r8,1000da90 <__divdf3+0x854>
1000d780:	39ffff84 	addi	r7,r7,-2
1000d784:	1585883a 	add	r2,r2,r22
1000d788:	122bc83a 	sub	r21,r2,r8
1000d78c:	a00b883a 	mov	r5,r20
1000d790:	a809883a 	mov	r4,r21
1000d794:	d8c00215 	stw	r3,8(sp)
1000d798:	d9c00515 	stw	r7,20(sp)
1000d79c:	000c8ac0 	call	1000c8ac <__udivsi3>
1000d7a0:	9009883a 	mov	r4,r18
1000d7a4:	100b883a 	mov	r5,r2
1000d7a8:	d8800415 	stw	r2,16(sp)
1000d7ac:	000c9680 	call	1000c968 <__mulsi3>
1000d7b0:	a809883a 	mov	r4,r21
1000d7b4:	a00b883a 	mov	r5,r20
1000d7b8:	1025883a 	mov	r18,r2
1000d7bc:	000c9100 	call	1000c910 <__umodsi3>
1000d7c0:	1004943a 	slli	r2,r2,16
1000d7c4:	813fffcc 	andi	r4,r16,65535
1000d7c8:	d8c00217 	ldw	r3,8(sp)
1000d7cc:	20a0b03a 	or	r16,r4,r2
1000d7d0:	d9c00517 	ldw	r7,20(sp)
1000d7d4:	da000417 	ldw	r8,16(sp)
1000d7d8:	8480062e 	bgeu	r16,r18,1000d7f4 <__divdf3+0x5b8>
1000d7dc:	85a1883a 	add	r16,r16,r22
1000d7e0:	40bfffc4 	addi	r2,r8,-1
1000d7e4:	8580ac36 	bltu	r16,r22,1000da98 <__divdf3+0x85c>
1000d7e8:	8480ab2e 	bgeu	r16,r18,1000da98 <__divdf3+0x85c>
1000d7ec:	423fff84 	addi	r8,r8,-2
1000d7f0:	85a1883a 	add	r16,r16,r22
1000d7f4:	3804943a 	slli	r2,r7,16
1000d7f8:	84a1c83a 	sub	r16,r16,r18
1000d7fc:	e009883a 	mov	r4,fp
1000d800:	1228b03a 	or	r20,r2,r8
1000d804:	a1ffffcc 	andi	r7,r20,65535
1000d808:	a024d43a 	srli	r18,r20,16
1000d80c:	380b883a 	mov	r5,r7
1000d810:	d8c00215 	stw	r3,8(sp)
1000d814:	d9c00515 	stw	r7,20(sp)
1000d818:	000c9680 	call	1000c968 <__mulsi3>
1000d81c:	900b883a 	mov	r5,r18
1000d820:	e009883a 	mov	r4,fp
1000d824:	102b883a 	mov	r21,r2
1000d828:	000c9680 	call	1000c968 <__mulsi3>
1000d82c:	900b883a 	mov	r5,r18
1000d830:	b809883a 	mov	r4,r23
1000d834:	1039883a 	mov	fp,r2
1000d838:	000c9680 	call	1000c968 <__mulsi3>
1000d83c:	d9c00517 	ldw	r7,20(sp)
1000d840:	b80b883a 	mov	r5,r23
1000d844:	1025883a 	mov	r18,r2
1000d848:	3809883a 	mov	r4,r7
1000d84c:	000c9680 	call	1000c968 <__mulsi3>
1000d850:	a808d43a 	srli	r4,r21,16
1000d854:	1705883a 	add	r2,r2,fp
1000d858:	d8c00217 	ldw	r3,8(sp)
1000d85c:	2085883a 	add	r2,r4,r2
1000d860:	1700022e 	bgeu	r2,fp,1000d86c <__divdf3+0x630>
1000d864:	01000074 	movhi	r4,1
1000d868:	9125883a 	add	r18,r18,r4
1000d86c:	1008d43a 	srli	r4,r2,16
1000d870:	1004943a 	slli	r2,r2,16
1000d874:	ad7fffcc 	andi	r21,r21,65535
1000d878:	2489883a 	add	r4,r4,r18
1000d87c:	1545883a 	add	r2,r2,r21
1000d880:	81003836 	bltu	r16,r4,1000d964 <__divdf3+0x728>
1000d884:	81003626 	beq	r16,r4,1000d960 <__divdf3+0x724>
1000d888:	a5000054 	ori	r20,r20,1
1000d88c:	1880ffc4 	addi	r2,r3,1023
1000d890:	00bf2e0e 	bge	zero,r2,1000d54c <__alt_data_end+0xf800d54c>
1000d894:	a10001cc 	andi	r4,r20,7
1000d898:	20000726 	beq	r4,zero,1000d8b8 <__divdf3+0x67c>
1000d89c:	a10003cc 	andi	r4,r20,15
1000d8a0:	01400104 	movi	r5,4
1000d8a4:	21400426 	beq	r4,r5,1000d8b8 <__divdf3+0x67c>
1000d8a8:	a149883a 	add	r4,r20,r5
1000d8ac:	2529803a 	cmpltu	r20,r4,r20
1000d8b0:	8d23883a 	add	r17,r17,r20
1000d8b4:	2029883a 	mov	r20,r4
1000d8b8:	8900402c 	andhi	r4,r17,256
1000d8bc:	20000426 	beq	r4,zero,1000d8d0 <__divdf3+0x694>
1000d8c0:	18810004 	addi	r2,r3,1024
1000d8c4:	00ffc034 	movhi	r3,65280
1000d8c8:	18ffffc4 	addi	r3,r3,-1
1000d8cc:	88e2703a 	and	r17,r17,r3
1000d8d0:	00c1ff84 	movi	r3,2046
1000d8d4:	18beb416 	blt	r3,r2,1000d3a8 <__alt_data_end+0xf800d3a8>
1000d8d8:	a028d0fa 	srli	r20,r20,3
1000d8dc:	882a977a 	slli	r21,r17,29
1000d8e0:	8820927a 	slli	r16,r17,9
1000d8e4:	1081ffcc 	andi	r2,r2,2047
1000d8e8:	ad2ab03a 	or	r21,r21,r20
1000d8ec:	8020d33a 	srli	r16,r16,12
1000d8f0:	9900004c 	andi	r4,r19,1
1000d8f4:	003eb006 	br	1000d3b8 <__alt_data_end+0xf800d3b8>
1000d8f8:	8080022c 	andhi	r2,r16,8
1000d8fc:	10001226 	beq	r2,zero,1000d948 <__divdf3+0x70c>
1000d900:	8880022c 	andhi	r2,r17,8
1000d904:	1000101e 	bne	r2,zero,1000d948 <__divdf3+0x70c>
1000d908:	00800434 	movhi	r2,16
1000d90c:	8c000234 	orhi	r16,r17,8
1000d910:	10bfffc4 	addi	r2,r2,-1
1000d914:	b809883a 	mov	r4,r23
1000d918:	80a0703a 	and	r16,r16,r2
1000d91c:	a02b883a 	mov	r21,r20
1000d920:	003f0806 	br	1000d544 <__alt_data_end+0xf800d544>
1000d924:	008000c4 	movi	r2,3
1000d928:	3880b126 	beq	r7,r2,1000dbf0 <__divdf3+0x9b4>
1000d92c:	00800044 	movi	r2,1
1000d930:	38805b1e 	bne	r7,r2,1000daa0 <__divdf3+0x864>
1000d934:	e009883a 	mov	r4,fp
1000d938:	0005883a 	mov	r2,zero
1000d93c:	0021883a 	mov	r16,zero
1000d940:	002b883a 	mov	r21,zero
1000d944:	003e9c06 	br	1000d3b8 <__alt_data_end+0xf800d3b8>
1000d948:	00800434 	movhi	r2,16
1000d94c:	84000234 	orhi	r16,r16,8
1000d950:	10bfffc4 	addi	r2,r2,-1
1000d954:	b009883a 	mov	r4,r22
1000d958:	80a0703a 	and	r16,r16,r2
1000d95c:	003ef906 	br	1000d544 <__alt_data_end+0xf800d544>
1000d960:	103fca26 	beq	r2,zero,1000d88c <__alt_data_end+0xf800d88c>
1000d964:	b421883a 	add	r16,r22,r16
1000d968:	a17fffc4 	addi	r5,r20,-1
1000d96c:	8580422e 	bgeu	r16,r22,1000da78 <__divdf3+0x83c>
1000d970:	2829883a 	mov	r20,r5
1000d974:	813fc41e 	bne	r16,r4,1000d888 <__alt_data_end+0xf800d888>
1000d978:	d9800017 	ldw	r6,0(sp)
1000d97c:	30bfc21e 	bne	r6,r2,1000d888 <__alt_data_end+0xf800d888>
1000d980:	003fc206 	br	1000d88c <__alt_data_end+0xf800d88c>
1000d984:	143ff604 	addi	r16,r2,-40
1000d988:	8c20983a 	sll	r16,r17,r16
1000d98c:	002b883a 	mov	r21,zero
1000d990:	003eb406 	br	1000d464 <__alt_data_end+0xf800d464>
1000d994:	d9800215 	stw	r6,8(sp)
1000d998:	d9c00515 	stw	r7,20(sp)
1000d99c:	da000415 	stw	r8,16(sp)
1000d9a0:	000f1d00 	call	1000f1d0 <__clzsi2>
1000d9a4:	10800804 	addi	r2,r2,32
1000d9a8:	da000417 	ldw	r8,16(sp)
1000d9ac:	d9c00517 	ldw	r7,20(sp)
1000d9b0:	d9800217 	ldw	r6,8(sp)
1000d9b4:	003ea106 	br	1000d43c <__alt_data_end+0xf800d43c>
1000d9b8:	147ff604 	addi	r17,r2,-40
1000d9bc:	3462983a 	sll	r17,r6,r17
1000d9c0:	0029883a 	mov	r20,zero
1000d9c4:	003ec906 	br	1000d4ec <__alt_data_end+0xf800d4ec>
1000d9c8:	3009883a 	mov	r4,r6
1000d9cc:	d9400115 	stw	r5,4(sp)
1000d9d0:	d9800215 	stw	r6,8(sp)
1000d9d4:	da000415 	stw	r8,16(sp)
1000d9d8:	da400315 	stw	r9,12(sp)
1000d9dc:	000f1d00 	call	1000f1d0 <__clzsi2>
1000d9e0:	10800804 	addi	r2,r2,32
1000d9e4:	da400317 	ldw	r9,12(sp)
1000d9e8:	da000417 	ldw	r8,16(sp)
1000d9ec:	d9800217 	ldw	r6,8(sp)
1000d9f0:	d9400117 	ldw	r5,4(sp)
1000d9f4:	003eb306 	br	1000d4c4 <__alt_data_end+0xf800d4c4>
1000d9f8:	d9800017 	ldw	r6,0(sp)
1000d9fc:	a9ab883a 	add	r21,r21,r6
1000da00:	a98b803a 	cmpltu	r5,r21,r6
1000da04:	2d8b883a 	add	r5,r5,r22
1000da08:	2a11883a 	add	r8,r5,r8
1000da0c:	897fffc4 	addi	r5,r17,-1
1000da10:	b2000c2e 	bgeu	r22,r8,1000da44 <__divdf3+0x808>
1000da14:	41003f36 	bltu	r8,r4,1000db14 <__divdf3+0x8d8>
1000da18:	22006c26 	beq	r4,r8,1000dbcc <__divdf3+0x990>
1000da1c:	4109c83a 	sub	r4,r8,r4
1000da20:	2823883a 	mov	r17,r5
1000da24:	003f3b06 	br	1000d714 <__alt_data_end+0xf800d714>
1000da28:	ad3ed336 	bltu	r21,r20,1000d578 <__alt_data_end+0xf800d578>
1000da2c:	a804d07a 	srli	r2,r21,1
1000da30:	802e97fa 	slli	r23,r16,31
1000da34:	a82a97fa 	slli	r21,r21,31
1000da38:	8020d07a 	srli	r16,r16,1
1000da3c:	b8aeb03a 	or	r23,r23,r2
1000da40:	003ed006 	br	1000d584 <__alt_data_end+0xf800d584>
1000da44:	b23ff51e 	bne	r22,r8,1000da1c <__alt_data_end+0xf800da1c>
1000da48:	d9800017 	ldw	r6,0(sp)
1000da4c:	a9bff12e 	bgeu	r21,r6,1000da14 <__alt_data_end+0xf800da14>
1000da50:	b109c83a 	sub	r4,r22,r4
1000da54:	2823883a 	mov	r17,r5
1000da58:	003f2e06 	br	1000d714 <__alt_data_end+0xf800d714>
1000da5c:	2021883a 	mov	r16,r4
1000da60:	003eff06 	br	1000d660 <__alt_data_end+0xf800d660>
1000da64:	2023883a 	mov	r17,r4
1000da68:	003ee406 	br	1000d5fc <__alt_data_end+0xf800d5fc>
1000da6c:	a8bfe236 	bltu	r21,r2,1000d9f8 <__alt_data_end+0xf800d9f8>
1000da70:	0009883a 	mov	r4,zero
1000da74:	003f2706 	br	1000d714 <__alt_data_end+0xf800d714>
1000da78:	81002d36 	bltu	r16,r4,1000db30 <__divdf3+0x8f4>
1000da7c:	24005626 	beq	r4,r16,1000dbd8 <__divdf3+0x99c>
1000da80:	2829883a 	mov	r20,r5
1000da84:	003f8006 	br	1000d888 <__alt_data_end+0xf800d888>
1000da88:	053fffc4 	movi	r20,-1
1000da8c:	003f7f06 	br	1000d88c <__alt_data_end+0xf800d88c>
1000da90:	200f883a 	mov	r7,r4
1000da94:	003f3c06 	br	1000d788 <__alt_data_end+0xf800d788>
1000da98:	1011883a 	mov	r8,r2
1000da9c:	003f5506 	br	1000d7f4 <__alt_data_end+0xf800d7f4>
1000daa0:	e027883a 	mov	r19,fp
1000daa4:	003f7906 	br	1000d88c <__alt_data_end+0xf800d88c>
1000daa8:	010007c4 	movi	r4,31
1000daac:	20c02816 	blt	r4,r3,1000db50 <__divdf3+0x914>
1000dab0:	00800804 	movi	r2,32
1000dab4:	10c5c83a 	sub	r2,r2,r3
1000dab8:	888a983a 	sll	r5,r17,r2
1000dabc:	a0c8d83a 	srl	r4,r20,r3
1000dac0:	a084983a 	sll	r2,r20,r2
1000dac4:	88e2d83a 	srl	r17,r17,r3
1000dac8:	2906b03a 	or	r3,r5,r4
1000dacc:	1004c03a 	cmpne	r2,r2,zero
1000dad0:	1886b03a 	or	r3,r3,r2
1000dad4:	188001cc 	andi	r2,r3,7
1000dad8:	10000726 	beq	r2,zero,1000daf8 <__divdf3+0x8bc>
1000dadc:	188003cc 	andi	r2,r3,15
1000dae0:	01000104 	movi	r4,4
1000dae4:	11000426 	beq	r2,r4,1000daf8 <__divdf3+0x8bc>
1000dae8:	1805883a 	mov	r2,r3
1000daec:	10c00104 	addi	r3,r2,4
1000daf0:	1885803a 	cmpltu	r2,r3,r2
1000daf4:	88a3883a 	add	r17,r17,r2
1000daf8:	8880202c 	andhi	r2,r17,128
1000dafc:	10002926 	beq	r2,zero,1000dba4 <__divdf3+0x968>
1000db00:	9900004c 	andi	r4,r19,1
1000db04:	00800044 	movi	r2,1
1000db08:	0021883a 	mov	r16,zero
1000db0c:	002b883a 	mov	r21,zero
1000db10:	003e2906 	br	1000d3b8 <__alt_data_end+0xf800d3b8>
1000db14:	d9800017 	ldw	r6,0(sp)
1000db18:	8c7fff84 	addi	r17,r17,-2
1000db1c:	a9ab883a 	add	r21,r21,r6
1000db20:	a98b803a 	cmpltu	r5,r21,r6
1000db24:	2d8b883a 	add	r5,r5,r22
1000db28:	2a11883a 	add	r8,r5,r8
1000db2c:	003ef806 	br	1000d710 <__alt_data_end+0xf800d710>
1000db30:	d9800017 	ldw	r6,0(sp)
1000db34:	318f883a 	add	r7,r6,r6
1000db38:	398b803a 	cmpltu	r5,r7,r6
1000db3c:	2d8d883a 	add	r6,r5,r22
1000db40:	81a1883a 	add	r16,r16,r6
1000db44:	a17fff84 	addi	r5,r20,-2
1000db48:	d9c00015 	stw	r7,0(sp)
1000db4c:	003f8806 	br	1000d970 <__alt_data_end+0xf800d970>
1000db50:	013ff844 	movi	r4,-31
1000db54:	2085c83a 	sub	r2,r4,r2
1000db58:	8888d83a 	srl	r4,r17,r2
1000db5c:	00800804 	movi	r2,32
1000db60:	18802126 	beq	r3,r2,1000dbe8 <__divdf3+0x9ac>
1000db64:	04001004 	movi	r16,64
1000db68:	80c7c83a 	sub	r3,r16,r3
1000db6c:	88e0983a 	sll	r16,r17,r3
1000db70:	8504b03a 	or	r2,r16,r20
1000db74:	1004c03a 	cmpne	r2,r2,zero
1000db78:	2084b03a 	or	r2,r4,r2
1000db7c:	144001cc 	andi	r17,r2,7
1000db80:	88000d1e 	bne	r17,zero,1000dbb8 <__divdf3+0x97c>
1000db84:	0021883a 	mov	r16,zero
1000db88:	102ad0fa 	srli	r21,r2,3
1000db8c:	9900004c 	andi	r4,r19,1
1000db90:	0005883a 	mov	r2,zero
1000db94:	ac6ab03a 	or	r21,r21,r17
1000db98:	003e0706 	br	1000d3b8 <__alt_data_end+0xf800d3b8>
1000db9c:	1007883a 	mov	r3,r2
1000dba0:	0023883a 	mov	r17,zero
1000dba4:	8820927a 	slli	r16,r17,9
1000dba8:	1805883a 	mov	r2,r3
1000dbac:	8822977a 	slli	r17,r17,29
1000dbb0:	8020d33a 	srli	r16,r16,12
1000dbb4:	003ff406 	br	1000db88 <__alt_data_end+0xf800db88>
1000dbb8:	10c003cc 	andi	r3,r2,15
1000dbbc:	01000104 	movi	r4,4
1000dbc0:	193ff626 	beq	r3,r4,1000db9c <__alt_data_end+0xf800db9c>
1000dbc4:	0023883a 	mov	r17,zero
1000dbc8:	003fc806 	br	1000daec <__alt_data_end+0xf800daec>
1000dbcc:	a8bfd136 	bltu	r21,r2,1000db14 <__alt_data_end+0xf800db14>
1000dbd0:	2823883a 	mov	r17,r5
1000dbd4:	003fa606 	br	1000da70 <__alt_data_end+0xf800da70>
1000dbd8:	d9800017 	ldw	r6,0(sp)
1000dbdc:	30bfd436 	bltu	r6,r2,1000db30 <__alt_data_end+0xf800db30>
1000dbe0:	2829883a 	mov	r20,r5
1000dbe4:	003f6406 	br	1000d978 <__alt_data_end+0xf800d978>
1000dbe8:	0021883a 	mov	r16,zero
1000dbec:	003fe006 	br	1000db70 <__alt_data_end+0xf800db70>
1000dbf0:	00800434 	movhi	r2,16
1000dbf4:	8c000234 	orhi	r16,r17,8
1000dbf8:	10bfffc4 	addi	r2,r2,-1
1000dbfc:	e009883a 	mov	r4,fp
1000dc00:	80a0703a 	and	r16,r16,r2
1000dc04:	a02b883a 	mov	r21,r20
1000dc08:	003e4e06 	br	1000d544 <__alt_data_end+0xf800d544>

1000dc0c <__eqdf2>:
1000dc0c:	2804d53a 	srli	r2,r5,20
1000dc10:	3806d53a 	srli	r3,r7,20
1000dc14:	02000434 	movhi	r8,16
1000dc18:	423fffc4 	addi	r8,r8,-1
1000dc1c:	1081ffcc 	andi	r2,r2,2047
1000dc20:	0281ffc4 	movi	r10,2047
1000dc24:	2a12703a 	and	r9,r5,r8
1000dc28:	18c1ffcc 	andi	r3,r3,2047
1000dc2c:	3a10703a 	and	r8,r7,r8
1000dc30:	280ad7fa 	srli	r5,r5,31
1000dc34:	380ed7fa 	srli	r7,r7,31
1000dc38:	12801026 	beq	r2,r10,1000dc7c <__eqdf2+0x70>
1000dc3c:	0281ffc4 	movi	r10,2047
1000dc40:	1a800a26 	beq	r3,r10,1000dc6c <__eqdf2+0x60>
1000dc44:	10c00226 	beq	r2,r3,1000dc50 <__eqdf2+0x44>
1000dc48:	00800044 	movi	r2,1
1000dc4c:	f800283a 	ret
1000dc50:	4a3ffd1e 	bne	r9,r8,1000dc48 <__alt_data_end+0xf800dc48>
1000dc54:	21bffc1e 	bne	r4,r6,1000dc48 <__alt_data_end+0xf800dc48>
1000dc58:	29c00c26 	beq	r5,r7,1000dc8c <__eqdf2+0x80>
1000dc5c:	103ffa1e 	bne	r2,zero,1000dc48 <__alt_data_end+0xf800dc48>
1000dc60:	2244b03a 	or	r2,r4,r9
1000dc64:	1004c03a 	cmpne	r2,r2,zero
1000dc68:	f800283a 	ret
1000dc6c:	3214b03a 	or	r10,r6,r8
1000dc70:	503ff426 	beq	r10,zero,1000dc44 <__alt_data_end+0xf800dc44>
1000dc74:	00800044 	movi	r2,1
1000dc78:	f800283a 	ret
1000dc7c:	2254b03a 	or	r10,r4,r9
1000dc80:	503fee26 	beq	r10,zero,1000dc3c <__alt_data_end+0xf800dc3c>
1000dc84:	00800044 	movi	r2,1
1000dc88:	f800283a 	ret
1000dc8c:	0005883a 	mov	r2,zero
1000dc90:	f800283a 	ret

1000dc94 <__gedf2>:
1000dc94:	2804d53a 	srli	r2,r5,20
1000dc98:	3806d53a 	srli	r3,r7,20
1000dc9c:	02000434 	movhi	r8,16
1000dca0:	423fffc4 	addi	r8,r8,-1
1000dca4:	1081ffcc 	andi	r2,r2,2047
1000dca8:	0241ffc4 	movi	r9,2047
1000dcac:	2a14703a 	and	r10,r5,r8
1000dcb0:	18c1ffcc 	andi	r3,r3,2047
1000dcb4:	3a10703a 	and	r8,r7,r8
1000dcb8:	280ad7fa 	srli	r5,r5,31
1000dcbc:	380ed7fa 	srli	r7,r7,31
1000dcc0:	12401d26 	beq	r2,r9,1000dd38 <__gedf2+0xa4>
1000dcc4:	0241ffc4 	movi	r9,2047
1000dcc8:	1a401226 	beq	r3,r9,1000dd14 <__gedf2+0x80>
1000dccc:	1000081e 	bne	r2,zero,1000dcf0 <__gedf2+0x5c>
1000dcd0:	2296b03a 	or	r11,r4,r10
1000dcd4:	5813003a 	cmpeq	r9,r11,zero
1000dcd8:	1800091e 	bne	r3,zero,1000dd00 <__gedf2+0x6c>
1000dcdc:	3218b03a 	or	r12,r6,r8
1000dce0:	6000071e 	bne	r12,zero,1000dd00 <__gedf2+0x6c>
1000dce4:	0005883a 	mov	r2,zero
1000dce8:	5800101e 	bne	r11,zero,1000dd2c <__gedf2+0x98>
1000dcec:	f800283a 	ret
1000dcf0:	18000c1e 	bne	r3,zero,1000dd24 <__gedf2+0x90>
1000dcf4:	3212b03a 	or	r9,r6,r8
1000dcf8:	48000c26 	beq	r9,zero,1000dd2c <__gedf2+0x98>
1000dcfc:	0013883a 	mov	r9,zero
1000dd00:	39c03fcc 	andi	r7,r7,255
1000dd04:	48000826 	beq	r9,zero,1000dd28 <__gedf2+0x94>
1000dd08:	38000926 	beq	r7,zero,1000dd30 <__gedf2+0x9c>
1000dd0c:	00800044 	movi	r2,1
1000dd10:	f800283a 	ret
1000dd14:	3212b03a 	or	r9,r6,r8
1000dd18:	483fec26 	beq	r9,zero,1000dccc <__alt_data_end+0xf800dccc>
1000dd1c:	00bfff84 	movi	r2,-2
1000dd20:	f800283a 	ret
1000dd24:	39c03fcc 	andi	r7,r7,255
1000dd28:	29c00626 	beq	r5,r7,1000dd44 <__gedf2+0xb0>
1000dd2c:	283ff726 	beq	r5,zero,1000dd0c <__alt_data_end+0xf800dd0c>
1000dd30:	00bfffc4 	movi	r2,-1
1000dd34:	f800283a 	ret
1000dd38:	2292b03a 	or	r9,r4,r10
1000dd3c:	483fe126 	beq	r9,zero,1000dcc4 <__alt_data_end+0xf800dcc4>
1000dd40:	003ff606 	br	1000dd1c <__alt_data_end+0xf800dd1c>
1000dd44:	18bff916 	blt	r3,r2,1000dd2c <__alt_data_end+0xf800dd2c>
1000dd48:	10c00316 	blt	r2,r3,1000dd58 <__gedf2+0xc4>
1000dd4c:	42bff736 	bltu	r8,r10,1000dd2c <__alt_data_end+0xf800dd2c>
1000dd50:	52000326 	beq	r10,r8,1000dd60 <__gedf2+0xcc>
1000dd54:	5200042e 	bgeu	r10,r8,1000dd68 <__gedf2+0xd4>
1000dd58:	283fec1e 	bne	r5,zero,1000dd0c <__alt_data_end+0xf800dd0c>
1000dd5c:	003ff406 	br	1000dd30 <__alt_data_end+0xf800dd30>
1000dd60:	313ff236 	bltu	r6,r4,1000dd2c <__alt_data_end+0xf800dd2c>
1000dd64:	21bffc36 	bltu	r4,r6,1000dd58 <__alt_data_end+0xf800dd58>
1000dd68:	0005883a 	mov	r2,zero
1000dd6c:	f800283a 	ret

1000dd70 <__ledf2>:
1000dd70:	2804d53a 	srli	r2,r5,20
1000dd74:	3810d53a 	srli	r8,r7,20
1000dd78:	00c00434 	movhi	r3,16
1000dd7c:	18ffffc4 	addi	r3,r3,-1
1000dd80:	1081ffcc 	andi	r2,r2,2047
1000dd84:	0241ffc4 	movi	r9,2047
1000dd88:	28d4703a 	and	r10,r5,r3
1000dd8c:	4201ffcc 	andi	r8,r8,2047
1000dd90:	38c6703a 	and	r3,r7,r3
1000dd94:	280ad7fa 	srli	r5,r5,31
1000dd98:	380ed7fa 	srli	r7,r7,31
1000dd9c:	12401f26 	beq	r2,r9,1000de1c <__ledf2+0xac>
1000dda0:	0241ffc4 	movi	r9,2047
1000dda4:	42401426 	beq	r8,r9,1000ddf8 <__ledf2+0x88>
1000dda8:	1000091e 	bne	r2,zero,1000ddd0 <__ledf2+0x60>
1000ddac:	2296b03a 	or	r11,r4,r10
1000ddb0:	5813003a 	cmpeq	r9,r11,zero
1000ddb4:	29403fcc 	andi	r5,r5,255
1000ddb8:	40000a1e 	bne	r8,zero,1000dde4 <__ledf2+0x74>
1000ddbc:	30d8b03a 	or	r12,r6,r3
1000ddc0:	6000081e 	bne	r12,zero,1000dde4 <__ledf2+0x74>
1000ddc4:	0005883a 	mov	r2,zero
1000ddc8:	5800111e 	bne	r11,zero,1000de10 <__ledf2+0xa0>
1000ddcc:	f800283a 	ret
1000ddd0:	29403fcc 	andi	r5,r5,255
1000ddd4:	40000c1e 	bne	r8,zero,1000de08 <__ledf2+0x98>
1000ddd8:	30d2b03a 	or	r9,r6,r3
1000dddc:	48000c26 	beq	r9,zero,1000de10 <__ledf2+0xa0>
1000dde0:	0013883a 	mov	r9,zero
1000dde4:	39c03fcc 	andi	r7,r7,255
1000dde8:	48000826 	beq	r9,zero,1000de0c <__ledf2+0x9c>
1000ddec:	38001126 	beq	r7,zero,1000de34 <__ledf2+0xc4>
1000ddf0:	00800044 	movi	r2,1
1000ddf4:	f800283a 	ret
1000ddf8:	30d2b03a 	or	r9,r6,r3
1000ddfc:	483fea26 	beq	r9,zero,1000dda8 <__alt_data_end+0xf800dda8>
1000de00:	00800084 	movi	r2,2
1000de04:	f800283a 	ret
1000de08:	39c03fcc 	andi	r7,r7,255
1000de0c:	39400726 	beq	r7,r5,1000de2c <__ledf2+0xbc>
1000de10:	2800081e 	bne	r5,zero,1000de34 <__ledf2+0xc4>
1000de14:	00800044 	movi	r2,1
1000de18:	f800283a 	ret
1000de1c:	2292b03a 	or	r9,r4,r10
1000de20:	483fdf26 	beq	r9,zero,1000dda0 <__alt_data_end+0xf800dda0>
1000de24:	00800084 	movi	r2,2
1000de28:	f800283a 	ret
1000de2c:	4080030e 	bge	r8,r2,1000de3c <__ledf2+0xcc>
1000de30:	383fef26 	beq	r7,zero,1000ddf0 <__alt_data_end+0xf800ddf0>
1000de34:	00bfffc4 	movi	r2,-1
1000de38:	f800283a 	ret
1000de3c:	123feb16 	blt	r2,r8,1000ddec <__alt_data_end+0xf800ddec>
1000de40:	1abff336 	bltu	r3,r10,1000de10 <__alt_data_end+0xf800de10>
1000de44:	50c00326 	beq	r10,r3,1000de54 <__ledf2+0xe4>
1000de48:	50c0042e 	bgeu	r10,r3,1000de5c <__ledf2+0xec>
1000de4c:	283fe81e 	bne	r5,zero,1000ddf0 <__alt_data_end+0xf800ddf0>
1000de50:	003ff806 	br	1000de34 <__alt_data_end+0xf800de34>
1000de54:	313fee36 	bltu	r6,r4,1000de10 <__alt_data_end+0xf800de10>
1000de58:	21bffc36 	bltu	r4,r6,1000de4c <__alt_data_end+0xf800de4c>
1000de5c:	0005883a 	mov	r2,zero
1000de60:	f800283a 	ret

1000de64 <__muldf3>:
1000de64:	deffee04 	addi	sp,sp,-72
1000de68:	dd000c15 	stw	r20,48(sp)
1000de6c:	2828d53a 	srli	r20,r5,20
1000de70:	ddc00f15 	stw	r23,60(sp)
1000de74:	282ed7fa 	srli	r23,r5,31
1000de78:	dc000815 	stw	r16,32(sp)
1000de7c:	04000434 	movhi	r16,16
1000de80:	dcc00b15 	stw	r19,44(sp)
1000de84:	843fffc4 	addi	r16,r16,-1
1000de88:	dfc01115 	stw	ra,68(sp)
1000de8c:	df001015 	stw	fp,64(sp)
1000de90:	dd800e15 	stw	r22,56(sp)
1000de94:	dd400d15 	stw	r21,52(sp)
1000de98:	dc800a15 	stw	r18,40(sp)
1000de9c:	dc400915 	stw	r17,36(sp)
1000dea0:	a501ffcc 	andi	r20,r20,2047
1000dea4:	2c20703a 	and	r16,r5,r16
1000dea8:	b827883a 	mov	r19,r23
1000deac:	ba403fcc 	andi	r9,r23,255
1000deb0:	a0006026 	beq	r20,zero,1000e034 <__muldf3+0x1d0>
1000deb4:	0081ffc4 	movi	r2,2047
1000deb8:	202d883a 	mov	r22,r4
1000debc:	a0803626 	beq	r20,r2,1000df98 <__muldf3+0x134>
1000dec0:	84000434 	orhi	r16,r16,16
1000dec4:	200ad77a 	srli	r5,r4,29
1000dec8:	800490fa 	slli	r2,r16,3
1000decc:	202c90fa 	slli	r22,r4,3
1000ded0:	a53f0044 	addi	r20,r20,-1023
1000ded4:	28a0b03a 	or	r16,r5,r2
1000ded8:	002b883a 	mov	r21,zero
1000dedc:	000b883a 	mov	r5,zero
1000dee0:	3804d53a 	srli	r2,r7,20
1000dee4:	3838d7fa 	srli	fp,r7,31
1000dee8:	04400434 	movhi	r17,16
1000deec:	8c7fffc4 	addi	r17,r17,-1
1000def0:	1081ffcc 	andi	r2,r2,2047
1000def4:	3025883a 	mov	r18,r6
1000def8:	3c62703a 	and	r17,r7,r17
1000defc:	e2803fcc 	andi	r10,fp,255
1000df00:	10006d26 	beq	r2,zero,1000e0b8 <__muldf3+0x254>
1000df04:	00c1ffc4 	movi	r3,2047
1000df08:	10c06526 	beq	r2,r3,1000e0a0 <__muldf3+0x23c>
1000df0c:	8c400434 	orhi	r17,r17,16
1000df10:	300ed77a 	srli	r7,r6,29
1000df14:	880690fa 	slli	r3,r17,3
1000df18:	302490fa 	slli	r18,r6,3
1000df1c:	10bf0044 	addi	r2,r2,-1023
1000df20:	38e2b03a 	or	r17,r7,r3
1000df24:	000f883a 	mov	r7,zero
1000df28:	a087883a 	add	r3,r20,r2
1000df2c:	010003c4 	movi	r4,15
1000df30:	3d44b03a 	or	r2,r7,r21
1000df34:	e5ccf03a 	xor	r6,fp,r23
1000df38:	1a000044 	addi	r8,r3,1
1000df3c:	20809b36 	bltu	r4,r2,1000e1ac <__muldf3+0x348>
1000df40:	100490ba 	slli	r2,r2,2
1000df44:	01040074 	movhi	r4,4097
1000df48:	2137d604 	addi	r4,r4,-8360
1000df4c:	1105883a 	add	r2,r2,r4
1000df50:	10800017 	ldw	r2,0(r2)
1000df54:	1000683a 	jmp	r2
1000df58:	1000e1ac 	andhi	zero,r2,902
1000df5c:	1000dfb8 	rdprs	zero,r2,894
1000df60:	1000dfb8 	rdprs	zero,r2,894
1000df64:	1000dfb4 	orhi	zero,r2,894
1000df68:	1000e188 	cmpgei	zero,r2,902
1000df6c:	1000e188 	cmpgei	zero,r2,902
1000df70:	1000e170 	cmpltui	zero,r2,901
1000df74:	1000dfb4 	orhi	zero,r2,894
1000df78:	1000e188 	cmpgei	zero,r2,902
1000df7c:	1000e170 	cmpltui	zero,r2,901
1000df80:	1000e188 	cmpgei	zero,r2,902
1000df84:	1000dfb4 	orhi	zero,r2,894
1000df88:	1000e198 	cmpnei	zero,r2,902
1000df8c:	1000e198 	cmpnei	zero,r2,902
1000df90:	1000e198 	cmpnei	zero,r2,902
1000df94:	1000e4f8 	rdprs	zero,r2,915
1000df98:	2404b03a 	or	r2,r4,r16
1000df9c:	1000711e 	bne	r2,zero,1000e164 <__muldf3+0x300>
1000dfa0:	05400204 	movi	r21,8
1000dfa4:	0021883a 	mov	r16,zero
1000dfa8:	002d883a 	mov	r22,zero
1000dfac:	01400084 	movi	r5,2
1000dfb0:	003fcb06 	br	1000dee0 <__alt_data_end+0xf800dee0>
1000dfb4:	500d883a 	mov	r6,r10
1000dfb8:	00800084 	movi	r2,2
1000dfbc:	38805926 	beq	r7,r2,1000e124 <__muldf3+0x2c0>
1000dfc0:	008000c4 	movi	r2,3
1000dfc4:	3881bb26 	beq	r7,r2,1000e6b4 <__muldf3+0x850>
1000dfc8:	00800044 	movi	r2,1
1000dfcc:	3881961e 	bne	r7,r2,1000e628 <__muldf3+0x7c4>
1000dfd0:	3027883a 	mov	r19,r6
1000dfd4:	0005883a 	mov	r2,zero
1000dfd8:	0021883a 	mov	r16,zero
1000dfdc:	002d883a 	mov	r22,zero
1000dfe0:	1004953a 	slli	r2,r2,20
1000dfe4:	98c03fcc 	andi	r3,r19,255
1000dfe8:	04400434 	movhi	r17,16
1000dfec:	8c7fffc4 	addi	r17,r17,-1
1000dff0:	180697fa 	slli	r3,r3,31
1000dff4:	8460703a 	and	r16,r16,r17
1000dff8:	80a0b03a 	or	r16,r16,r2
1000dffc:	80c6b03a 	or	r3,r16,r3
1000e000:	b005883a 	mov	r2,r22
1000e004:	dfc01117 	ldw	ra,68(sp)
1000e008:	df001017 	ldw	fp,64(sp)
1000e00c:	ddc00f17 	ldw	r23,60(sp)
1000e010:	dd800e17 	ldw	r22,56(sp)
1000e014:	dd400d17 	ldw	r21,52(sp)
1000e018:	dd000c17 	ldw	r20,48(sp)
1000e01c:	dcc00b17 	ldw	r19,44(sp)
1000e020:	dc800a17 	ldw	r18,40(sp)
1000e024:	dc400917 	ldw	r17,36(sp)
1000e028:	dc000817 	ldw	r16,32(sp)
1000e02c:	dec01204 	addi	sp,sp,72
1000e030:	f800283a 	ret
1000e034:	2404b03a 	or	r2,r4,r16
1000e038:	202b883a 	mov	r21,r4
1000e03c:	10004426 	beq	r2,zero,1000e150 <__muldf3+0x2ec>
1000e040:	80015126 	beq	r16,zero,1000e588 <__muldf3+0x724>
1000e044:	8009883a 	mov	r4,r16
1000e048:	d9800715 	stw	r6,28(sp)
1000e04c:	d9c00215 	stw	r7,8(sp)
1000e050:	da400415 	stw	r9,16(sp)
1000e054:	000f1d00 	call	1000f1d0 <__clzsi2>
1000e058:	d9800717 	ldw	r6,28(sp)
1000e05c:	d9c00217 	ldw	r7,8(sp)
1000e060:	da400417 	ldw	r9,16(sp)
1000e064:	113ffd44 	addi	r4,r2,-11
1000e068:	00c00704 	movi	r3,28
1000e06c:	19014216 	blt	r3,r4,1000e578 <__muldf3+0x714>
1000e070:	00c00744 	movi	r3,29
1000e074:	15bffe04 	addi	r22,r2,-8
1000e078:	1907c83a 	sub	r3,r3,r4
1000e07c:	85a0983a 	sll	r16,r16,r22
1000e080:	a8c6d83a 	srl	r3,r21,r3
1000e084:	adac983a 	sll	r22,r21,r22
1000e088:	1c20b03a 	or	r16,r3,r16
1000e08c:	1080fcc4 	addi	r2,r2,1011
1000e090:	00a9c83a 	sub	r20,zero,r2
1000e094:	002b883a 	mov	r21,zero
1000e098:	000b883a 	mov	r5,zero
1000e09c:	003f9006 	br	1000dee0 <__alt_data_end+0xf800dee0>
1000e0a0:	3446b03a 	or	r3,r6,r17
1000e0a4:	1800281e 	bne	r3,zero,1000e148 <__muldf3+0x2e4>
1000e0a8:	0023883a 	mov	r17,zero
1000e0ac:	0025883a 	mov	r18,zero
1000e0b0:	01c00084 	movi	r7,2
1000e0b4:	003f9c06 	br	1000df28 <__alt_data_end+0xf800df28>
1000e0b8:	3446b03a 	or	r3,r6,r17
1000e0bc:	18001e26 	beq	r3,zero,1000e138 <__muldf3+0x2d4>
1000e0c0:	88012126 	beq	r17,zero,1000e548 <__muldf3+0x6e4>
1000e0c4:	8809883a 	mov	r4,r17
1000e0c8:	d9400215 	stw	r5,8(sp)
1000e0cc:	d9800715 	stw	r6,28(sp)
1000e0d0:	da400415 	stw	r9,16(sp)
1000e0d4:	da800315 	stw	r10,12(sp)
1000e0d8:	000f1d00 	call	1000f1d0 <__clzsi2>
1000e0dc:	d9400217 	ldw	r5,8(sp)
1000e0e0:	d9800717 	ldw	r6,28(sp)
1000e0e4:	da400417 	ldw	r9,16(sp)
1000e0e8:	da800317 	ldw	r10,12(sp)
1000e0ec:	113ffd44 	addi	r4,r2,-11
1000e0f0:	00c00704 	movi	r3,28
1000e0f4:	19011016 	blt	r3,r4,1000e538 <__muldf3+0x6d4>
1000e0f8:	00c00744 	movi	r3,29
1000e0fc:	14bffe04 	addi	r18,r2,-8
1000e100:	1907c83a 	sub	r3,r3,r4
1000e104:	8ca2983a 	sll	r17,r17,r18
1000e108:	30c6d83a 	srl	r3,r6,r3
1000e10c:	34a4983a 	sll	r18,r6,r18
1000e110:	1c62b03a 	or	r17,r3,r17
1000e114:	1080fcc4 	addi	r2,r2,1011
1000e118:	0085c83a 	sub	r2,zero,r2
1000e11c:	000f883a 	mov	r7,zero
1000e120:	003f8106 	br	1000df28 <__alt_data_end+0xf800df28>
1000e124:	3027883a 	mov	r19,r6
1000e128:	0081ffc4 	movi	r2,2047
1000e12c:	0021883a 	mov	r16,zero
1000e130:	002d883a 	mov	r22,zero
1000e134:	003faa06 	br	1000dfe0 <__alt_data_end+0xf800dfe0>
1000e138:	0023883a 	mov	r17,zero
1000e13c:	0025883a 	mov	r18,zero
1000e140:	01c00044 	movi	r7,1
1000e144:	003f7806 	br	1000df28 <__alt_data_end+0xf800df28>
1000e148:	01c000c4 	movi	r7,3
1000e14c:	003f7606 	br	1000df28 <__alt_data_end+0xf800df28>
1000e150:	05400104 	movi	r21,4
1000e154:	0021883a 	mov	r16,zero
1000e158:	002d883a 	mov	r22,zero
1000e15c:	01400044 	movi	r5,1
1000e160:	003f5f06 	br	1000dee0 <__alt_data_end+0xf800dee0>
1000e164:	05400304 	movi	r21,12
1000e168:	014000c4 	movi	r5,3
1000e16c:	003f5c06 	br	1000dee0 <__alt_data_end+0xf800dee0>
1000e170:	04000434 	movhi	r16,16
1000e174:	0027883a 	mov	r19,zero
1000e178:	843fffc4 	addi	r16,r16,-1
1000e17c:	05bfffc4 	movi	r22,-1
1000e180:	0081ffc4 	movi	r2,2047
1000e184:	003f9606 	br	1000dfe0 <__alt_data_end+0xf800dfe0>
1000e188:	8023883a 	mov	r17,r16
1000e18c:	b025883a 	mov	r18,r22
1000e190:	280f883a 	mov	r7,r5
1000e194:	003f8806 	br	1000dfb8 <__alt_data_end+0xf800dfb8>
1000e198:	8023883a 	mov	r17,r16
1000e19c:	b025883a 	mov	r18,r22
1000e1a0:	480d883a 	mov	r6,r9
1000e1a4:	280f883a 	mov	r7,r5
1000e1a8:	003f8306 	br	1000dfb8 <__alt_data_end+0xf800dfb8>
1000e1ac:	b026d43a 	srli	r19,r22,16
1000e1b0:	902ed43a 	srli	r23,r18,16
1000e1b4:	b5bfffcc 	andi	r22,r22,65535
1000e1b8:	94bfffcc 	andi	r18,r18,65535
1000e1bc:	b00b883a 	mov	r5,r22
1000e1c0:	9009883a 	mov	r4,r18
1000e1c4:	d8c00515 	stw	r3,20(sp)
1000e1c8:	d9800715 	stw	r6,28(sp)
1000e1cc:	da000615 	stw	r8,24(sp)
1000e1d0:	000c9680 	call	1000c968 <__mulsi3>
1000e1d4:	980b883a 	mov	r5,r19
1000e1d8:	9009883a 	mov	r4,r18
1000e1dc:	1029883a 	mov	r20,r2
1000e1e0:	000c9680 	call	1000c968 <__mulsi3>
1000e1e4:	b80b883a 	mov	r5,r23
1000e1e8:	9809883a 	mov	r4,r19
1000e1ec:	102b883a 	mov	r21,r2
1000e1f0:	000c9680 	call	1000c968 <__mulsi3>
1000e1f4:	b809883a 	mov	r4,r23
1000e1f8:	b00b883a 	mov	r5,r22
1000e1fc:	1039883a 	mov	fp,r2
1000e200:	000c9680 	call	1000c968 <__mulsi3>
1000e204:	a008d43a 	srli	r4,r20,16
1000e208:	1545883a 	add	r2,r2,r21
1000e20c:	d8c00517 	ldw	r3,20(sp)
1000e210:	2085883a 	add	r2,r4,r2
1000e214:	d9800717 	ldw	r6,28(sp)
1000e218:	da000617 	ldw	r8,24(sp)
1000e21c:	1540022e 	bgeu	r2,r21,1000e228 <__muldf3+0x3c4>
1000e220:	01000074 	movhi	r4,1
1000e224:	e139883a 	add	fp,fp,r4
1000e228:	100e943a 	slli	r7,r2,16
1000e22c:	1004d43a 	srli	r2,r2,16
1000e230:	882ad43a 	srli	r21,r17,16
1000e234:	a53fffcc 	andi	r20,r20,65535
1000e238:	8c7fffcc 	andi	r17,r17,65535
1000e23c:	3d29883a 	add	r20,r7,r20
1000e240:	b00b883a 	mov	r5,r22
1000e244:	8809883a 	mov	r4,r17
1000e248:	d8c00515 	stw	r3,20(sp)
1000e24c:	d9800715 	stw	r6,28(sp)
1000e250:	da000615 	stw	r8,24(sp)
1000e254:	dd000115 	stw	r20,4(sp)
1000e258:	d8800015 	stw	r2,0(sp)
1000e25c:	000c9680 	call	1000c968 <__mulsi3>
1000e260:	980b883a 	mov	r5,r19
1000e264:	8809883a 	mov	r4,r17
1000e268:	d8800215 	stw	r2,8(sp)
1000e26c:	000c9680 	call	1000c968 <__mulsi3>
1000e270:	9809883a 	mov	r4,r19
1000e274:	a80b883a 	mov	r5,r21
1000e278:	1029883a 	mov	r20,r2
1000e27c:	000c9680 	call	1000c968 <__mulsi3>
1000e280:	b00b883a 	mov	r5,r22
1000e284:	a809883a 	mov	r4,r21
1000e288:	d8800415 	stw	r2,16(sp)
1000e28c:	000c9680 	call	1000c968 <__mulsi3>
1000e290:	d9c00217 	ldw	r7,8(sp)
1000e294:	1505883a 	add	r2,r2,r20
1000e298:	d8c00517 	ldw	r3,20(sp)
1000e29c:	3826d43a 	srli	r19,r7,16
1000e2a0:	d9800717 	ldw	r6,28(sp)
1000e2a4:	da000617 	ldw	r8,24(sp)
1000e2a8:	9885883a 	add	r2,r19,r2
1000e2ac:	da400417 	ldw	r9,16(sp)
1000e2b0:	1500022e 	bgeu	r2,r20,1000e2bc <__muldf3+0x458>
1000e2b4:	01000074 	movhi	r4,1
1000e2b8:	4913883a 	add	r9,r9,r4
1000e2bc:	1028d43a 	srli	r20,r2,16
1000e2c0:	1004943a 	slli	r2,r2,16
1000e2c4:	802cd43a 	srli	r22,r16,16
1000e2c8:	843fffcc 	andi	r16,r16,65535
1000e2cc:	3cffffcc 	andi	r19,r7,65535
1000e2d0:	9009883a 	mov	r4,r18
1000e2d4:	800b883a 	mov	r5,r16
1000e2d8:	a269883a 	add	r20,r20,r9
1000e2dc:	d8c00515 	stw	r3,20(sp)
1000e2e0:	d9800715 	stw	r6,28(sp)
1000e2e4:	da000615 	stw	r8,24(sp)
1000e2e8:	14e7883a 	add	r19,r2,r19
1000e2ec:	000c9680 	call	1000c968 <__mulsi3>
1000e2f0:	9009883a 	mov	r4,r18
1000e2f4:	b00b883a 	mov	r5,r22
1000e2f8:	d8800315 	stw	r2,12(sp)
1000e2fc:	000c9680 	call	1000c968 <__mulsi3>
1000e300:	b809883a 	mov	r4,r23
1000e304:	b00b883a 	mov	r5,r22
1000e308:	d8800215 	stw	r2,8(sp)
1000e30c:	000c9680 	call	1000c968 <__mulsi3>
1000e310:	b80b883a 	mov	r5,r23
1000e314:	8009883a 	mov	r4,r16
1000e318:	d8800415 	stw	r2,16(sp)
1000e31c:	000c9680 	call	1000c968 <__mulsi3>
1000e320:	da800317 	ldw	r10,12(sp)
1000e324:	d9c00217 	ldw	r7,8(sp)
1000e328:	d9000017 	ldw	r4,0(sp)
1000e32c:	502ed43a 	srli	r23,r10,16
1000e330:	11c5883a 	add	r2,r2,r7
1000e334:	24e5883a 	add	r18,r4,r19
1000e338:	b885883a 	add	r2,r23,r2
1000e33c:	d8c00517 	ldw	r3,20(sp)
1000e340:	d9800717 	ldw	r6,28(sp)
1000e344:	da000617 	ldw	r8,24(sp)
1000e348:	da400417 	ldw	r9,16(sp)
1000e34c:	11c0022e 	bgeu	r2,r7,1000e358 <__muldf3+0x4f4>
1000e350:	01000074 	movhi	r4,1
1000e354:	4913883a 	add	r9,r9,r4
1000e358:	100ed43a 	srli	r7,r2,16
1000e35c:	1004943a 	slli	r2,r2,16
1000e360:	55ffffcc 	andi	r23,r10,65535
1000e364:	3a53883a 	add	r9,r7,r9
1000e368:	8809883a 	mov	r4,r17
1000e36c:	800b883a 	mov	r5,r16
1000e370:	d8c00515 	stw	r3,20(sp)
1000e374:	d9800715 	stw	r6,28(sp)
1000e378:	da000615 	stw	r8,24(sp)
1000e37c:	da400415 	stw	r9,16(sp)
1000e380:	15ef883a 	add	r23,r2,r23
1000e384:	000c9680 	call	1000c968 <__mulsi3>
1000e388:	8809883a 	mov	r4,r17
1000e38c:	b00b883a 	mov	r5,r22
1000e390:	d8800215 	stw	r2,8(sp)
1000e394:	000c9680 	call	1000c968 <__mulsi3>
1000e398:	b00b883a 	mov	r5,r22
1000e39c:	a809883a 	mov	r4,r21
1000e3a0:	d8800315 	stw	r2,12(sp)
1000e3a4:	000c9680 	call	1000c968 <__mulsi3>
1000e3a8:	8009883a 	mov	r4,r16
1000e3ac:	a80b883a 	mov	r5,r21
1000e3b0:	1023883a 	mov	r17,r2
1000e3b4:	000c9680 	call	1000c968 <__mulsi3>
1000e3b8:	d9c00217 	ldw	r7,8(sp)
1000e3bc:	da800317 	ldw	r10,12(sp)
1000e3c0:	d8c00517 	ldw	r3,20(sp)
1000e3c4:	3808d43a 	srli	r4,r7,16
1000e3c8:	1285883a 	add	r2,r2,r10
1000e3cc:	d9800717 	ldw	r6,28(sp)
1000e3d0:	2085883a 	add	r2,r4,r2
1000e3d4:	da000617 	ldw	r8,24(sp)
1000e3d8:	da400417 	ldw	r9,16(sp)
1000e3dc:	1280022e 	bgeu	r2,r10,1000e3e8 <__muldf3+0x584>
1000e3e0:	01000074 	movhi	r4,1
1000e3e4:	8923883a 	add	r17,r17,r4
1000e3e8:	1008943a 	slli	r4,r2,16
1000e3ec:	39ffffcc 	andi	r7,r7,65535
1000e3f0:	e4b9883a 	add	fp,fp,r18
1000e3f4:	21cf883a 	add	r7,r4,r7
1000e3f8:	e4e7803a 	cmpltu	r19,fp,r19
1000e3fc:	3d0f883a 	add	r7,r7,r20
1000e400:	bf39883a 	add	fp,r23,fp
1000e404:	99c9883a 	add	r4,r19,r7
1000e408:	e5ef803a 	cmpltu	r23,fp,r23
1000e40c:	490b883a 	add	r5,r9,r4
1000e410:	1004d43a 	srli	r2,r2,16
1000e414:	b965883a 	add	r18,r23,r5
1000e418:	24c9803a 	cmpltu	r4,r4,r19
1000e41c:	3d29803a 	cmpltu	r20,r7,r20
1000e420:	a128b03a 	or	r20,r20,r4
1000e424:	95ef803a 	cmpltu	r23,r18,r23
1000e428:	2a53803a 	cmpltu	r9,r5,r9
1000e42c:	a0a9883a 	add	r20,r20,r2
1000e430:	4deeb03a 	or	r23,r9,r23
1000e434:	a5ef883a 	add	r23,r20,r23
1000e438:	bc63883a 	add	r17,r23,r17
1000e43c:	e004927a 	slli	r2,fp,9
1000e440:	d9000117 	ldw	r4,4(sp)
1000e444:	882e927a 	slli	r23,r17,9
1000e448:	9022d5fa 	srli	r17,r18,23
1000e44c:	e038d5fa 	srli	fp,fp,23
1000e450:	1104b03a 	or	r2,r2,r4
1000e454:	9024927a 	slli	r18,r18,9
1000e458:	1004c03a 	cmpne	r2,r2,zero
1000e45c:	bc62b03a 	or	r17,r23,r17
1000e460:	1738b03a 	or	fp,r2,fp
1000e464:	8880402c 	andhi	r2,r17,256
1000e468:	e4a4b03a 	or	r18,fp,r18
1000e46c:	10000726 	beq	r2,zero,1000e48c <__muldf3+0x628>
1000e470:	9006d07a 	srli	r3,r18,1
1000e474:	880497fa 	slli	r2,r17,31
1000e478:	9480004c 	andi	r18,r18,1
1000e47c:	8822d07a 	srli	r17,r17,1
1000e480:	1ca4b03a 	or	r18,r3,r18
1000e484:	14a4b03a 	or	r18,r2,r18
1000e488:	4007883a 	mov	r3,r8
1000e48c:	1880ffc4 	addi	r2,r3,1023
1000e490:	0080460e 	bge	zero,r2,1000e5ac <__muldf3+0x748>
1000e494:	910001cc 	andi	r4,r18,7
1000e498:	20000726 	beq	r4,zero,1000e4b8 <__muldf3+0x654>
1000e49c:	910003cc 	andi	r4,r18,15
1000e4a0:	01400104 	movi	r5,4
1000e4a4:	21400426 	beq	r4,r5,1000e4b8 <__muldf3+0x654>
1000e4a8:	9149883a 	add	r4,r18,r5
1000e4ac:	24a5803a 	cmpltu	r18,r4,r18
1000e4b0:	8ca3883a 	add	r17,r17,r18
1000e4b4:	2025883a 	mov	r18,r4
1000e4b8:	8900402c 	andhi	r4,r17,256
1000e4bc:	20000426 	beq	r4,zero,1000e4d0 <__muldf3+0x66c>
1000e4c0:	18810004 	addi	r2,r3,1024
1000e4c4:	00ffc034 	movhi	r3,65280
1000e4c8:	18ffffc4 	addi	r3,r3,-1
1000e4cc:	88e2703a 	and	r17,r17,r3
1000e4d0:	00c1ff84 	movi	r3,2046
1000e4d4:	18bf1316 	blt	r3,r2,1000e124 <__alt_data_end+0xf800e124>
1000e4d8:	882c977a 	slli	r22,r17,29
1000e4dc:	9024d0fa 	srli	r18,r18,3
1000e4e0:	8822927a 	slli	r17,r17,9
1000e4e4:	1081ffcc 	andi	r2,r2,2047
1000e4e8:	b4acb03a 	or	r22,r22,r18
1000e4ec:	8820d33a 	srli	r16,r17,12
1000e4f0:	3027883a 	mov	r19,r6
1000e4f4:	003eba06 	br	1000dfe0 <__alt_data_end+0xf800dfe0>
1000e4f8:	8080022c 	andhi	r2,r16,8
1000e4fc:	10000926 	beq	r2,zero,1000e524 <__muldf3+0x6c0>
1000e500:	8880022c 	andhi	r2,r17,8
1000e504:	1000071e 	bne	r2,zero,1000e524 <__muldf3+0x6c0>
1000e508:	00800434 	movhi	r2,16
1000e50c:	8c000234 	orhi	r16,r17,8
1000e510:	10bfffc4 	addi	r2,r2,-1
1000e514:	e027883a 	mov	r19,fp
1000e518:	80a0703a 	and	r16,r16,r2
1000e51c:	902d883a 	mov	r22,r18
1000e520:	003f1706 	br	1000e180 <__alt_data_end+0xf800e180>
1000e524:	00800434 	movhi	r2,16
1000e528:	84000234 	orhi	r16,r16,8
1000e52c:	10bfffc4 	addi	r2,r2,-1
1000e530:	80a0703a 	and	r16,r16,r2
1000e534:	003f1206 	br	1000e180 <__alt_data_end+0xf800e180>
1000e538:	147ff604 	addi	r17,r2,-40
1000e53c:	3462983a 	sll	r17,r6,r17
1000e540:	0025883a 	mov	r18,zero
1000e544:	003ef306 	br	1000e114 <__alt_data_end+0xf800e114>
1000e548:	3009883a 	mov	r4,r6
1000e54c:	d9400215 	stw	r5,8(sp)
1000e550:	d9800715 	stw	r6,28(sp)
1000e554:	da400415 	stw	r9,16(sp)
1000e558:	da800315 	stw	r10,12(sp)
1000e55c:	000f1d00 	call	1000f1d0 <__clzsi2>
1000e560:	10800804 	addi	r2,r2,32
1000e564:	da800317 	ldw	r10,12(sp)
1000e568:	da400417 	ldw	r9,16(sp)
1000e56c:	d9800717 	ldw	r6,28(sp)
1000e570:	d9400217 	ldw	r5,8(sp)
1000e574:	003edd06 	br	1000e0ec <__alt_data_end+0xf800e0ec>
1000e578:	143ff604 	addi	r16,r2,-40
1000e57c:	ac20983a 	sll	r16,r21,r16
1000e580:	002d883a 	mov	r22,zero
1000e584:	003ec106 	br	1000e08c <__alt_data_end+0xf800e08c>
1000e588:	d9800715 	stw	r6,28(sp)
1000e58c:	d9c00215 	stw	r7,8(sp)
1000e590:	da400415 	stw	r9,16(sp)
1000e594:	000f1d00 	call	1000f1d0 <__clzsi2>
1000e598:	10800804 	addi	r2,r2,32
1000e59c:	da400417 	ldw	r9,16(sp)
1000e5a0:	d9c00217 	ldw	r7,8(sp)
1000e5a4:	d9800717 	ldw	r6,28(sp)
1000e5a8:	003eae06 	br	1000e064 <__alt_data_end+0xf800e064>
1000e5ac:	00c00044 	movi	r3,1
1000e5b0:	1887c83a 	sub	r3,r3,r2
1000e5b4:	01000e04 	movi	r4,56
1000e5b8:	20fe8516 	blt	r4,r3,1000dfd0 <__alt_data_end+0xf800dfd0>
1000e5bc:	010007c4 	movi	r4,31
1000e5c0:	20c01b16 	blt	r4,r3,1000e630 <__muldf3+0x7cc>
1000e5c4:	00800804 	movi	r2,32
1000e5c8:	10c5c83a 	sub	r2,r2,r3
1000e5cc:	888a983a 	sll	r5,r17,r2
1000e5d0:	90c8d83a 	srl	r4,r18,r3
1000e5d4:	9084983a 	sll	r2,r18,r2
1000e5d8:	88e2d83a 	srl	r17,r17,r3
1000e5dc:	2906b03a 	or	r3,r5,r4
1000e5e0:	1004c03a 	cmpne	r2,r2,zero
1000e5e4:	1886b03a 	or	r3,r3,r2
1000e5e8:	188001cc 	andi	r2,r3,7
1000e5ec:	10000726 	beq	r2,zero,1000e60c <__muldf3+0x7a8>
1000e5f0:	188003cc 	andi	r2,r3,15
1000e5f4:	01000104 	movi	r4,4
1000e5f8:	11000426 	beq	r2,r4,1000e60c <__muldf3+0x7a8>
1000e5fc:	1805883a 	mov	r2,r3
1000e600:	10c00104 	addi	r3,r2,4
1000e604:	1885803a 	cmpltu	r2,r3,r2
1000e608:	88a3883a 	add	r17,r17,r2
1000e60c:	8880202c 	andhi	r2,r17,128
1000e610:	10001c26 	beq	r2,zero,1000e684 <__muldf3+0x820>
1000e614:	3027883a 	mov	r19,r6
1000e618:	00800044 	movi	r2,1
1000e61c:	0021883a 	mov	r16,zero
1000e620:	002d883a 	mov	r22,zero
1000e624:	003e6e06 	br	1000dfe0 <__alt_data_end+0xf800dfe0>
1000e628:	4007883a 	mov	r3,r8
1000e62c:	003f9706 	br	1000e48c <__alt_data_end+0xf800e48c>
1000e630:	017ff844 	movi	r5,-31
1000e634:	2885c83a 	sub	r2,r5,r2
1000e638:	888ad83a 	srl	r5,r17,r2
1000e63c:	00800804 	movi	r2,32
1000e640:	18801a26 	beq	r3,r2,1000e6ac <__muldf3+0x848>
1000e644:	01001004 	movi	r4,64
1000e648:	20c7c83a 	sub	r3,r4,r3
1000e64c:	88e2983a 	sll	r17,r17,r3
1000e650:	8ca4b03a 	or	r18,r17,r18
1000e654:	9004c03a 	cmpne	r2,r18,zero
1000e658:	2884b03a 	or	r2,r5,r2
1000e65c:	144001cc 	andi	r17,r2,7
1000e660:	88000d1e 	bne	r17,zero,1000e698 <__muldf3+0x834>
1000e664:	0021883a 	mov	r16,zero
1000e668:	102cd0fa 	srli	r22,r2,3
1000e66c:	3027883a 	mov	r19,r6
1000e670:	0005883a 	mov	r2,zero
1000e674:	b46cb03a 	or	r22,r22,r17
1000e678:	003e5906 	br	1000dfe0 <__alt_data_end+0xf800dfe0>
1000e67c:	1007883a 	mov	r3,r2
1000e680:	0023883a 	mov	r17,zero
1000e684:	8820927a 	slli	r16,r17,9
1000e688:	1805883a 	mov	r2,r3
1000e68c:	8822977a 	slli	r17,r17,29
1000e690:	8020d33a 	srli	r16,r16,12
1000e694:	003ff406 	br	1000e668 <__alt_data_end+0xf800e668>
1000e698:	10c003cc 	andi	r3,r2,15
1000e69c:	01000104 	movi	r4,4
1000e6a0:	193ff626 	beq	r3,r4,1000e67c <__alt_data_end+0xf800e67c>
1000e6a4:	0023883a 	mov	r17,zero
1000e6a8:	003fd506 	br	1000e600 <__alt_data_end+0xf800e600>
1000e6ac:	0023883a 	mov	r17,zero
1000e6b0:	003fe706 	br	1000e650 <__alt_data_end+0xf800e650>
1000e6b4:	00800434 	movhi	r2,16
1000e6b8:	8c000234 	orhi	r16,r17,8
1000e6bc:	10bfffc4 	addi	r2,r2,-1
1000e6c0:	3027883a 	mov	r19,r6
1000e6c4:	80a0703a 	and	r16,r16,r2
1000e6c8:	902d883a 	mov	r22,r18
1000e6cc:	003eac06 	br	1000e180 <__alt_data_end+0xf800e180>

1000e6d0 <__subdf3>:
1000e6d0:	02000434 	movhi	r8,16
1000e6d4:	423fffc4 	addi	r8,r8,-1
1000e6d8:	defffb04 	addi	sp,sp,-20
1000e6dc:	2a14703a 	and	r10,r5,r8
1000e6e0:	3812d53a 	srli	r9,r7,20
1000e6e4:	3a10703a 	and	r8,r7,r8
1000e6e8:	2006d77a 	srli	r3,r4,29
1000e6ec:	3004d77a 	srli	r2,r6,29
1000e6f0:	dc000015 	stw	r16,0(sp)
1000e6f4:	501490fa 	slli	r10,r10,3
1000e6f8:	2820d53a 	srli	r16,r5,20
1000e6fc:	401090fa 	slli	r8,r8,3
1000e700:	dc800215 	stw	r18,8(sp)
1000e704:	dc400115 	stw	r17,4(sp)
1000e708:	dfc00415 	stw	ra,16(sp)
1000e70c:	202290fa 	slli	r17,r4,3
1000e710:	dcc00315 	stw	r19,12(sp)
1000e714:	4a41ffcc 	andi	r9,r9,2047
1000e718:	0101ffc4 	movi	r4,2047
1000e71c:	2824d7fa 	srli	r18,r5,31
1000e720:	8401ffcc 	andi	r16,r16,2047
1000e724:	50c6b03a 	or	r3,r10,r3
1000e728:	380ed7fa 	srli	r7,r7,31
1000e72c:	408ab03a 	or	r5,r8,r2
1000e730:	300c90fa 	slli	r6,r6,3
1000e734:	49009626 	beq	r9,r4,1000e990 <__subdf3+0x2c0>
1000e738:	39c0005c 	xori	r7,r7,1
1000e73c:	8245c83a 	sub	r2,r16,r9
1000e740:	3c807426 	beq	r7,r18,1000e914 <__subdf3+0x244>
1000e744:	0080af0e 	bge	zero,r2,1000ea04 <__subdf3+0x334>
1000e748:	48002a1e 	bne	r9,zero,1000e7f4 <__subdf3+0x124>
1000e74c:	2988b03a 	or	r4,r5,r6
1000e750:	20009a1e 	bne	r4,zero,1000e9bc <__subdf3+0x2ec>
1000e754:	888001cc 	andi	r2,r17,7
1000e758:	10000726 	beq	r2,zero,1000e778 <__subdf3+0xa8>
1000e75c:	888003cc 	andi	r2,r17,15
1000e760:	01000104 	movi	r4,4
1000e764:	11000426 	beq	r2,r4,1000e778 <__subdf3+0xa8>
1000e768:	890b883a 	add	r5,r17,r4
1000e76c:	2c63803a 	cmpltu	r17,r5,r17
1000e770:	1c47883a 	add	r3,r3,r17
1000e774:	2823883a 	mov	r17,r5
1000e778:	1880202c 	andhi	r2,r3,128
1000e77c:	10005926 	beq	r2,zero,1000e8e4 <__subdf3+0x214>
1000e780:	84000044 	addi	r16,r16,1
1000e784:	0081ffc4 	movi	r2,2047
1000e788:	8080be26 	beq	r16,r2,1000ea84 <__subdf3+0x3b4>
1000e78c:	017fe034 	movhi	r5,65408
1000e790:	297fffc4 	addi	r5,r5,-1
1000e794:	1946703a 	and	r3,r3,r5
1000e798:	1804977a 	slli	r2,r3,29
1000e79c:	1806927a 	slli	r3,r3,9
1000e7a0:	8822d0fa 	srli	r17,r17,3
1000e7a4:	8401ffcc 	andi	r16,r16,2047
1000e7a8:	180ad33a 	srli	r5,r3,12
1000e7ac:	9100004c 	andi	r4,r18,1
1000e7b0:	1444b03a 	or	r2,r2,r17
1000e7b4:	80c1ffcc 	andi	r3,r16,2047
1000e7b8:	1820953a 	slli	r16,r3,20
1000e7bc:	20c03fcc 	andi	r3,r4,255
1000e7c0:	180897fa 	slli	r4,r3,31
1000e7c4:	00c00434 	movhi	r3,16
1000e7c8:	18ffffc4 	addi	r3,r3,-1
1000e7cc:	28c6703a 	and	r3,r5,r3
1000e7d0:	1c06b03a 	or	r3,r3,r16
1000e7d4:	1906b03a 	or	r3,r3,r4
1000e7d8:	dfc00417 	ldw	ra,16(sp)
1000e7dc:	dcc00317 	ldw	r19,12(sp)
1000e7e0:	dc800217 	ldw	r18,8(sp)
1000e7e4:	dc400117 	ldw	r17,4(sp)
1000e7e8:	dc000017 	ldw	r16,0(sp)
1000e7ec:	dec00504 	addi	sp,sp,20
1000e7f0:	f800283a 	ret
1000e7f4:	0101ffc4 	movi	r4,2047
1000e7f8:	813fd626 	beq	r16,r4,1000e754 <__alt_data_end+0xf800e754>
1000e7fc:	29402034 	orhi	r5,r5,128
1000e800:	01000e04 	movi	r4,56
1000e804:	2080a316 	blt	r4,r2,1000ea94 <__subdf3+0x3c4>
1000e808:	010007c4 	movi	r4,31
1000e80c:	2080c616 	blt	r4,r2,1000eb28 <__subdf3+0x458>
1000e810:	01000804 	movi	r4,32
1000e814:	2089c83a 	sub	r4,r4,r2
1000e818:	2910983a 	sll	r8,r5,r4
1000e81c:	308ed83a 	srl	r7,r6,r2
1000e820:	3108983a 	sll	r4,r6,r4
1000e824:	2884d83a 	srl	r2,r5,r2
1000e828:	41ccb03a 	or	r6,r8,r7
1000e82c:	2008c03a 	cmpne	r4,r4,zero
1000e830:	310cb03a 	or	r6,r6,r4
1000e834:	898dc83a 	sub	r6,r17,r6
1000e838:	89a3803a 	cmpltu	r17,r17,r6
1000e83c:	1887c83a 	sub	r3,r3,r2
1000e840:	1c47c83a 	sub	r3,r3,r17
1000e844:	3023883a 	mov	r17,r6
1000e848:	1880202c 	andhi	r2,r3,128
1000e84c:	10002326 	beq	r2,zero,1000e8dc <__subdf3+0x20c>
1000e850:	04c02034 	movhi	r19,128
1000e854:	9cffffc4 	addi	r19,r19,-1
1000e858:	1ce6703a 	and	r19,r3,r19
1000e85c:	98007a26 	beq	r19,zero,1000ea48 <__subdf3+0x378>
1000e860:	9809883a 	mov	r4,r19
1000e864:	000f1d00 	call	1000f1d0 <__clzsi2>
1000e868:	113ffe04 	addi	r4,r2,-8
1000e86c:	00c007c4 	movi	r3,31
1000e870:	19007b16 	blt	r3,r4,1000ea60 <__subdf3+0x390>
1000e874:	00800804 	movi	r2,32
1000e878:	1105c83a 	sub	r2,r2,r4
1000e87c:	8884d83a 	srl	r2,r17,r2
1000e880:	9906983a 	sll	r3,r19,r4
1000e884:	8922983a 	sll	r17,r17,r4
1000e888:	10c4b03a 	or	r2,r2,r3
1000e88c:	24007816 	blt	r4,r16,1000ea70 <__subdf3+0x3a0>
1000e890:	2421c83a 	sub	r16,r4,r16
1000e894:	80c00044 	addi	r3,r16,1
1000e898:	010007c4 	movi	r4,31
1000e89c:	20c09516 	blt	r4,r3,1000eaf4 <__subdf3+0x424>
1000e8a0:	01400804 	movi	r5,32
1000e8a4:	28cbc83a 	sub	r5,r5,r3
1000e8a8:	88c8d83a 	srl	r4,r17,r3
1000e8ac:	8962983a 	sll	r17,r17,r5
1000e8b0:	114a983a 	sll	r5,r2,r5
1000e8b4:	10c6d83a 	srl	r3,r2,r3
1000e8b8:	8804c03a 	cmpne	r2,r17,zero
1000e8bc:	290ab03a 	or	r5,r5,r4
1000e8c0:	28a2b03a 	or	r17,r5,r2
1000e8c4:	0021883a 	mov	r16,zero
1000e8c8:	003fa206 	br	1000e754 <__alt_data_end+0xf800e754>
1000e8cc:	2090b03a 	or	r8,r4,r2
1000e8d0:	40018e26 	beq	r8,zero,1000ef0c <__subdf3+0x83c>
1000e8d4:	1007883a 	mov	r3,r2
1000e8d8:	2023883a 	mov	r17,r4
1000e8dc:	888001cc 	andi	r2,r17,7
1000e8e0:	103f9e1e 	bne	r2,zero,1000e75c <__alt_data_end+0xf800e75c>
1000e8e4:	1804977a 	slli	r2,r3,29
1000e8e8:	8822d0fa 	srli	r17,r17,3
1000e8ec:	1810d0fa 	srli	r8,r3,3
1000e8f0:	9100004c 	andi	r4,r18,1
1000e8f4:	1444b03a 	or	r2,r2,r17
1000e8f8:	00c1ffc4 	movi	r3,2047
1000e8fc:	80c02826 	beq	r16,r3,1000e9a0 <__subdf3+0x2d0>
1000e900:	01400434 	movhi	r5,16
1000e904:	297fffc4 	addi	r5,r5,-1
1000e908:	80e0703a 	and	r16,r16,r3
1000e90c:	414a703a 	and	r5,r8,r5
1000e910:	003fa806 	br	1000e7b4 <__alt_data_end+0xf800e7b4>
1000e914:	0080630e 	bge	zero,r2,1000eaa4 <__subdf3+0x3d4>
1000e918:	48003026 	beq	r9,zero,1000e9dc <__subdf3+0x30c>
1000e91c:	0101ffc4 	movi	r4,2047
1000e920:	813f8c26 	beq	r16,r4,1000e754 <__alt_data_end+0xf800e754>
1000e924:	29402034 	orhi	r5,r5,128
1000e928:	01000e04 	movi	r4,56
1000e92c:	2080a90e 	bge	r4,r2,1000ebd4 <__subdf3+0x504>
1000e930:	298cb03a 	or	r6,r5,r6
1000e934:	3012c03a 	cmpne	r9,r6,zero
1000e938:	0005883a 	mov	r2,zero
1000e93c:	4c53883a 	add	r9,r9,r17
1000e940:	4c63803a 	cmpltu	r17,r9,r17
1000e944:	10c7883a 	add	r3,r2,r3
1000e948:	88c7883a 	add	r3,r17,r3
1000e94c:	4823883a 	mov	r17,r9
1000e950:	1880202c 	andhi	r2,r3,128
1000e954:	1000d026 	beq	r2,zero,1000ec98 <__subdf3+0x5c8>
1000e958:	84000044 	addi	r16,r16,1
1000e95c:	0081ffc4 	movi	r2,2047
1000e960:	8080fe26 	beq	r16,r2,1000ed5c <__subdf3+0x68c>
1000e964:	00bfe034 	movhi	r2,65408
1000e968:	10bfffc4 	addi	r2,r2,-1
1000e96c:	1886703a 	and	r3,r3,r2
1000e970:	880ad07a 	srli	r5,r17,1
1000e974:	180497fa 	slli	r2,r3,31
1000e978:	8900004c 	andi	r4,r17,1
1000e97c:	2922b03a 	or	r17,r5,r4
1000e980:	1806d07a 	srli	r3,r3,1
1000e984:	1462b03a 	or	r17,r2,r17
1000e988:	3825883a 	mov	r18,r7
1000e98c:	003f7106 	br	1000e754 <__alt_data_end+0xf800e754>
1000e990:	2984b03a 	or	r2,r5,r6
1000e994:	103f6826 	beq	r2,zero,1000e738 <__alt_data_end+0xf800e738>
1000e998:	39c03fcc 	andi	r7,r7,255
1000e99c:	003f6706 	br	1000e73c <__alt_data_end+0xf800e73c>
1000e9a0:	4086b03a 	or	r3,r8,r2
1000e9a4:	18015226 	beq	r3,zero,1000eef0 <__subdf3+0x820>
1000e9a8:	00c00434 	movhi	r3,16
1000e9ac:	41400234 	orhi	r5,r8,8
1000e9b0:	18ffffc4 	addi	r3,r3,-1
1000e9b4:	28ca703a 	and	r5,r5,r3
1000e9b8:	003f7e06 	br	1000e7b4 <__alt_data_end+0xf800e7b4>
1000e9bc:	10bfffc4 	addi	r2,r2,-1
1000e9c0:	1000491e 	bne	r2,zero,1000eae8 <__subdf3+0x418>
1000e9c4:	898fc83a 	sub	r7,r17,r6
1000e9c8:	89e3803a 	cmpltu	r17,r17,r7
1000e9cc:	1947c83a 	sub	r3,r3,r5
1000e9d0:	1c47c83a 	sub	r3,r3,r17
1000e9d4:	3823883a 	mov	r17,r7
1000e9d8:	003f9b06 	br	1000e848 <__alt_data_end+0xf800e848>
1000e9dc:	2988b03a 	or	r4,r5,r6
1000e9e0:	203f5c26 	beq	r4,zero,1000e754 <__alt_data_end+0xf800e754>
1000e9e4:	10bfffc4 	addi	r2,r2,-1
1000e9e8:	1000931e 	bne	r2,zero,1000ec38 <__subdf3+0x568>
1000e9ec:	898d883a 	add	r6,r17,r6
1000e9f0:	3463803a 	cmpltu	r17,r6,r17
1000e9f4:	1947883a 	add	r3,r3,r5
1000e9f8:	88c7883a 	add	r3,r17,r3
1000e9fc:	3023883a 	mov	r17,r6
1000ea00:	003fd306 	br	1000e950 <__alt_data_end+0xf800e950>
1000ea04:	1000541e 	bne	r2,zero,1000eb58 <__subdf3+0x488>
1000ea08:	80800044 	addi	r2,r16,1
1000ea0c:	1081ffcc 	andi	r2,r2,2047
1000ea10:	01000044 	movi	r4,1
1000ea14:	2080a20e 	bge	r4,r2,1000eca0 <__subdf3+0x5d0>
1000ea18:	8989c83a 	sub	r4,r17,r6
1000ea1c:	8905803a 	cmpltu	r2,r17,r4
1000ea20:	1967c83a 	sub	r19,r3,r5
1000ea24:	98a7c83a 	sub	r19,r19,r2
1000ea28:	9880202c 	andhi	r2,r19,128
1000ea2c:	10006326 	beq	r2,zero,1000ebbc <__subdf3+0x4ec>
1000ea30:	3463c83a 	sub	r17,r6,r17
1000ea34:	28c7c83a 	sub	r3,r5,r3
1000ea38:	344d803a 	cmpltu	r6,r6,r17
1000ea3c:	19a7c83a 	sub	r19,r3,r6
1000ea40:	3825883a 	mov	r18,r7
1000ea44:	983f861e 	bne	r19,zero,1000e860 <__alt_data_end+0xf800e860>
1000ea48:	8809883a 	mov	r4,r17
1000ea4c:	000f1d00 	call	1000f1d0 <__clzsi2>
1000ea50:	10800804 	addi	r2,r2,32
1000ea54:	113ffe04 	addi	r4,r2,-8
1000ea58:	00c007c4 	movi	r3,31
1000ea5c:	193f850e 	bge	r3,r4,1000e874 <__alt_data_end+0xf800e874>
1000ea60:	10bff604 	addi	r2,r2,-40
1000ea64:	8884983a 	sll	r2,r17,r2
1000ea68:	0023883a 	mov	r17,zero
1000ea6c:	243f880e 	bge	r4,r16,1000e890 <__alt_data_end+0xf800e890>
1000ea70:	00ffe034 	movhi	r3,65408
1000ea74:	18ffffc4 	addi	r3,r3,-1
1000ea78:	8121c83a 	sub	r16,r16,r4
1000ea7c:	10c6703a 	and	r3,r2,r3
1000ea80:	003f3406 	br	1000e754 <__alt_data_end+0xf800e754>
1000ea84:	9100004c 	andi	r4,r18,1
1000ea88:	000b883a 	mov	r5,zero
1000ea8c:	0005883a 	mov	r2,zero
1000ea90:	003f4806 	br	1000e7b4 <__alt_data_end+0xf800e7b4>
1000ea94:	298cb03a 	or	r6,r5,r6
1000ea98:	300cc03a 	cmpne	r6,r6,zero
1000ea9c:	0005883a 	mov	r2,zero
1000eaa0:	003f6406 	br	1000e834 <__alt_data_end+0xf800e834>
1000eaa4:	10009a1e 	bne	r2,zero,1000ed10 <__subdf3+0x640>
1000eaa8:	82400044 	addi	r9,r16,1
1000eaac:	4881ffcc 	andi	r2,r9,2047
1000eab0:	02800044 	movi	r10,1
1000eab4:	5080670e 	bge	r10,r2,1000ec54 <__subdf3+0x584>
1000eab8:	0081ffc4 	movi	r2,2047
1000eabc:	4880af26 	beq	r9,r2,1000ed7c <__subdf3+0x6ac>
1000eac0:	898d883a 	add	r6,r17,r6
1000eac4:	1945883a 	add	r2,r3,r5
1000eac8:	3447803a 	cmpltu	r3,r6,r17
1000eacc:	1887883a 	add	r3,r3,r2
1000ead0:	182297fa 	slli	r17,r3,31
1000ead4:	300cd07a 	srli	r6,r6,1
1000ead8:	1806d07a 	srli	r3,r3,1
1000eadc:	4821883a 	mov	r16,r9
1000eae0:	89a2b03a 	or	r17,r17,r6
1000eae4:	003f1b06 	br	1000e754 <__alt_data_end+0xf800e754>
1000eae8:	0101ffc4 	movi	r4,2047
1000eaec:	813f441e 	bne	r16,r4,1000e800 <__alt_data_end+0xf800e800>
1000eaf0:	003f1806 	br	1000e754 <__alt_data_end+0xf800e754>
1000eaf4:	843ff844 	addi	r16,r16,-31
1000eaf8:	01400804 	movi	r5,32
1000eafc:	1408d83a 	srl	r4,r2,r16
1000eb00:	19405026 	beq	r3,r5,1000ec44 <__subdf3+0x574>
1000eb04:	01401004 	movi	r5,64
1000eb08:	28c7c83a 	sub	r3,r5,r3
1000eb0c:	10c4983a 	sll	r2,r2,r3
1000eb10:	88a2b03a 	or	r17,r17,r2
1000eb14:	8822c03a 	cmpne	r17,r17,zero
1000eb18:	2462b03a 	or	r17,r4,r17
1000eb1c:	0007883a 	mov	r3,zero
1000eb20:	0021883a 	mov	r16,zero
1000eb24:	003f6d06 	br	1000e8dc <__alt_data_end+0xf800e8dc>
1000eb28:	11fff804 	addi	r7,r2,-32
1000eb2c:	01000804 	movi	r4,32
1000eb30:	29ced83a 	srl	r7,r5,r7
1000eb34:	11004526 	beq	r2,r4,1000ec4c <__subdf3+0x57c>
1000eb38:	01001004 	movi	r4,64
1000eb3c:	2089c83a 	sub	r4,r4,r2
1000eb40:	2904983a 	sll	r2,r5,r4
1000eb44:	118cb03a 	or	r6,r2,r6
1000eb48:	300cc03a 	cmpne	r6,r6,zero
1000eb4c:	398cb03a 	or	r6,r7,r6
1000eb50:	0005883a 	mov	r2,zero
1000eb54:	003f3706 	br	1000e834 <__alt_data_end+0xf800e834>
1000eb58:	80002a26 	beq	r16,zero,1000ec04 <__subdf3+0x534>
1000eb5c:	0101ffc4 	movi	r4,2047
1000eb60:	49006626 	beq	r9,r4,1000ecfc <__subdf3+0x62c>
1000eb64:	0085c83a 	sub	r2,zero,r2
1000eb68:	18c02034 	orhi	r3,r3,128
1000eb6c:	01000e04 	movi	r4,56
1000eb70:	20807e16 	blt	r4,r2,1000ed6c <__subdf3+0x69c>
1000eb74:	010007c4 	movi	r4,31
1000eb78:	2080e716 	blt	r4,r2,1000ef18 <__subdf3+0x848>
1000eb7c:	01000804 	movi	r4,32
1000eb80:	2089c83a 	sub	r4,r4,r2
1000eb84:	1914983a 	sll	r10,r3,r4
1000eb88:	8890d83a 	srl	r8,r17,r2
1000eb8c:	8908983a 	sll	r4,r17,r4
1000eb90:	1884d83a 	srl	r2,r3,r2
1000eb94:	5222b03a 	or	r17,r10,r8
1000eb98:	2006c03a 	cmpne	r3,r4,zero
1000eb9c:	88e2b03a 	or	r17,r17,r3
1000eba0:	3463c83a 	sub	r17,r6,r17
1000eba4:	2885c83a 	sub	r2,r5,r2
1000eba8:	344d803a 	cmpltu	r6,r6,r17
1000ebac:	1187c83a 	sub	r3,r2,r6
1000ebb0:	4821883a 	mov	r16,r9
1000ebb4:	3825883a 	mov	r18,r7
1000ebb8:	003f2306 	br	1000e848 <__alt_data_end+0xf800e848>
1000ebbc:	24d0b03a 	or	r8,r4,r19
1000ebc0:	40001b1e 	bne	r8,zero,1000ec30 <__subdf3+0x560>
1000ebc4:	0005883a 	mov	r2,zero
1000ebc8:	0009883a 	mov	r4,zero
1000ebcc:	0021883a 	mov	r16,zero
1000ebd0:	003f4906 	br	1000e8f8 <__alt_data_end+0xf800e8f8>
1000ebd4:	010007c4 	movi	r4,31
1000ebd8:	20803a16 	blt	r4,r2,1000ecc4 <__subdf3+0x5f4>
1000ebdc:	01000804 	movi	r4,32
1000ebe0:	2089c83a 	sub	r4,r4,r2
1000ebe4:	2912983a 	sll	r9,r5,r4
1000ebe8:	3090d83a 	srl	r8,r6,r2
1000ebec:	3108983a 	sll	r4,r6,r4
1000ebf0:	2884d83a 	srl	r2,r5,r2
1000ebf4:	4a12b03a 	or	r9,r9,r8
1000ebf8:	2008c03a 	cmpne	r4,r4,zero
1000ebfc:	4912b03a 	or	r9,r9,r4
1000ec00:	003f4e06 	br	1000e93c <__alt_data_end+0xf800e93c>
1000ec04:	1c48b03a 	or	r4,r3,r17
1000ec08:	20003c26 	beq	r4,zero,1000ecfc <__subdf3+0x62c>
1000ec0c:	0084303a 	nor	r2,zero,r2
1000ec10:	1000381e 	bne	r2,zero,1000ecf4 <__subdf3+0x624>
1000ec14:	3463c83a 	sub	r17,r6,r17
1000ec18:	28c5c83a 	sub	r2,r5,r3
1000ec1c:	344d803a 	cmpltu	r6,r6,r17
1000ec20:	1187c83a 	sub	r3,r2,r6
1000ec24:	4821883a 	mov	r16,r9
1000ec28:	3825883a 	mov	r18,r7
1000ec2c:	003f0606 	br	1000e848 <__alt_data_end+0xf800e848>
1000ec30:	2023883a 	mov	r17,r4
1000ec34:	003f0906 	br	1000e85c <__alt_data_end+0xf800e85c>
1000ec38:	0101ffc4 	movi	r4,2047
1000ec3c:	813f3a1e 	bne	r16,r4,1000e928 <__alt_data_end+0xf800e928>
1000ec40:	003ec406 	br	1000e754 <__alt_data_end+0xf800e754>
1000ec44:	0005883a 	mov	r2,zero
1000ec48:	003fb106 	br	1000eb10 <__alt_data_end+0xf800eb10>
1000ec4c:	0005883a 	mov	r2,zero
1000ec50:	003fbc06 	br	1000eb44 <__alt_data_end+0xf800eb44>
1000ec54:	1c44b03a 	or	r2,r3,r17
1000ec58:	80008e1e 	bne	r16,zero,1000ee94 <__subdf3+0x7c4>
1000ec5c:	1000c826 	beq	r2,zero,1000ef80 <__subdf3+0x8b0>
1000ec60:	2984b03a 	or	r2,r5,r6
1000ec64:	103ebb26 	beq	r2,zero,1000e754 <__alt_data_end+0xf800e754>
1000ec68:	8989883a 	add	r4,r17,r6
1000ec6c:	1945883a 	add	r2,r3,r5
1000ec70:	2447803a 	cmpltu	r3,r4,r17
1000ec74:	1887883a 	add	r3,r3,r2
1000ec78:	1880202c 	andhi	r2,r3,128
1000ec7c:	2023883a 	mov	r17,r4
1000ec80:	103f1626 	beq	r2,zero,1000e8dc <__alt_data_end+0xf800e8dc>
1000ec84:	00bfe034 	movhi	r2,65408
1000ec88:	10bfffc4 	addi	r2,r2,-1
1000ec8c:	5021883a 	mov	r16,r10
1000ec90:	1886703a 	and	r3,r3,r2
1000ec94:	003eaf06 	br	1000e754 <__alt_data_end+0xf800e754>
1000ec98:	3825883a 	mov	r18,r7
1000ec9c:	003f0f06 	br	1000e8dc <__alt_data_end+0xf800e8dc>
1000eca0:	1c44b03a 	or	r2,r3,r17
1000eca4:	8000251e 	bne	r16,zero,1000ed3c <__subdf3+0x66c>
1000eca8:	1000661e 	bne	r2,zero,1000ee44 <__subdf3+0x774>
1000ecac:	2990b03a 	or	r8,r5,r6
1000ecb0:	40009626 	beq	r8,zero,1000ef0c <__subdf3+0x83c>
1000ecb4:	2807883a 	mov	r3,r5
1000ecb8:	3023883a 	mov	r17,r6
1000ecbc:	3825883a 	mov	r18,r7
1000ecc0:	003ea406 	br	1000e754 <__alt_data_end+0xf800e754>
1000ecc4:	127ff804 	addi	r9,r2,-32
1000ecc8:	01000804 	movi	r4,32
1000eccc:	2a52d83a 	srl	r9,r5,r9
1000ecd0:	11008c26 	beq	r2,r4,1000ef04 <__subdf3+0x834>
1000ecd4:	01001004 	movi	r4,64
1000ecd8:	2085c83a 	sub	r2,r4,r2
1000ecdc:	2884983a 	sll	r2,r5,r2
1000ece0:	118cb03a 	or	r6,r2,r6
1000ece4:	300cc03a 	cmpne	r6,r6,zero
1000ece8:	4992b03a 	or	r9,r9,r6
1000ecec:	0005883a 	mov	r2,zero
1000ecf0:	003f1206 	br	1000e93c <__alt_data_end+0xf800e93c>
1000ecf4:	0101ffc4 	movi	r4,2047
1000ecf8:	493f9c1e 	bne	r9,r4,1000eb6c <__alt_data_end+0xf800eb6c>
1000ecfc:	2807883a 	mov	r3,r5
1000ed00:	3023883a 	mov	r17,r6
1000ed04:	4821883a 	mov	r16,r9
1000ed08:	3825883a 	mov	r18,r7
1000ed0c:	003e9106 	br	1000e754 <__alt_data_end+0xf800e754>
1000ed10:	80001f1e 	bne	r16,zero,1000ed90 <__subdf3+0x6c0>
1000ed14:	1c48b03a 	or	r4,r3,r17
1000ed18:	20005a26 	beq	r4,zero,1000ee84 <__subdf3+0x7b4>
1000ed1c:	0084303a 	nor	r2,zero,r2
1000ed20:	1000561e 	bne	r2,zero,1000ee7c <__subdf3+0x7ac>
1000ed24:	89a3883a 	add	r17,r17,r6
1000ed28:	1945883a 	add	r2,r3,r5
1000ed2c:	898d803a 	cmpltu	r6,r17,r6
1000ed30:	3087883a 	add	r3,r6,r2
1000ed34:	4821883a 	mov	r16,r9
1000ed38:	003f0506 	br	1000e950 <__alt_data_end+0xf800e950>
1000ed3c:	10002b1e 	bne	r2,zero,1000edec <__subdf3+0x71c>
1000ed40:	2984b03a 	or	r2,r5,r6
1000ed44:	10008026 	beq	r2,zero,1000ef48 <__subdf3+0x878>
1000ed48:	2807883a 	mov	r3,r5
1000ed4c:	3023883a 	mov	r17,r6
1000ed50:	3825883a 	mov	r18,r7
1000ed54:	0401ffc4 	movi	r16,2047
1000ed58:	003e7e06 	br	1000e754 <__alt_data_end+0xf800e754>
1000ed5c:	3809883a 	mov	r4,r7
1000ed60:	0011883a 	mov	r8,zero
1000ed64:	0005883a 	mov	r2,zero
1000ed68:	003ee306 	br	1000e8f8 <__alt_data_end+0xf800e8f8>
1000ed6c:	1c62b03a 	or	r17,r3,r17
1000ed70:	8822c03a 	cmpne	r17,r17,zero
1000ed74:	0005883a 	mov	r2,zero
1000ed78:	003f8906 	br	1000eba0 <__alt_data_end+0xf800eba0>
1000ed7c:	3809883a 	mov	r4,r7
1000ed80:	4821883a 	mov	r16,r9
1000ed84:	0011883a 	mov	r8,zero
1000ed88:	0005883a 	mov	r2,zero
1000ed8c:	003eda06 	br	1000e8f8 <__alt_data_end+0xf800e8f8>
1000ed90:	0101ffc4 	movi	r4,2047
1000ed94:	49003b26 	beq	r9,r4,1000ee84 <__subdf3+0x7b4>
1000ed98:	0085c83a 	sub	r2,zero,r2
1000ed9c:	18c02034 	orhi	r3,r3,128
1000eda0:	01000e04 	movi	r4,56
1000eda4:	20806e16 	blt	r4,r2,1000ef60 <__subdf3+0x890>
1000eda8:	010007c4 	movi	r4,31
1000edac:	20807716 	blt	r4,r2,1000ef8c <__subdf3+0x8bc>
1000edb0:	01000804 	movi	r4,32
1000edb4:	2089c83a 	sub	r4,r4,r2
1000edb8:	1914983a 	sll	r10,r3,r4
1000edbc:	8890d83a 	srl	r8,r17,r2
1000edc0:	8908983a 	sll	r4,r17,r4
1000edc4:	1884d83a 	srl	r2,r3,r2
1000edc8:	5222b03a 	or	r17,r10,r8
1000edcc:	2006c03a 	cmpne	r3,r4,zero
1000edd0:	88e2b03a 	or	r17,r17,r3
1000edd4:	89a3883a 	add	r17,r17,r6
1000edd8:	1145883a 	add	r2,r2,r5
1000eddc:	898d803a 	cmpltu	r6,r17,r6
1000ede0:	3087883a 	add	r3,r6,r2
1000ede4:	4821883a 	mov	r16,r9
1000ede8:	003ed906 	br	1000e950 <__alt_data_end+0xf800e950>
1000edec:	2984b03a 	or	r2,r5,r6
1000edf0:	10004226 	beq	r2,zero,1000eefc <__subdf3+0x82c>
1000edf4:	1808d0fa 	srli	r4,r3,3
1000edf8:	8822d0fa 	srli	r17,r17,3
1000edfc:	1806977a 	slli	r3,r3,29
1000ee00:	2080022c 	andhi	r2,r4,8
1000ee04:	1c62b03a 	or	r17,r3,r17
1000ee08:	10000826 	beq	r2,zero,1000ee2c <__subdf3+0x75c>
1000ee0c:	2812d0fa 	srli	r9,r5,3
1000ee10:	4880022c 	andhi	r2,r9,8
1000ee14:	1000051e 	bne	r2,zero,1000ee2c <__subdf3+0x75c>
1000ee18:	300cd0fa 	srli	r6,r6,3
1000ee1c:	2804977a 	slli	r2,r5,29
1000ee20:	4809883a 	mov	r4,r9
1000ee24:	3825883a 	mov	r18,r7
1000ee28:	11a2b03a 	or	r17,r2,r6
1000ee2c:	8806d77a 	srli	r3,r17,29
1000ee30:	200890fa 	slli	r4,r4,3
1000ee34:	882290fa 	slli	r17,r17,3
1000ee38:	0401ffc4 	movi	r16,2047
1000ee3c:	1906b03a 	or	r3,r3,r4
1000ee40:	003e4406 	br	1000e754 <__alt_data_end+0xf800e754>
1000ee44:	2984b03a 	or	r2,r5,r6
1000ee48:	103e4226 	beq	r2,zero,1000e754 <__alt_data_end+0xf800e754>
1000ee4c:	8989c83a 	sub	r4,r17,r6
1000ee50:	8911803a 	cmpltu	r8,r17,r4
1000ee54:	1945c83a 	sub	r2,r3,r5
1000ee58:	1205c83a 	sub	r2,r2,r8
1000ee5c:	1200202c 	andhi	r8,r2,128
1000ee60:	403e9a26 	beq	r8,zero,1000e8cc <__alt_data_end+0xf800e8cc>
1000ee64:	3463c83a 	sub	r17,r6,r17
1000ee68:	28c5c83a 	sub	r2,r5,r3
1000ee6c:	344d803a 	cmpltu	r6,r6,r17
1000ee70:	1187c83a 	sub	r3,r2,r6
1000ee74:	3825883a 	mov	r18,r7
1000ee78:	003e3606 	br	1000e754 <__alt_data_end+0xf800e754>
1000ee7c:	0101ffc4 	movi	r4,2047
1000ee80:	493fc71e 	bne	r9,r4,1000eda0 <__alt_data_end+0xf800eda0>
1000ee84:	2807883a 	mov	r3,r5
1000ee88:	3023883a 	mov	r17,r6
1000ee8c:	4821883a 	mov	r16,r9
1000ee90:	003e3006 	br	1000e754 <__alt_data_end+0xf800e754>
1000ee94:	10003626 	beq	r2,zero,1000ef70 <__subdf3+0x8a0>
1000ee98:	2984b03a 	or	r2,r5,r6
1000ee9c:	10001726 	beq	r2,zero,1000eefc <__subdf3+0x82c>
1000eea0:	1808d0fa 	srli	r4,r3,3
1000eea4:	8822d0fa 	srli	r17,r17,3
1000eea8:	1806977a 	slli	r3,r3,29
1000eeac:	2080022c 	andhi	r2,r4,8
1000eeb0:	1c62b03a 	or	r17,r3,r17
1000eeb4:	10000726 	beq	r2,zero,1000eed4 <__subdf3+0x804>
1000eeb8:	2812d0fa 	srli	r9,r5,3
1000eebc:	4880022c 	andhi	r2,r9,8
1000eec0:	1000041e 	bne	r2,zero,1000eed4 <__subdf3+0x804>
1000eec4:	300cd0fa 	srli	r6,r6,3
1000eec8:	2804977a 	slli	r2,r5,29
1000eecc:	4809883a 	mov	r4,r9
1000eed0:	11a2b03a 	or	r17,r2,r6
1000eed4:	8806d77a 	srli	r3,r17,29
1000eed8:	200890fa 	slli	r4,r4,3
1000eedc:	882290fa 	slli	r17,r17,3
1000eee0:	3825883a 	mov	r18,r7
1000eee4:	1906b03a 	or	r3,r3,r4
1000eee8:	0401ffc4 	movi	r16,2047
1000eeec:	003e1906 	br	1000e754 <__alt_data_end+0xf800e754>
1000eef0:	000b883a 	mov	r5,zero
1000eef4:	0005883a 	mov	r2,zero
1000eef8:	003e2e06 	br	1000e7b4 <__alt_data_end+0xf800e7b4>
1000eefc:	0401ffc4 	movi	r16,2047
1000ef00:	003e1406 	br	1000e754 <__alt_data_end+0xf800e754>
1000ef04:	0005883a 	mov	r2,zero
1000ef08:	003f7506 	br	1000ece0 <__alt_data_end+0xf800ece0>
1000ef0c:	0005883a 	mov	r2,zero
1000ef10:	0009883a 	mov	r4,zero
1000ef14:	003e7806 	br	1000e8f8 <__alt_data_end+0xf800e8f8>
1000ef18:	123ff804 	addi	r8,r2,-32
1000ef1c:	01000804 	movi	r4,32
1000ef20:	1a10d83a 	srl	r8,r3,r8
1000ef24:	11002526 	beq	r2,r4,1000efbc <__subdf3+0x8ec>
1000ef28:	01001004 	movi	r4,64
1000ef2c:	2085c83a 	sub	r2,r4,r2
1000ef30:	1884983a 	sll	r2,r3,r2
1000ef34:	1444b03a 	or	r2,r2,r17
1000ef38:	1004c03a 	cmpne	r2,r2,zero
1000ef3c:	40a2b03a 	or	r17,r8,r2
1000ef40:	0005883a 	mov	r2,zero
1000ef44:	003f1606 	br	1000eba0 <__alt_data_end+0xf800eba0>
1000ef48:	02000434 	movhi	r8,16
1000ef4c:	0009883a 	mov	r4,zero
1000ef50:	423fffc4 	addi	r8,r8,-1
1000ef54:	00bfffc4 	movi	r2,-1
1000ef58:	0401ffc4 	movi	r16,2047
1000ef5c:	003e6606 	br	1000e8f8 <__alt_data_end+0xf800e8f8>
1000ef60:	1c62b03a 	or	r17,r3,r17
1000ef64:	8822c03a 	cmpne	r17,r17,zero
1000ef68:	0005883a 	mov	r2,zero
1000ef6c:	003f9906 	br	1000edd4 <__alt_data_end+0xf800edd4>
1000ef70:	2807883a 	mov	r3,r5
1000ef74:	3023883a 	mov	r17,r6
1000ef78:	0401ffc4 	movi	r16,2047
1000ef7c:	003df506 	br	1000e754 <__alt_data_end+0xf800e754>
1000ef80:	2807883a 	mov	r3,r5
1000ef84:	3023883a 	mov	r17,r6
1000ef88:	003df206 	br	1000e754 <__alt_data_end+0xf800e754>
1000ef8c:	123ff804 	addi	r8,r2,-32
1000ef90:	01000804 	movi	r4,32
1000ef94:	1a10d83a 	srl	r8,r3,r8
1000ef98:	11000a26 	beq	r2,r4,1000efc4 <__subdf3+0x8f4>
1000ef9c:	01001004 	movi	r4,64
1000efa0:	2085c83a 	sub	r2,r4,r2
1000efa4:	1884983a 	sll	r2,r3,r2
1000efa8:	1444b03a 	or	r2,r2,r17
1000efac:	1004c03a 	cmpne	r2,r2,zero
1000efb0:	40a2b03a 	or	r17,r8,r2
1000efb4:	0005883a 	mov	r2,zero
1000efb8:	003f8606 	br	1000edd4 <__alt_data_end+0xf800edd4>
1000efbc:	0005883a 	mov	r2,zero
1000efc0:	003fdc06 	br	1000ef34 <__alt_data_end+0xf800ef34>
1000efc4:	0005883a 	mov	r2,zero
1000efc8:	003ff706 	br	1000efa8 <__alt_data_end+0xf800efa8>

1000efcc <__fixdfsi>:
1000efcc:	280cd53a 	srli	r6,r5,20
1000efd0:	00c00434 	movhi	r3,16
1000efd4:	18ffffc4 	addi	r3,r3,-1
1000efd8:	3181ffcc 	andi	r6,r6,2047
1000efdc:	01c0ff84 	movi	r7,1022
1000efe0:	28c6703a 	and	r3,r5,r3
1000efe4:	280ad7fa 	srli	r5,r5,31
1000efe8:	3980120e 	bge	r7,r6,1000f034 <__fixdfsi+0x68>
1000efec:	00810744 	movi	r2,1053
1000eff0:	11800c16 	blt	r2,r6,1000f024 <__fixdfsi+0x58>
1000eff4:	00810cc4 	movi	r2,1075
1000eff8:	1185c83a 	sub	r2,r2,r6
1000effc:	01c007c4 	movi	r7,31
1000f000:	18c00434 	orhi	r3,r3,16
1000f004:	38800d16 	blt	r7,r2,1000f03c <__fixdfsi+0x70>
1000f008:	31befb44 	addi	r6,r6,-1043
1000f00c:	2084d83a 	srl	r2,r4,r2
1000f010:	1986983a 	sll	r3,r3,r6
1000f014:	1884b03a 	or	r2,r3,r2
1000f018:	28000726 	beq	r5,zero,1000f038 <__fixdfsi+0x6c>
1000f01c:	0085c83a 	sub	r2,zero,r2
1000f020:	f800283a 	ret
1000f024:	00a00034 	movhi	r2,32768
1000f028:	10bfffc4 	addi	r2,r2,-1
1000f02c:	2885883a 	add	r2,r5,r2
1000f030:	f800283a 	ret
1000f034:	0005883a 	mov	r2,zero
1000f038:	f800283a 	ret
1000f03c:	008104c4 	movi	r2,1043
1000f040:	1185c83a 	sub	r2,r2,r6
1000f044:	1884d83a 	srl	r2,r3,r2
1000f048:	003ff306 	br	1000f018 <__alt_data_end+0xf800f018>

1000f04c <__floatsidf>:
1000f04c:	defffd04 	addi	sp,sp,-12
1000f050:	dfc00215 	stw	ra,8(sp)
1000f054:	dc400115 	stw	r17,4(sp)
1000f058:	dc000015 	stw	r16,0(sp)
1000f05c:	20002b26 	beq	r4,zero,1000f10c <__floatsidf+0xc0>
1000f060:	2023883a 	mov	r17,r4
1000f064:	2020d7fa 	srli	r16,r4,31
1000f068:	20002d16 	blt	r4,zero,1000f120 <__floatsidf+0xd4>
1000f06c:	8809883a 	mov	r4,r17
1000f070:	000f1d00 	call	1000f1d0 <__clzsi2>
1000f074:	01410784 	movi	r5,1054
1000f078:	288bc83a 	sub	r5,r5,r2
1000f07c:	01010cc4 	movi	r4,1075
1000f080:	2149c83a 	sub	r4,r4,r5
1000f084:	00c007c4 	movi	r3,31
1000f088:	1900160e 	bge	r3,r4,1000f0e4 <__floatsidf+0x98>
1000f08c:	00c104c4 	movi	r3,1043
1000f090:	1947c83a 	sub	r3,r3,r5
1000f094:	88c6983a 	sll	r3,r17,r3
1000f098:	00800434 	movhi	r2,16
1000f09c:	10bfffc4 	addi	r2,r2,-1
1000f0a0:	1886703a 	and	r3,r3,r2
1000f0a4:	2941ffcc 	andi	r5,r5,2047
1000f0a8:	800d883a 	mov	r6,r16
1000f0ac:	0005883a 	mov	r2,zero
1000f0b0:	280a953a 	slli	r5,r5,20
1000f0b4:	31803fcc 	andi	r6,r6,255
1000f0b8:	01000434 	movhi	r4,16
1000f0bc:	300c97fa 	slli	r6,r6,31
1000f0c0:	213fffc4 	addi	r4,r4,-1
1000f0c4:	1906703a 	and	r3,r3,r4
1000f0c8:	1946b03a 	or	r3,r3,r5
1000f0cc:	1986b03a 	or	r3,r3,r6
1000f0d0:	dfc00217 	ldw	ra,8(sp)
1000f0d4:	dc400117 	ldw	r17,4(sp)
1000f0d8:	dc000017 	ldw	r16,0(sp)
1000f0dc:	dec00304 	addi	sp,sp,12
1000f0e0:	f800283a 	ret
1000f0e4:	00c002c4 	movi	r3,11
1000f0e8:	1887c83a 	sub	r3,r3,r2
1000f0ec:	88c6d83a 	srl	r3,r17,r3
1000f0f0:	8904983a 	sll	r2,r17,r4
1000f0f4:	01000434 	movhi	r4,16
1000f0f8:	213fffc4 	addi	r4,r4,-1
1000f0fc:	2941ffcc 	andi	r5,r5,2047
1000f100:	1906703a 	and	r3,r3,r4
1000f104:	800d883a 	mov	r6,r16
1000f108:	003fe906 	br	1000f0b0 <__alt_data_end+0xf800f0b0>
1000f10c:	000d883a 	mov	r6,zero
1000f110:	000b883a 	mov	r5,zero
1000f114:	0007883a 	mov	r3,zero
1000f118:	0005883a 	mov	r2,zero
1000f11c:	003fe406 	br	1000f0b0 <__alt_data_end+0xf800f0b0>
1000f120:	0123c83a 	sub	r17,zero,r4
1000f124:	003fd106 	br	1000f06c <__alt_data_end+0xf800f06c>

1000f128 <__floatunsidf>:
1000f128:	defffe04 	addi	sp,sp,-8
1000f12c:	dc000015 	stw	r16,0(sp)
1000f130:	dfc00115 	stw	ra,4(sp)
1000f134:	2021883a 	mov	r16,r4
1000f138:	20002226 	beq	r4,zero,1000f1c4 <__floatunsidf+0x9c>
1000f13c:	000f1d00 	call	1000f1d0 <__clzsi2>
1000f140:	01010784 	movi	r4,1054
1000f144:	2089c83a 	sub	r4,r4,r2
1000f148:	01810cc4 	movi	r6,1075
1000f14c:	310dc83a 	sub	r6,r6,r4
1000f150:	00c007c4 	movi	r3,31
1000f154:	1980120e 	bge	r3,r6,1000f1a0 <__floatunsidf+0x78>
1000f158:	00c104c4 	movi	r3,1043
1000f15c:	1907c83a 	sub	r3,r3,r4
1000f160:	80ca983a 	sll	r5,r16,r3
1000f164:	00800434 	movhi	r2,16
1000f168:	10bfffc4 	addi	r2,r2,-1
1000f16c:	2101ffcc 	andi	r4,r4,2047
1000f170:	0021883a 	mov	r16,zero
1000f174:	288a703a 	and	r5,r5,r2
1000f178:	2008953a 	slli	r4,r4,20
1000f17c:	00c00434 	movhi	r3,16
1000f180:	18ffffc4 	addi	r3,r3,-1
1000f184:	28c6703a 	and	r3,r5,r3
1000f188:	8005883a 	mov	r2,r16
1000f18c:	1906b03a 	or	r3,r3,r4
1000f190:	dfc00117 	ldw	ra,4(sp)
1000f194:	dc000017 	ldw	r16,0(sp)
1000f198:	dec00204 	addi	sp,sp,8
1000f19c:	f800283a 	ret
1000f1a0:	00c002c4 	movi	r3,11
1000f1a4:	188bc83a 	sub	r5,r3,r2
1000f1a8:	814ad83a 	srl	r5,r16,r5
1000f1ac:	00c00434 	movhi	r3,16
1000f1b0:	18ffffc4 	addi	r3,r3,-1
1000f1b4:	81a0983a 	sll	r16,r16,r6
1000f1b8:	2101ffcc 	andi	r4,r4,2047
1000f1bc:	28ca703a 	and	r5,r5,r3
1000f1c0:	003fed06 	br	1000f178 <__alt_data_end+0xf800f178>
1000f1c4:	0009883a 	mov	r4,zero
1000f1c8:	000b883a 	mov	r5,zero
1000f1cc:	003fea06 	br	1000f178 <__alt_data_end+0xf800f178>

1000f1d0 <__clzsi2>:
1000f1d0:	00bfffd4 	movui	r2,65535
1000f1d4:	11000536 	bltu	r2,r4,1000f1ec <__clzsi2+0x1c>
1000f1d8:	00803fc4 	movi	r2,255
1000f1dc:	11000f36 	bltu	r2,r4,1000f21c <__clzsi2+0x4c>
1000f1e0:	00800804 	movi	r2,32
1000f1e4:	0007883a 	mov	r3,zero
1000f1e8:	00000506 	br	1000f200 <__clzsi2+0x30>
1000f1ec:	00804034 	movhi	r2,256
1000f1f0:	10bfffc4 	addi	r2,r2,-1
1000f1f4:	11000c2e 	bgeu	r2,r4,1000f228 <__clzsi2+0x58>
1000f1f8:	00800204 	movi	r2,8
1000f1fc:	00c00604 	movi	r3,24
1000f200:	20c8d83a 	srl	r4,r4,r3
1000f204:	00c40074 	movhi	r3,4097
1000f208:	18c8f104 	addi	r3,r3,9156
1000f20c:	1909883a 	add	r4,r3,r4
1000f210:	20c00003 	ldbu	r3,0(r4)
1000f214:	10c5c83a 	sub	r2,r2,r3
1000f218:	f800283a 	ret
1000f21c:	00800604 	movi	r2,24
1000f220:	00c00204 	movi	r3,8
1000f224:	003ff606 	br	1000f200 <__alt_data_end+0xf800f200>
1000f228:	00800404 	movi	r2,16
1000f22c:	1007883a 	mov	r3,r2
1000f230:	003ff306 	br	1000f200 <__alt_data_end+0xf800f200>

1000f234 <alt_get_errno>:
#undef errno

extern int errno;

static ALT_INLINE int* alt_get_errno(void)
{
1000f234:	defffe04 	addi	sp,sp,-8
1000f238:	dfc00115 	stw	ra,4(sp)
1000f23c:	df000015 	stw	fp,0(sp)
1000f240:	d839883a 	mov	fp,sp
  return ((alt_errno) ? alt_errno() : &errno);
1000f244:	d0a00b17 	ldw	r2,-32724(gp)
1000f248:	10000326 	beq	r2,zero,1000f258 <alt_get_errno+0x24>
1000f24c:	d0a00b17 	ldw	r2,-32724(gp)
1000f250:	103ee83a 	callr	r2
1000f254:	00000106 	br	1000f25c <alt_get_errno+0x28>
1000f258:	d0a6d204 	addi	r2,gp,-25784
}
1000f25c:	e037883a 	mov	sp,fp
1000f260:	dfc00117 	ldw	ra,4(sp)
1000f264:	df000017 	ldw	fp,0(sp)
1000f268:	dec00204 	addi	sp,sp,8
1000f26c:	f800283a 	ret

1000f270 <close>:
 *
 * ALT_CLOSE is mapped onto the close() system call in alt_syscall.h
 */
 
int ALT_CLOSE (int fildes)
{
1000f270:	defffb04 	addi	sp,sp,-20
1000f274:	dfc00415 	stw	ra,16(sp)
1000f278:	df000315 	stw	fp,12(sp)
1000f27c:	df000304 	addi	fp,sp,12
1000f280:	e13fff15 	stw	r4,-4(fp)
   * A common error case is that when the file descriptor was created, the call
   * to open() failed resulting in a negative file descriptor. This is trapped
   * below so that we don't try and process an invalid file descriptor.
   */

  fd = (fildes < 0) ? NULL : &alt_fd_list[fildes];
1000f284:	e0bfff17 	ldw	r2,-4(fp)
1000f288:	10000816 	blt	r2,zero,1000f2ac <close+0x3c>
1000f28c:	01400304 	movi	r5,12
1000f290:	e13fff17 	ldw	r4,-4(fp)
1000f294:	000c9680 	call	1000c968 <__mulsi3>
1000f298:	1007883a 	mov	r3,r2
1000f29c:	00840074 	movhi	r2,4097
1000f2a0:	108b7104 	addi	r2,r2,11716
1000f2a4:	1885883a 	add	r2,r3,r2
1000f2a8:	00000106 	br	1000f2b0 <close+0x40>
1000f2ac:	0005883a 	mov	r2,zero
1000f2b0:	e0bffd15 	stw	r2,-12(fp)

  if (fd)
1000f2b4:	e0bffd17 	ldw	r2,-12(fp)
1000f2b8:	10001926 	beq	r2,zero,1000f320 <close+0xb0>
    /*
     * If the associated file system/device has a close function, call it so 
     * that any necessary cleanup code can run.
     */

    rval = (fd->dev->close) ? fd->dev->close(fd) : 0;
1000f2bc:	e0bffd17 	ldw	r2,-12(fp)
1000f2c0:	10800017 	ldw	r2,0(r2)
1000f2c4:	10800417 	ldw	r2,16(r2)
1000f2c8:	10000626 	beq	r2,zero,1000f2e4 <close+0x74>
1000f2cc:	e0bffd17 	ldw	r2,-12(fp)
1000f2d0:	10800017 	ldw	r2,0(r2)
1000f2d4:	10800417 	ldw	r2,16(r2)
1000f2d8:	e13ffd17 	ldw	r4,-12(fp)
1000f2dc:	103ee83a 	callr	r2
1000f2e0:	00000106 	br	1000f2e8 <close+0x78>
1000f2e4:	0005883a 	mov	r2,zero
1000f2e8:	e0bffe15 	stw	r2,-8(fp)

    /* Free the file descriptor structure and return. */

    alt_release_fd (fildes);
1000f2ec:	e13fff17 	ldw	r4,-4(fp)
1000f2f0:	000f9580 	call	1000f958 <alt_release_fd>
    if (rval < 0)
1000f2f4:	e0bffe17 	ldw	r2,-8(fp)
1000f2f8:	1000070e 	bge	r2,zero,1000f318 <close+0xa8>
    {
      ALT_ERRNO = -rval;
1000f2fc:	000f2340 	call	1000f234 <alt_get_errno>
1000f300:	1007883a 	mov	r3,r2
1000f304:	e0bffe17 	ldw	r2,-8(fp)
1000f308:	0085c83a 	sub	r2,zero,r2
1000f30c:	18800015 	stw	r2,0(r3)
      return -1;
1000f310:	00bfffc4 	movi	r2,-1
1000f314:	00000706 	br	1000f334 <close+0xc4>
    }
    return 0;
1000f318:	0005883a 	mov	r2,zero
1000f31c:	00000506 	br	1000f334 <close+0xc4>
  }
  else
  {
    ALT_ERRNO = EBADFD;
1000f320:	000f2340 	call	1000f234 <alt_get_errno>
1000f324:	1007883a 	mov	r3,r2
1000f328:	00801444 	movi	r2,81
1000f32c:	18800015 	stw	r2,0(r3)
    return -1;
1000f330:	00bfffc4 	movi	r2,-1
  }
}
1000f334:	e037883a 	mov	sp,fp
1000f338:	dfc00117 	ldw	ra,4(sp)
1000f33c:	df000017 	ldw	fp,0(sp)
1000f340:	dec00204 	addi	sp,sp,8
1000f344:	f800283a 	ret

1000f348 <alt_dev_null_write>:
 * by the alt_dev_null device. It simple discards all data passed to it, and
 * indicates that the data has been successfully transmitted.
 */

static int alt_dev_null_write (alt_fd* fd, const char* ptr, int len)
{
1000f348:	defffc04 	addi	sp,sp,-16
1000f34c:	df000315 	stw	fp,12(sp)
1000f350:	df000304 	addi	fp,sp,12
1000f354:	e13ffd15 	stw	r4,-12(fp)
1000f358:	e17ffe15 	stw	r5,-8(fp)
1000f35c:	e1bfff15 	stw	r6,-4(fp)
  return len;
1000f360:	e0bfff17 	ldw	r2,-4(fp)
}
1000f364:	e037883a 	mov	sp,fp
1000f368:	df000017 	ldw	fp,0(sp)
1000f36c:	dec00104 	addi	sp,sp,4
1000f370:	f800283a 	ret

1000f374 <alt_get_errno>:
#undef errno

extern int errno;

static ALT_INLINE int* alt_get_errno(void)
{
1000f374:	defffe04 	addi	sp,sp,-8
1000f378:	dfc00115 	stw	ra,4(sp)
1000f37c:	df000015 	stw	fp,0(sp)
1000f380:	d839883a 	mov	fp,sp
  return ((alt_errno) ? alt_errno() : &errno);
1000f384:	d0a00b17 	ldw	r2,-32724(gp)
1000f388:	10000326 	beq	r2,zero,1000f398 <alt_get_errno+0x24>
1000f38c:	d0a00b17 	ldw	r2,-32724(gp)
1000f390:	103ee83a 	callr	r2
1000f394:	00000106 	br	1000f39c <alt_get_errno+0x28>
1000f398:	d0a6d204 	addi	r2,gp,-25784
}
1000f39c:	e037883a 	mov	sp,fp
1000f3a0:	dfc00117 	ldw	ra,4(sp)
1000f3a4:	df000017 	ldw	fp,0(sp)
1000f3a8:	dec00204 	addi	sp,sp,8
1000f3ac:	f800283a 	ret

1000f3b0 <fstat>:
}

#else /* !ALT_USE_DIRECT_DRIVERS */

int ALT_FSTAT (int file, struct stat *st)
{
1000f3b0:	defffb04 	addi	sp,sp,-20
1000f3b4:	dfc00415 	stw	ra,16(sp)
1000f3b8:	df000315 	stw	fp,12(sp)
1000f3bc:	df000304 	addi	fp,sp,12
1000f3c0:	e13ffe15 	stw	r4,-8(fp)
1000f3c4:	e17fff15 	stw	r5,-4(fp)
   * A common error case is that when the file descriptor was created, the call
   * to open() failed resulting in a negative file descriptor. This is trapped
   * below so that we don't try and process an invalid file descriptor.
   */

  fd = (file < 0) ? NULL : &alt_fd_list[file];
1000f3c8:	e0bffe17 	ldw	r2,-8(fp)
1000f3cc:	10000816 	blt	r2,zero,1000f3f0 <fstat+0x40>
1000f3d0:	01400304 	movi	r5,12
1000f3d4:	e13ffe17 	ldw	r4,-8(fp)
1000f3d8:	000c9680 	call	1000c968 <__mulsi3>
1000f3dc:	1007883a 	mov	r3,r2
1000f3e0:	00840074 	movhi	r2,4097
1000f3e4:	108b7104 	addi	r2,r2,11716
1000f3e8:	1885883a 	add	r2,r3,r2
1000f3ec:	00000106 	br	1000f3f4 <fstat+0x44>
1000f3f0:	0005883a 	mov	r2,zero
1000f3f4:	e0bffd15 	stw	r2,-12(fp)
  
  if (fd)
1000f3f8:	e0bffd17 	ldw	r2,-12(fp)
1000f3fc:	10001026 	beq	r2,zero,1000f440 <fstat+0x90>
  {
    /* Call the drivers fstat() function to fill out the "st" structure. */

    if (fd->dev->fstat)
1000f400:	e0bffd17 	ldw	r2,-12(fp)
1000f404:	10800017 	ldw	r2,0(r2)
1000f408:	10800817 	ldw	r2,32(r2)
1000f40c:	10000726 	beq	r2,zero,1000f42c <fstat+0x7c>
    {
      return fd->dev->fstat(fd, st);
1000f410:	e0bffd17 	ldw	r2,-12(fp)
1000f414:	10800017 	ldw	r2,0(r2)
1000f418:	10800817 	ldw	r2,32(r2)
1000f41c:	e17fff17 	ldw	r5,-4(fp)
1000f420:	e13ffd17 	ldw	r4,-12(fp)
1000f424:	103ee83a 	callr	r2
1000f428:	00000a06 	br	1000f454 <fstat+0xa4>
     * device.
     */
 
    else
    {
      st->st_mode = _IFCHR;
1000f42c:	e0bfff17 	ldw	r2,-4(fp)
1000f430:	00c80004 	movi	r3,8192
1000f434:	10c00115 	stw	r3,4(r2)
      return 0;
1000f438:	0005883a 	mov	r2,zero
1000f43c:	00000506 	br	1000f454 <fstat+0xa4>
    }
  }
  else
  {
    ALT_ERRNO = EBADFD;
1000f440:	000f3740 	call	1000f374 <alt_get_errno>
1000f444:	1007883a 	mov	r3,r2
1000f448:	00801444 	movi	r2,81
1000f44c:	18800015 	stw	r2,0(r3)
    return -1;
1000f450:	00bfffc4 	movi	r2,-1
  }
}
1000f454:	e037883a 	mov	sp,fp
1000f458:	dfc00117 	ldw	ra,4(sp)
1000f45c:	df000017 	ldw	fp,0(sp)
1000f460:	dec00204 	addi	sp,sp,8
1000f464:	f800283a 	ret

1000f468 <alt_get_errno>:
#undef errno

extern int errno;

static ALT_INLINE int* alt_get_errno(void)
{
1000f468:	defffe04 	addi	sp,sp,-8
1000f46c:	dfc00115 	stw	ra,4(sp)
1000f470:	df000015 	stw	fp,0(sp)
1000f474:	d839883a 	mov	fp,sp
  return ((alt_errno) ? alt_errno() : &errno);
1000f478:	d0a00b17 	ldw	r2,-32724(gp)
1000f47c:	10000326 	beq	r2,zero,1000f48c <alt_get_errno+0x24>
1000f480:	d0a00b17 	ldw	r2,-32724(gp)
1000f484:	103ee83a 	callr	r2
1000f488:	00000106 	br	1000f490 <alt_get_errno+0x28>
1000f48c:	d0a6d204 	addi	r2,gp,-25784
}
1000f490:	e037883a 	mov	sp,fp
1000f494:	dfc00117 	ldw	ra,4(sp)
1000f498:	df000017 	ldw	fp,0(sp)
1000f49c:	dec00204 	addi	sp,sp,8
1000f4a0:	f800283a 	ret

1000f4a4 <isatty>:
 *
 * ALT_ISATTY is mapped onto the isatty() system call in alt_syscall.h
 */
 
int ALT_ISATTY (int file)
{
1000f4a4:	deffed04 	addi	sp,sp,-76
1000f4a8:	dfc01215 	stw	ra,72(sp)
1000f4ac:	df001115 	stw	fp,68(sp)
1000f4b0:	df001104 	addi	fp,sp,68
1000f4b4:	e13fff15 	stw	r4,-4(fp)
   * A common error case is that when the file descriptor was created, the call
   * to open() failed resulting in a negative file descriptor. This is trapped
   * below so that we don't try and process an invalid file descriptor.
   */

  fd = (file < 0) ? NULL : &alt_fd_list[file];
1000f4b8:	e0bfff17 	ldw	r2,-4(fp)
1000f4bc:	10000816 	blt	r2,zero,1000f4e0 <isatty+0x3c>
1000f4c0:	01400304 	movi	r5,12
1000f4c4:	e13fff17 	ldw	r4,-4(fp)
1000f4c8:	000c9680 	call	1000c968 <__mulsi3>
1000f4cc:	1007883a 	mov	r3,r2
1000f4d0:	00840074 	movhi	r2,4097
1000f4d4:	108b7104 	addi	r2,r2,11716
1000f4d8:	1885883a 	add	r2,r3,r2
1000f4dc:	00000106 	br	1000f4e4 <isatty+0x40>
1000f4e0:	0005883a 	mov	r2,zero
1000f4e4:	e0bfef15 	stw	r2,-68(fp)
  
  if (fd)
1000f4e8:	e0bfef17 	ldw	r2,-68(fp)
1000f4ec:	10000e26 	beq	r2,zero,1000f528 <isatty+0x84>
    /*
     * If a device driver does not provide an fstat() function, then it is 
     * treated as a terminal device by default.
     */

    if (!fd->dev->fstat)
1000f4f0:	e0bfef17 	ldw	r2,-68(fp)
1000f4f4:	10800017 	ldw	r2,0(r2)
1000f4f8:	10800817 	ldw	r2,32(r2)
1000f4fc:	1000021e 	bne	r2,zero,1000f508 <isatty+0x64>
    {
      return 1;
1000f500:	00800044 	movi	r2,1
1000f504:	00000d06 	br	1000f53c <isatty+0x98>
     * this is called so that the device can identify itself.
     */ 

    else
    {
      fstat (file, &stat);
1000f508:	e0bff004 	addi	r2,fp,-64
1000f50c:	100b883a 	mov	r5,r2
1000f510:	e13fff17 	ldw	r4,-4(fp)
1000f514:	000f3b00 	call	1000f3b0 <fstat>
      return (stat.st_mode == _IFCHR) ? 1 : 0;
1000f518:	e0bff117 	ldw	r2,-60(fp)
1000f51c:	10880020 	cmpeqi	r2,r2,8192
1000f520:	10803fcc 	andi	r2,r2,255
1000f524:	00000506 	br	1000f53c <isatty+0x98>
    }
  }
  else
  {
    ALT_ERRNO = EBADFD;
1000f528:	000f4680 	call	1000f468 <alt_get_errno>
1000f52c:	1007883a 	mov	r3,r2
1000f530:	00801444 	movi	r2,81
1000f534:	18800015 	stw	r2,0(r3)
    return 0;
1000f538:	0005883a 	mov	r2,zero
  }
}
1000f53c:	e037883a 	mov	sp,fp
1000f540:	dfc00117 	ldw	ra,4(sp)
1000f544:	df000017 	ldw	fp,0(sp)
1000f548:	dec00204 	addi	sp,sp,8
1000f54c:	f800283a 	ret

1000f550 <alt_load_section>:
 */

static void ALT_INLINE alt_load_section (alt_u32* from, 
                                         alt_u32* to, 
                                         alt_u32* end)
{
1000f550:	defffc04 	addi	sp,sp,-16
1000f554:	df000315 	stw	fp,12(sp)
1000f558:	df000304 	addi	fp,sp,12
1000f55c:	e13ffd15 	stw	r4,-12(fp)
1000f560:	e17ffe15 	stw	r5,-8(fp)
1000f564:	e1bfff15 	stw	r6,-4(fp)
  if (to != from)
1000f568:	e0fffe17 	ldw	r3,-8(fp)
1000f56c:	e0bffd17 	ldw	r2,-12(fp)
1000f570:	18800c26 	beq	r3,r2,1000f5a4 <alt_load_section+0x54>
  {
    while( to != end )
1000f574:	00000806 	br	1000f598 <alt_load_section+0x48>
    {
      *to++ = *from++;
1000f578:	e0bffe17 	ldw	r2,-8(fp)
1000f57c:	10c00104 	addi	r3,r2,4
1000f580:	e0fffe15 	stw	r3,-8(fp)
1000f584:	e0fffd17 	ldw	r3,-12(fp)
1000f588:	19000104 	addi	r4,r3,4
1000f58c:	e13ffd15 	stw	r4,-12(fp)
1000f590:	18c00017 	ldw	r3,0(r3)
1000f594:	10c00015 	stw	r3,0(r2)
                                         alt_u32* to, 
                                         alt_u32* end)
{
  if (to != from)
  {
    while( to != end )
1000f598:	e0fffe17 	ldw	r3,-8(fp)
1000f59c:	e0bfff17 	ldw	r2,-4(fp)
1000f5a0:	18bff51e 	bne	r3,r2,1000f578 <__alt_data_end+0xf800f578>
    {
      *to++ = *from++;
    }
  }
}
1000f5a4:	0001883a 	nop
1000f5a8:	e037883a 	mov	sp,fp
1000f5ac:	df000017 	ldw	fp,0(sp)
1000f5b0:	dec00104 	addi	sp,sp,4
1000f5b4:	f800283a 	ret

1000f5b8 <alt_load>:
 * there is no bootloader, so this application is responsible for loading to
 * RAM any sections that are required.
 */  

void alt_load (void)
{
1000f5b8:	defffe04 	addi	sp,sp,-8
1000f5bc:	dfc00115 	stw	ra,4(sp)
1000f5c0:	df000015 	stw	fp,0(sp)
1000f5c4:	d839883a 	mov	fp,sp
  /* 
   * Copy the .rwdata section. 
   */

  alt_load_section (&__flash_rwdata_start, 
1000f5c8:	01840074 	movhi	r6,4097
1000f5cc:	318ff904 	addi	r6,r6,16356
1000f5d0:	01440074 	movhi	r5,4097
1000f5d4:	29493e04 	addi	r5,r5,9464
1000f5d8:	01040074 	movhi	r4,4097
1000f5dc:	210ff904 	addi	r4,r4,16356
1000f5e0:	000f5500 	call	1000f550 <alt_load_section>

  /*
   * Copy the exception handler.
   */

  alt_load_section (&__flash_exceptions_start, 
1000f5e4:	01840034 	movhi	r6,4096
1000f5e8:	31808c04 	addi	r6,r6,560
1000f5ec:	01440034 	movhi	r5,4096
1000f5f0:	29400804 	addi	r5,r5,32
1000f5f4:	01040034 	movhi	r4,4096
1000f5f8:	21000804 	addi	r4,r4,32
1000f5fc:	000f5500 	call	1000f550 <alt_load_section>

  /*
   * Copy the .rodata section.
   */

  alt_load_section (&__flash_rodata_start, 
1000f600:	01840074 	movhi	r6,4097
1000f604:	31893e04 	addi	r6,r6,9464
1000f608:	01440074 	movhi	r5,4097
1000f60c:	29469504 	addi	r5,r5,6740
1000f610:	01040074 	movhi	r4,4097
1000f614:	21069504 	addi	r4,r4,6740
1000f618:	000f5500 	call	1000f550 <alt_load_section>
  
  /*
   * Now ensure that the caches are in synch.
   */
  
  alt_dcache_flush_all();
1000f61c:	001099c0 	call	1001099c <alt_dcache_flush_all>
  alt_icache_flush_all();
1000f620:	0010b5c0 	call	10010b5c <alt_icache_flush_all>
}
1000f624:	0001883a 	nop
1000f628:	e037883a 	mov	sp,fp
1000f62c:	dfc00117 	ldw	ra,4(sp)
1000f630:	df000017 	ldw	fp,0(sp)
1000f634:	dec00204 	addi	sp,sp,8
1000f638:	f800283a 	ret

1000f63c <alt_get_errno>:
#undef errno

extern int errno;

static ALT_INLINE int* alt_get_errno(void)
{
1000f63c:	defffe04 	addi	sp,sp,-8
1000f640:	dfc00115 	stw	ra,4(sp)
1000f644:	df000015 	stw	fp,0(sp)
1000f648:	d839883a 	mov	fp,sp
  return ((alt_errno) ? alt_errno() : &errno);
1000f64c:	d0a00b17 	ldw	r2,-32724(gp)
1000f650:	10000326 	beq	r2,zero,1000f660 <alt_get_errno+0x24>
1000f654:	d0a00b17 	ldw	r2,-32724(gp)
1000f658:	103ee83a 	callr	r2
1000f65c:	00000106 	br	1000f664 <alt_get_errno+0x28>
1000f660:	d0a6d204 	addi	r2,gp,-25784
}
1000f664:	e037883a 	mov	sp,fp
1000f668:	dfc00117 	ldw	ra,4(sp)
1000f66c:	df000017 	ldw	fp,0(sp)
1000f670:	dec00204 	addi	sp,sp,8
1000f674:	f800283a 	ret

1000f678 <lseek>:
 * ALT_LSEEK is mapped onto the lseek() system call in alt_syscall.h
 *
 */

off_t ALT_LSEEK (int file, off_t ptr, int dir)
{
1000f678:	defff904 	addi	sp,sp,-28
1000f67c:	dfc00615 	stw	ra,24(sp)
1000f680:	df000515 	stw	fp,20(sp)
1000f684:	df000504 	addi	fp,sp,20
1000f688:	e13ffd15 	stw	r4,-12(fp)
1000f68c:	e17ffe15 	stw	r5,-8(fp)
1000f690:	e1bfff15 	stw	r6,-4(fp)
  alt_fd* fd;
  off_t   rc = 0; 
1000f694:	e03ffb15 	stw	zero,-20(fp)
   * A common error case is that when the file descriptor was created, the call
   * to open() failed resulting in a negative file descriptor. This is trapped
   * below so that we don't try and process an invalid file descriptor.
   */

  fd = (file < 0) ? NULL : &alt_fd_list[file];
1000f698:	e0bffd17 	ldw	r2,-12(fp)
1000f69c:	10000816 	blt	r2,zero,1000f6c0 <lseek+0x48>
1000f6a0:	01400304 	movi	r5,12
1000f6a4:	e13ffd17 	ldw	r4,-12(fp)
1000f6a8:	000c9680 	call	1000c968 <__mulsi3>
1000f6ac:	1007883a 	mov	r3,r2
1000f6b0:	00840074 	movhi	r2,4097
1000f6b4:	108b7104 	addi	r2,r2,11716
1000f6b8:	1885883a 	add	r2,r3,r2
1000f6bc:	00000106 	br	1000f6c4 <lseek+0x4c>
1000f6c0:	0005883a 	mov	r2,zero
1000f6c4:	e0bffc15 	stw	r2,-16(fp)
  
  if (fd) 
1000f6c8:	e0bffc17 	ldw	r2,-16(fp)
1000f6cc:	10001026 	beq	r2,zero,1000f710 <lseek+0x98>
    /*
     * If the device driver provides an implementation of the lseek() function,
     * then call that to process the request.
     */
 
    if (fd->dev->lseek)
1000f6d0:	e0bffc17 	ldw	r2,-16(fp)
1000f6d4:	10800017 	ldw	r2,0(r2)
1000f6d8:	10800717 	ldw	r2,28(r2)
1000f6dc:	10000926 	beq	r2,zero,1000f704 <lseek+0x8c>
    {
      rc = fd->dev->lseek(fd, ptr, dir);
1000f6e0:	e0bffc17 	ldw	r2,-16(fp)
1000f6e4:	10800017 	ldw	r2,0(r2)
1000f6e8:	10800717 	ldw	r2,28(r2)
1000f6ec:	e1bfff17 	ldw	r6,-4(fp)
1000f6f0:	e17ffe17 	ldw	r5,-8(fp)
1000f6f4:	e13ffc17 	ldw	r4,-16(fp)
1000f6f8:	103ee83a 	callr	r2
1000f6fc:	e0bffb15 	stw	r2,-20(fp)
1000f700:	00000506 	br	1000f718 <lseek+0xa0>
     * Otherwise return an error.
     */

    else
    {
      rc = -ENOTSUP;
1000f704:	00bfde84 	movi	r2,-134
1000f708:	e0bffb15 	stw	r2,-20(fp)
1000f70c:	00000206 	br	1000f718 <lseek+0xa0>
    }
  }
  else  
  {
    rc = -EBADFD;
1000f710:	00bfebc4 	movi	r2,-81
1000f714:	e0bffb15 	stw	r2,-20(fp)
  }

  if (rc < 0)
1000f718:	e0bffb17 	ldw	r2,-20(fp)
1000f71c:	1000070e 	bge	r2,zero,1000f73c <lseek+0xc4>
  {
    ALT_ERRNO = -rc;
1000f720:	000f63c0 	call	1000f63c <alt_get_errno>
1000f724:	1007883a 	mov	r3,r2
1000f728:	e0bffb17 	ldw	r2,-20(fp)
1000f72c:	0085c83a 	sub	r2,zero,r2
1000f730:	18800015 	stw	r2,0(r3)
    rc = -1;
1000f734:	00bfffc4 	movi	r2,-1
1000f738:	e0bffb15 	stw	r2,-20(fp)
  }

  return rc;
1000f73c:	e0bffb17 	ldw	r2,-20(fp)
}
1000f740:	e037883a 	mov	sp,fp
1000f744:	dfc00117 	ldw	ra,4(sp)
1000f748:	df000017 	ldw	fp,0(sp)
1000f74c:	dec00204 	addi	sp,sp,8
1000f750:	f800283a 	ret

1000f754 <alt_main>:
 * devices/filesystems/components in the system; and call the entry point for
 * the users application, i.e. main().
 */

void alt_main (void)
{
1000f754:	defffd04 	addi	sp,sp,-12
1000f758:	dfc00215 	stw	ra,8(sp)
1000f75c:	df000115 	stw	fp,4(sp)
1000f760:	df000104 	addi	fp,sp,4
#endif

  /* ALT LOG - please see HAL/sys/alt_log_printf.h for details */
  ALT_LOG_PRINT_BOOT("[alt_main.c] Entering alt_main, calling alt_irq_init.\r\n");
  /* Initialize the interrupt controller. */
  alt_irq_init (NULL);
1000f764:	0009883a 	mov	r4,zero
1000f768:	000fc2c0 	call	1000fc2c <alt_irq_init>

  /* Initialize the operating system */
  ALT_LOG_PRINT_BOOT("[alt_main.c] Done alt_irq_init, calling alt_os_init.\r\n");
  ALT_OS_INIT();
1000f76c:	0001883a 	nop
  ALT_LOG_PRINT_BOOT("[alt_main.c] Done OS Init, calling alt_sem_create.\r\n");
  ALT_SEM_CREATE (&alt_fd_list_lock, 1);

  /* Initialize the device drivers/software components. */
  ALT_LOG_PRINT_BOOT("[alt_main.c] Calling alt_sys_init.\r\n");
  alt_sys_init();
1000f770:	000fc640 	call	1000fc64 <alt_sys_init>
   * devices be present (not equal to /dev/null) and if direct drivers
   * aren't being used.
   */

    ALT_LOG_PRINT_BOOT("[alt_main.c] Redirecting IO.\r\n");
    alt_io_redirect(ALT_STDOUT, ALT_STDIN, ALT_STDERR);
1000f774:	01840074 	movhi	r6,4097
1000f778:	31893404 	addi	r6,r6,9424
1000f77c:	01440074 	movhi	r5,4097
1000f780:	29493404 	addi	r5,r5,9424
1000f784:	01040074 	movhi	r4,4097
1000f788:	21093404 	addi	r4,r4,9424
1000f78c:	0010f000 	call	10010f00 <alt_io_redirect>
  /* 
   * Call the C++ constructors 
   */

  ALT_LOG_PRINT_BOOT("[alt_main.c] Calling C++ constructors.\r\n");
  _do_ctors ();
1000f790:	0010a9c0 	call	10010a9c <_do_ctors>
   * redefined as _exit()). This is in the interest of reducing code footprint,
   * in that the atexit() overhead is removed when it's not needed.
   */

  ALT_LOG_PRINT_BOOT("[alt_main.c] Calling atexit.\r\n");
  atexit (_do_dtors);
1000f794:	01040074 	movhi	r4,4097
1000f798:	2102bf04 	addi	r4,r4,2812
1000f79c:	00116c00 	call	100116c0 <atexit>
  ALT_LOG_PRINT_BOOT("[alt_main.c] Calling main.\r\n");

#ifdef ALT_NO_EXIT
  main (alt_argc, alt_argv, alt_envp);
#else
  result = main (alt_argc, alt_argv, alt_envp);
1000f7a0:	d0a6d317 	ldw	r2,-25780(gp)
1000f7a4:	d0e6d417 	ldw	r3,-25776(gp)
1000f7a8:	d126d517 	ldw	r4,-25772(gp)
1000f7ac:	200d883a 	mov	r6,r4
1000f7b0:	180b883a 	mov	r5,r3
1000f7b4:	1009883a 	mov	r4,r2
1000f7b8:	00003e40 	call	100003e4 <main>
1000f7bc:	e0bfff15 	stw	r2,-4(fp)
  close(STDOUT_FILENO);
1000f7c0:	01000044 	movi	r4,1
1000f7c4:	000f2700 	call	1000f270 <close>
  exit (result);
1000f7c8:	e13fff17 	ldw	r4,-4(fp)
1000f7cc:	00116d40 	call	100116d4 <exit>

1000f7d0 <__malloc_lock>:
 * configuration is single threaded, so there is nothing to do here. Note that 
 * this requires that malloc is never called by an interrupt service routine.
 */

void __malloc_lock ( struct _reent *_r )
{
1000f7d0:	defffe04 	addi	sp,sp,-8
1000f7d4:	df000115 	stw	fp,4(sp)
1000f7d8:	df000104 	addi	fp,sp,4
1000f7dc:	e13fff15 	stw	r4,-4(fp)
}
1000f7e0:	0001883a 	nop
1000f7e4:	e037883a 	mov	sp,fp
1000f7e8:	df000017 	ldw	fp,0(sp)
1000f7ec:	dec00104 	addi	sp,sp,4
1000f7f0:	f800283a 	ret

1000f7f4 <__malloc_unlock>:
/*
 *
 */

void __malloc_unlock ( struct _reent *_r )
{
1000f7f4:	defffe04 	addi	sp,sp,-8
1000f7f8:	df000115 	stw	fp,4(sp)
1000f7fc:	df000104 	addi	fp,sp,4
1000f800:	e13fff15 	stw	r4,-4(fp)
}
1000f804:	0001883a 	nop
1000f808:	e037883a 	mov	sp,fp
1000f80c:	df000017 	ldw	fp,0(sp)
1000f810:	dec00104 	addi	sp,sp,4
1000f814:	f800283a 	ret

1000f818 <alt_get_errno>:
#undef errno

extern int errno;

static ALT_INLINE int* alt_get_errno(void)
{
1000f818:	defffe04 	addi	sp,sp,-8
1000f81c:	dfc00115 	stw	ra,4(sp)
1000f820:	df000015 	stw	fp,0(sp)
1000f824:	d839883a 	mov	fp,sp
  return ((alt_errno) ? alt_errno() : &errno);
1000f828:	d0a00b17 	ldw	r2,-32724(gp)
1000f82c:	10000326 	beq	r2,zero,1000f83c <alt_get_errno+0x24>
1000f830:	d0a00b17 	ldw	r2,-32724(gp)
1000f834:	103ee83a 	callr	r2
1000f838:	00000106 	br	1000f840 <alt_get_errno+0x28>
1000f83c:	d0a6d204 	addi	r2,gp,-25784
}
1000f840:	e037883a 	mov	sp,fp
1000f844:	dfc00117 	ldw	ra,4(sp)
1000f848:	df000017 	ldw	fp,0(sp)
1000f84c:	dec00204 	addi	sp,sp,8
1000f850:	f800283a 	ret

1000f854 <read>:
}

#else /* !ALT_USE_DIRECT_DRIVERS */

int ALT_READ (int file, void *ptr, size_t len)
{
1000f854:	defff904 	addi	sp,sp,-28
1000f858:	dfc00615 	stw	ra,24(sp)
1000f85c:	df000515 	stw	fp,20(sp)
1000f860:	df000504 	addi	fp,sp,20
1000f864:	e13ffd15 	stw	r4,-12(fp)
1000f868:	e17ffe15 	stw	r5,-8(fp)
1000f86c:	e1bfff15 	stw	r6,-4(fp)
   * A common error case is that when the file descriptor was created, the call
   * to open() failed resulting in a negative file descriptor. This is trapped
   * below so that we don't try and process an invalid file descriptor.
   */

  fd = (file < 0) ? NULL : &alt_fd_list[file];
1000f870:	e0bffd17 	ldw	r2,-12(fp)
1000f874:	10000816 	blt	r2,zero,1000f898 <read+0x44>
1000f878:	01400304 	movi	r5,12
1000f87c:	e13ffd17 	ldw	r4,-12(fp)
1000f880:	000c9680 	call	1000c968 <__mulsi3>
1000f884:	1007883a 	mov	r3,r2
1000f888:	00840074 	movhi	r2,4097
1000f88c:	108b7104 	addi	r2,r2,11716
1000f890:	1885883a 	add	r2,r3,r2
1000f894:	00000106 	br	1000f89c <read+0x48>
1000f898:	0005883a 	mov	r2,zero
1000f89c:	e0bffb15 	stw	r2,-20(fp)
  
  if (fd)
1000f8a0:	e0bffb17 	ldw	r2,-20(fp)
1000f8a4:	10002226 	beq	r2,zero,1000f930 <read+0xdc>
     * If the file has not been opened with read access, or if the driver does
     * not provide an implementation of read(), generate an error. Otherwise
     * call the drivers read() function to process the request.
     */

    if (((fd->fd_flags & O_ACCMODE) != O_WRONLY) && 
1000f8a8:	e0bffb17 	ldw	r2,-20(fp)
1000f8ac:	10800217 	ldw	r2,8(r2)
1000f8b0:	108000cc 	andi	r2,r2,3
1000f8b4:	10800060 	cmpeqi	r2,r2,1
1000f8b8:	1000181e 	bne	r2,zero,1000f91c <read+0xc8>
        (fd->dev->read))
1000f8bc:	e0bffb17 	ldw	r2,-20(fp)
1000f8c0:	10800017 	ldw	r2,0(r2)
1000f8c4:	10800517 	ldw	r2,20(r2)
     * If the file has not been opened with read access, or if the driver does
     * not provide an implementation of read(), generate an error. Otherwise
     * call the drivers read() function to process the request.
     */

    if (((fd->fd_flags & O_ACCMODE) != O_WRONLY) && 
1000f8c8:	10001426 	beq	r2,zero,1000f91c <read+0xc8>
        (fd->dev->read))
      {
        if ((rval = fd->dev->read(fd, ptr, len)) < 0)
1000f8cc:	e0bffb17 	ldw	r2,-20(fp)
1000f8d0:	10800017 	ldw	r2,0(r2)
1000f8d4:	10800517 	ldw	r2,20(r2)
1000f8d8:	e0ffff17 	ldw	r3,-4(fp)
1000f8dc:	180d883a 	mov	r6,r3
1000f8e0:	e17ffe17 	ldw	r5,-8(fp)
1000f8e4:	e13ffb17 	ldw	r4,-20(fp)
1000f8e8:	103ee83a 	callr	r2
1000f8ec:	e0bffc15 	stw	r2,-16(fp)
1000f8f0:	e0bffc17 	ldw	r2,-16(fp)
1000f8f4:	1000070e 	bge	r2,zero,1000f914 <read+0xc0>
        {
          ALT_ERRNO = -rval;
1000f8f8:	000f8180 	call	1000f818 <alt_get_errno>
1000f8fc:	1007883a 	mov	r3,r2
1000f900:	e0bffc17 	ldw	r2,-16(fp)
1000f904:	0085c83a 	sub	r2,zero,r2
1000f908:	18800015 	stw	r2,0(r3)
          return -1;
1000f90c:	00bfffc4 	movi	r2,-1
1000f910:	00000c06 	br	1000f944 <read+0xf0>
        }
        return rval;
1000f914:	e0bffc17 	ldw	r2,-16(fp)
1000f918:	00000a06 	br	1000f944 <read+0xf0>
      }
      else
      {
        ALT_ERRNO = EACCES;
1000f91c:	000f8180 	call	1000f818 <alt_get_errno>
1000f920:	1007883a 	mov	r3,r2
1000f924:	00800344 	movi	r2,13
1000f928:	18800015 	stw	r2,0(r3)
1000f92c:	00000406 	br	1000f940 <read+0xec>
      }
    }
  else
  {
    ALT_ERRNO = EBADFD;
1000f930:	000f8180 	call	1000f818 <alt_get_errno>
1000f934:	1007883a 	mov	r3,r2
1000f938:	00801444 	movi	r2,81
1000f93c:	18800015 	stw	r2,0(r3)
  }
  return -1;
1000f940:	00bfffc4 	movi	r2,-1
}
1000f944:	e037883a 	mov	sp,fp
1000f948:	dfc00117 	ldw	ra,4(sp)
1000f94c:	df000017 	ldw	fp,0(sp)
1000f950:	dec00204 	addi	sp,sp,8
1000f954:	f800283a 	ret

1000f958 <alt_release_fd>:
 * File descriptors correcponding to standard in, standard out and standard 
 * error cannont be released backed to the pool. They are always reserved.
 */

void alt_release_fd (int fd)
{
1000f958:	defffc04 	addi	sp,sp,-16
1000f95c:	dfc00315 	stw	ra,12(sp)
1000f960:	df000215 	stw	fp,8(sp)
1000f964:	dc000115 	stw	r16,4(sp)
1000f968:	df000204 	addi	fp,sp,8
1000f96c:	e13ffe15 	stw	r4,-8(fp)
  if (fd > 2)
1000f970:	e0bffe17 	ldw	r2,-8(fp)
1000f974:	108000d0 	cmplti	r2,r2,3
1000f978:	1000111e 	bne	r2,zero,1000f9c0 <alt_release_fd+0x68>
  {
    alt_fd_list[fd].fd_flags = 0;
1000f97c:	04040074 	movhi	r16,4097
1000f980:	840b7104 	addi	r16,r16,11716
1000f984:	e0bffe17 	ldw	r2,-8(fp)
1000f988:	01400304 	movi	r5,12
1000f98c:	1009883a 	mov	r4,r2
1000f990:	000c9680 	call	1000c968 <__mulsi3>
1000f994:	8085883a 	add	r2,r16,r2
1000f998:	10800204 	addi	r2,r2,8
1000f99c:	10000015 	stw	zero,0(r2)
    alt_fd_list[fd].dev      = 0;
1000f9a0:	04040074 	movhi	r16,4097
1000f9a4:	840b7104 	addi	r16,r16,11716
1000f9a8:	e0bffe17 	ldw	r2,-8(fp)
1000f9ac:	01400304 	movi	r5,12
1000f9b0:	1009883a 	mov	r4,r2
1000f9b4:	000c9680 	call	1000c968 <__mulsi3>
1000f9b8:	8085883a 	add	r2,r16,r2
1000f9bc:	10000015 	stw	zero,0(r2)
  }
}
1000f9c0:	0001883a 	nop
1000f9c4:	e6ffff04 	addi	sp,fp,-4
1000f9c8:	dfc00217 	ldw	ra,8(sp)
1000f9cc:	df000117 	ldw	fp,4(sp)
1000f9d0:	dc000017 	ldw	r16,0(sp)
1000f9d4:	dec00304 	addi	sp,sp,12
1000f9d8:	f800283a 	ret

1000f9dc <sbrk>:
#endif
 
caddr_t ALT_SBRK (int incr) __attribute__ ((no_instrument_function ));

caddr_t ALT_SBRK (int incr)
{ 
1000f9dc:	defff904 	addi	sp,sp,-28
1000f9e0:	df000615 	stw	fp,24(sp)
1000f9e4:	df000604 	addi	fp,sp,24
1000f9e8:	e13fff15 	stw	r4,-4(fp)
static ALT_INLINE alt_irq_context ALT_ALWAYS_INLINE 
       alt_irq_disable_all (void)
{
  alt_irq_context context;

  NIOS2_READ_STATUS (context);
1000f9ec:	0005303a 	rdctl	r2,status
1000f9f0:	e0bffe15 	stw	r2,-8(fp)

  NIOS2_WRITE_STATUS (context & ~NIOS2_STATUS_PIE_MSK);
1000f9f4:	e0fffe17 	ldw	r3,-8(fp)
1000f9f8:	00bfff84 	movi	r2,-2
1000f9fc:	1884703a 	and	r2,r3,r2
1000fa00:	1001703a 	wrctl	status,r2
  
  return context;
1000fa04:	e0bffe17 	ldw	r2,-8(fp)
  alt_irq_context context;
  char *prev_heap_end; 

  context = alt_irq_disable_all();
1000fa08:	e0bffb15 	stw	r2,-20(fp)

  /* Always return data aligned on a word boundary */
  heap_end = (char *)(((unsigned int)heap_end + 3) & ~3);
1000fa0c:	d0a00c17 	ldw	r2,-32720(gp)
1000fa10:	10c000c4 	addi	r3,r2,3
1000fa14:	00bfff04 	movi	r2,-4
1000fa18:	1884703a 	and	r2,r3,r2
1000fa1c:	d0a00c15 	stw	r2,-32720(gp)
  if (((heap_end + incr) - __alt_heap_start) > ALT_MAX_HEAP_BYTES) {
    alt_irq_enable_all(context);
    return (caddr_t)-1;
  }
#else
  if ((heap_end + incr) > __alt_heap_limit) {
1000fa20:	d0e00c17 	ldw	r3,-32720(gp)
1000fa24:	e0bfff17 	ldw	r2,-4(fp)
1000fa28:	1887883a 	add	r3,r3,r2
1000fa2c:	00860034 	movhi	r2,6144
1000fa30:	10800004 	addi	r2,r2,0
1000fa34:	10c0062e 	bgeu	r2,r3,1000fa50 <sbrk+0x74>
1000fa38:	e0bffb17 	ldw	r2,-20(fp)
1000fa3c:	e0bffa15 	stw	r2,-24(fp)
  status &= ~NIOS2_STATUS_PIE_MSK;
  status |= (context & NIOS2_STATUS_PIE_MSK);
  
  NIOS2_WRITE_STATUS (status);
#else
  NIOS2_WRITE_STATUS (context);
1000fa40:	e0bffa17 	ldw	r2,-24(fp)
1000fa44:	1001703a 	wrctl	status,r2
    alt_irq_enable_all(context);
    return (caddr_t)-1;
1000fa48:	00bfffc4 	movi	r2,-1
1000fa4c:	00000b06 	br	1000fa7c <sbrk+0xa0>
  }
#endif

  prev_heap_end = heap_end; 
1000fa50:	d0a00c17 	ldw	r2,-32720(gp)
1000fa54:	e0bffd15 	stw	r2,-12(fp)
  heap_end += incr; 
1000fa58:	d0e00c17 	ldw	r3,-32720(gp)
1000fa5c:	e0bfff17 	ldw	r2,-4(fp)
1000fa60:	1885883a 	add	r2,r3,r2
1000fa64:	d0a00c15 	stw	r2,-32720(gp)
1000fa68:	e0bffb17 	ldw	r2,-20(fp)
1000fa6c:	e0bffc15 	stw	r2,-16(fp)
1000fa70:	e0bffc17 	ldw	r2,-16(fp)
1000fa74:	1001703a 	wrctl	status,r2

#endif

  alt_irq_enable_all(context);

  return (caddr_t) prev_heap_end; 
1000fa78:	e0bffd17 	ldw	r2,-12(fp)
} 
1000fa7c:	e037883a 	mov	sp,fp
1000fa80:	df000017 	ldw	fp,0(sp)
1000fa84:	dec00104 	addi	sp,sp,4
1000fa88:	f800283a 	ret

1000fa8c <usleep>:
#if defined (__GNUC__) && __GNUC__ >= 4
int ALT_USLEEP (useconds_t us)
#else
unsigned int ALT_USLEEP (unsigned int us)
#endif
{
1000fa8c:	defffd04 	addi	sp,sp,-12
1000fa90:	dfc00215 	stw	ra,8(sp)
1000fa94:	df000115 	stw	fp,4(sp)
1000fa98:	df000104 	addi	fp,sp,4
1000fa9c:	e13fff15 	stw	r4,-4(fp)
  return alt_busy_sleep(us);
1000faa0:	e13fff17 	ldw	r4,-4(fp)
1000faa4:	00108440 	call	10010844 <alt_busy_sleep>
}
1000faa8:	e037883a 	mov	sp,fp
1000faac:	dfc00117 	ldw	ra,4(sp)
1000fab0:	df000017 	ldw	fp,0(sp)
1000fab4:	dec00204 	addi	sp,sp,8
1000fab8:	f800283a 	ret

1000fabc <alt_get_errno>:
#undef errno

extern int errno;

static ALT_INLINE int* alt_get_errno(void)
{
1000fabc:	defffe04 	addi	sp,sp,-8
1000fac0:	dfc00115 	stw	ra,4(sp)
1000fac4:	df000015 	stw	fp,0(sp)
1000fac8:	d839883a 	mov	fp,sp
  return ((alt_errno) ? alt_errno() : &errno);
1000facc:	d0a00b17 	ldw	r2,-32724(gp)
1000fad0:	10000326 	beq	r2,zero,1000fae0 <alt_get_errno+0x24>
1000fad4:	d0a00b17 	ldw	r2,-32724(gp)
1000fad8:	103ee83a 	callr	r2
1000fadc:	00000106 	br	1000fae4 <alt_get_errno+0x28>
1000fae0:	d0a6d204 	addi	r2,gp,-25784
}
1000fae4:	e037883a 	mov	sp,fp
1000fae8:	dfc00117 	ldw	ra,4(sp)
1000faec:	df000017 	ldw	fp,0(sp)
1000faf0:	dec00204 	addi	sp,sp,8
1000faf4:	f800283a 	ret

1000faf8 <write>:
}

#else /* !ALT_USE_DIRECT_DRIVERS */

int ALT_WRITE (int file, const void *ptr, size_t len)
{
1000faf8:	defff904 	addi	sp,sp,-28
1000fafc:	dfc00615 	stw	ra,24(sp)
1000fb00:	df000515 	stw	fp,20(sp)
1000fb04:	df000504 	addi	fp,sp,20
1000fb08:	e13ffd15 	stw	r4,-12(fp)
1000fb0c:	e17ffe15 	stw	r5,-8(fp)
1000fb10:	e1bfff15 	stw	r6,-4(fp)
   * A common error case is that when the file descriptor was created, the call
   * to open() failed resulting in a negative file descriptor. This is trapped
   * below so that we don't try and process an invalid file descriptor.
   */

  fd = (file < 0) ? NULL : &alt_fd_list[file];
1000fb14:	e0bffd17 	ldw	r2,-12(fp)
1000fb18:	10000816 	blt	r2,zero,1000fb3c <write+0x44>
1000fb1c:	01400304 	movi	r5,12
1000fb20:	e13ffd17 	ldw	r4,-12(fp)
1000fb24:	000c9680 	call	1000c968 <__mulsi3>
1000fb28:	1007883a 	mov	r3,r2
1000fb2c:	00840074 	movhi	r2,4097
1000fb30:	108b7104 	addi	r2,r2,11716
1000fb34:	1885883a 	add	r2,r3,r2
1000fb38:	00000106 	br	1000fb40 <write+0x48>
1000fb3c:	0005883a 	mov	r2,zero
1000fb40:	e0bffb15 	stw	r2,-20(fp)
  
  if (fd)
1000fb44:	e0bffb17 	ldw	r2,-20(fp)
1000fb48:	10002126 	beq	r2,zero,1000fbd0 <write+0xd8>
     * If the file has not been opened with write access, or if the driver does
     * not provide an implementation of write(), generate an error. Otherwise
     * call the drivers write() function to process the request.
     */

    if (((fd->fd_flags & O_ACCMODE) != O_RDONLY) && fd->dev->write)
1000fb4c:	e0bffb17 	ldw	r2,-20(fp)
1000fb50:	10800217 	ldw	r2,8(r2)
1000fb54:	108000cc 	andi	r2,r2,3
1000fb58:	10001826 	beq	r2,zero,1000fbbc <write+0xc4>
1000fb5c:	e0bffb17 	ldw	r2,-20(fp)
1000fb60:	10800017 	ldw	r2,0(r2)
1000fb64:	10800617 	ldw	r2,24(r2)
1000fb68:	10001426 	beq	r2,zero,1000fbbc <write+0xc4>
    {
      
      /* ALT_LOG - see altera_hal/HAL/inc/sys/alt_log_printf.h */
      ALT_LOG_WRITE_FUNCTION(ptr,len);

      if ((rval = fd->dev->write(fd, ptr, len)) < 0)
1000fb6c:	e0bffb17 	ldw	r2,-20(fp)
1000fb70:	10800017 	ldw	r2,0(r2)
1000fb74:	10800617 	ldw	r2,24(r2)
1000fb78:	e0ffff17 	ldw	r3,-4(fp)
1000fb7c:	180d883a 	mov	r6,r3
1000fb80:	e17ffe17 	ldw	r5,-8(fp)
1000fb84:	e13ffb17 	ldw	r4,-20(fp)
1000fb88:	103ee83a 	callr	r2
1000fb8c:	e0bffc15 	stw	r2,-16(fp)
1000fb90:	e0bffc17 	ldw	r2,-16(fp)
1000fb94:	1000070e 	bge	r2,zero,1000fbb4 <write+0xbc>
      {
        ALT_ERRNO = -rval;
1000fb98:	000fabc0 	call	1000fabc <alt_get_errno>
1000fb9c:	1007883a 	mov	r3,r2
1000fba0:	e0bffc17 	ldw	r2,-16(fp)
1000fba4:	0085c83a 	sub	r2,zero,r2
1000fba8:	18800015 	stw	r2,0(r3)
        return -1;
1000fbac:	00bfffc4 	movi	r2,-1
1000fbb0:	00000c06 	br	1000fbe4 <write+0xec>
      }
      return rval;
1000fbb4:	e0bffc17 	ldw	r2,-16(fp)
1000fbb8:	00000a06 	br	1000fbe4 <write+0xec>
    }
    else
    {
      ALT_ERRNO = EACCES;
1000fbbc:	000fabc0 	call	1000fabc <alt_get_errno>
1000fbc0:	1007883a 	mov	r3,r2
1000fbc4:	00800344 	movi	r2,13
1000fbc8:	18800015 	stw	r2,0(r3)
1000fbcc:	00000406 	br	1000fbe0 <write+0xe8>
    }
  }
  else  
  {
    ALT_ERRNO = EBADFD;
1000fbd0:	000fabc0 	call	1000fabc <alt_get_errno>
1000fbd4:	1007883a 	mov	r3,r2
1000fbd8:	00801444 	movi	r2,81
1000fbdc:	18800015 	stw	r2,0(r3)
  }
  return -1;
1000fbe0:	00bfffc4 	movi	r2,-1
}
1000fbe4:	e037883a 	mov	sp,fp
1000fbe8:	dfc00117 	ldw	ra,4(sp)
1000fbec:	df000017 	ldw	fp,0(sp)
1000fbf0:	dec00204 	addi	sp,sp,8
1000fbf4:	f800283a 	ret

1000fbf8 <alt_dev_reg>:
 */

extern int alt_fs_reg  (alt_dev* dev); 

static ALT_INLINE int alt_dev_reg (alt_dev* dev)
{
1000fbf8:	defffd04 	addi	sp,sp,-12
1000fbfc:	dfc00215 	stw	ra,8(sp)
1000fc00:	df000115 	stw	fp,4(sp)
1000fc04:	df000104 	addi	fp,sp,4
1000fc08:	e13fff15 	stw	r4,-4(fp)
  extern alt_llist alt_dev_list;

  return alt_dev_llist_insert ((alt_dev_llist*) dev, &alt_dev_list);
1000fc0c:	d1600804 	addi	r5,gp,-32736
1000fc10:	e13fff17 	ldw	r4,-4(fp)
1000fc14:	00109f80 	call	100109f8 <alt_dev_llist_insert>
}
1000fc18:	e037883a 	mov	sp,fp
1000fc1c:	dfc00117 	ldw	ra,4(sp)
1000fc20:	df000017 	ldw	fp,0(sp)
1000fc24:	dec00204 	addi	sp,sp,8
1000fc28:	f800283a 	ret

1000fc2c <alt_irq_init>:
 * The "base" parameter is ignored and only
 * present for backwards-compatibility.
 */

void alt_irq_init ( const void* base )
{
1000fc2c:	defffd04 	addi	sp,sp,-12
1000fc30:	dfc00215 	stw	ra,8(sp)
1000fc34:	df000115 	stw	fp,4(sp)
1000fc38:	df000104 	addi	fp,sp,4
1000fc3c:	e13fff15 	stw	r4,-4(fp)
    ALTERA_NIOS2_GEN2_IRQ_INIT ( NIOS2_GEN2_0, nios2_gen2_0);
1000fc40:	00113a40 	call	100113a4 <altera_nios2_gen2_irq_init>
 * alt_irq_cpu_enable_interrupts() enables the CPU to start taking interrupts.
 */
static ALT_INLINE void ALT_ALWAYS_INLINE 
       alt_irq_cpu_enable_interrupts (void)
{
    NIOS2_WRITE_STATUS(NIOS2_STATUS_PIE_MSK
1000fc44:	00800044 	movi	r2,1
1000fc48:	1001703a 	wrctl	status,r2
    alt_irq_cpu_enable_interrupts();
}
1000fc4c:	0001883a 	nop
1000fc50:	e037883a 	mov	sp,fp
1000fc54:	dfc00117 	ldw	ra,4(sp)
1000fc58:	df000017 	ldw	fp,0(sp)
1000fc5c:	dec00204 	addi	sp,sp,8
1000fc60:	f800283a 	ret

1000fc64 <alt_sys_init>:
 * Initialize the non-interrupt controller devices.
 * Called after alt_irq_init().
 */

void alt_sys_init( void )
{
1000fc64:	defffe04 	addi	sp,sp,-8
1000fc68:	dfc00115 	stw	ra,4(sp)
1000fc6c:	df000015 	stw	fp,0(sp)
1000fc70:	d839883a 	mov	fp,sp
    ALTERA_AVALON_JTAG_UART_INIT ( JTAG_UART_0, jtag_uart_0);
1000fc74:	01800144 	movi	r6,5
1000fc78:	000b883a 	mov	r5,zero
1000fc7c:	01040074 	movhi	r4,4097
1000fc80:	210bdb04 	addi	r4,r4,12140
1000fc84:	000fe140 	call	1000fe14 <altera_avalon_jtag_uart_init>
1000fc88:	01040074 	movhi	r4,4097
1000fc8c:	210bd104 	addi	r4,r4,12100
1000fc90:	000fbf80 	call	1000fbf8 <alt_dev_reg>
    ALTERA_AVALON_SYSID_QSYS_INIT ( SYSID_QSYS_0, sysid_qsys_0);
1000fc94:	0001883a 	nop
}
1000fc98:	0001883a 	nop
1000fc9c:	e037883a 	mov	sp,fp
1000fca0:	dfc00117 	ldw	ra,4(sp)
1000fca4:	df000017 	ldw	fp,0(sp)
1000fca8:	dec00204 	addi	sp,sp,8
1000fcac:	f800283a 	ret

1000fcb0 <altera_avalon_jtag_uart_read_fd>:
 *
 */

int 
altera_avalon_jtag_uart_read_fd(alt_fd* fd, char* buffer, int space)
{
1000fcb0:	defffa04 	addi	sp,sp,-24
1000fcb4:	dfc00515 	stw	ra,20(sp)
1000fcb8:	df000415 	stw	fp,16(sp)
1000fcbc:	df000404 	addi	fp,sp,16
1000fcc0:	e13ffd15 	stw	r4,-12(fp)
1000fcc4:	e17ffe15 	stw	r5,-8(fp)
1000fcc8:	e1bfff15 	stw	r6,-4(fp)
    altera_avalon_jtag_uart_dev* dev = (altera_avalon_jtag_uart_dev*) fd->dev; 
1000fccc:	e0bffd17 	ldw	r2,-12(fp)
1000fcd0:	10800017 	ldw	r2,0(r2)
1000fcd4:	e0bffc15 	stw	r2,-16(fp)

    return altera_avalon_jtag_uart_read(&dev->state, buffer, space,
1000fcd8:	e0bffc17 	ldw	r2,-16(fp)
1000fcdc:	10c00a04 	addi	r3,r2,40
1000fce0:	e0bffd17 	ldw	r2,-12(fp)
1000fce4:	10800217 	ldw	r2,8(r2)
1000fce8:	100f883a 	mov	r7,r2
1000fcec:	e1bfff17 	ldw	r6,-4(fp)
1000fcf0:	e17ffe17 	ldw	r5,-8(fp)
1000fcf4:	1809883a 	mov	r4,r3
1000fcf8:	00102d80 	call	100102d8 <altera_avalon_jtag_uart_read>
      fd->fd_flags);
}
1000fcfc:	e037883a 	mov	sp,fp
1000fd00:	dfc00117 	ldw	ra,4(sp)
1000fd04:	df000017 	ldw	fp,0(sp)
1000fd08:	dec00204 	addi	sp,sp,8
1000fd0c:	f800283a 	ret

1000fd10 <altera_avalon_jtag_uart_write_fd>:

int 
altera_avalon_jtag_uart_write_fd(alt_fd* fd, const char* buffer, int space)
{
1000fd10:	defffa04 	addi	sp,sp,-24
1000fd14:	dfc00515 	stw	ra,20(sp)
1000fd18:	df000415 	stw	fp,16(sp)
1000fd1c:	df000404 	addi	fp,sp,16
1000fd20:	e13ffd15 	stw	r4,-12(fp)
1000fd24:	e17ffe15 	stw	r5,-8(fp)
1000fd28:	e1bfff15 	stw	r6,-4(fp)
    altera_avalon_jtag_uart_dev* dev = (altera_avalon_jtag_uart_dev*) fd->dev; 
1000fd2c:	e0bffd17 	ldw	r2,-12(fp)
1000fd30:	10800017 	ldw	r2,0(r2)
1000fd34:	e0bffc15 	stw	r2,-16(fp)

    return altera_avalon_jtag_uart_write(&dev->state, buffer, space,
1000fd38:	e0bffc17 	ldw	r2,-16(fp)
1000fd3c:	10c00a04 	addi	r3,r2,40
1000fd40:	e0bffd17 	ldw	r2,-12(fp)
1000fd44:	10800217 	ldw	r2,8(r2)
1000fd48:	100f883a 	mov	r7,r2
1000fd4c:	e1bfff17 	ldw	r6,-4(fp)
1000fd50:	e17ffe17 	ldw	r5,-8(fp)
1000fd54:	1809883a 	mov	r4,r3
1000fd58:	00104f40 	call	100104f4 <altera_avalon_jtag_uart_write>
      fd->fd_flags);
}
1000fd5c:	e037883a 	mov	sp,fp
1000fd60:	dfc00117 	ldw	ra,4(sp)
1000fd64:	df000017 	ldw	fp,0(sp)
1000fd68:	dec00204 	addi	sp,sp,8
1000fd6c:	f800283a 	ret

1000fd70 <altera_avalon_jtag_uart_close_fd>:

#ifndef ALTERA_AVALON_JTAG_UART_SMALL

int 
altera_avalon_jtag_uart_close_fd(alt_fd* fd)
{
1000fd70:	defffc04 	addi	sp,sp,-16
1000fd74:	dfc00315 	stw	ra,12(sp)
1000fd78:	df000215 	stw	fp,8(sp)
1000fd7c:	df000204 	addi	fp,sp,8
1000fd80:	e13fff15 	stw	r4,-4(fp)
    altera_avalon_jtag_uart_dev* dev = (altera_avalon_jtag_uart_dev*) fd->dev; 
1000fd84:	e0bfff17 	ldw	r2,-4(fp)
1000fd88:	10800017 	ldw	r2,0(r2)
1000fd8c:	e0bffe15 	stw	r2,-8(fp)

    return altera_avalon_jtag_uart_close(&dev->state, fd->fd_flags);
1000fd90:	e0bffe17 	ldw	r2,-8(fp)
1000fd94:	10c00a04 	addi	r3,r2,40
1000fd98:	e0bfff17 	ldw	r2,-4(fp)
1000fd9c:	10800217 	ldw	r2,8(r2)
1000fda0:	100b883a 	mov	r5,r2
1000fda4:	1809883a 	mov	r4,r3
1000fda8:	00101800 	call	10010180 <altera_avalon_jtag_uart_close>
}
1000fdac:	e037883a 	mov	sp,fp
1000fdb0:	dfc00117 	ldw	ra,4(sp)
1000fdb4:	df000017 	ldw	fp,0(sp)
1000fdb8:	dec00204 	addi	sp,sp,8
1000fdbc:	f800283a 	ret

1000fdc0 <altera_avalon_jtag_uart_ioctl_fd>:

int 
altera_avalon_jtag_uart_ioctl_fd(alt_fd* fd, int req, void* arg)
{
1000fdc0:	defffa04 	addi	sp,sp,-24
1000fdc4:	dfc00515 	stw	ra,20(sp)
1000fdc8:	df000415 	stw	fp,16(sp)
1000fdcc:	df000404 	addi	fp,sp,16
1000fdd0:	e13ffd15 	stw	r4,-12(fp)
1000fdd4:	e17ffe15 	stw	r5,-8(fp)
1000fdd8:	e1bfff15 	stw	r6,-4(fp)
    altera_avalon_jtag_uart_dev* dev = (altera_avalon_jtag_uart_dev*) fd->dev;
1000fddc:	e0bffd17 	ldw	r2,-12(fp)
1000fde0:	10800017 	ldw	r2,0(r2)
1000fde4:	e0bffc15 	stw	r2,-16(fp)

    return altera_avalon_jtag_uart_ioctl(&dev->state, req, arg);
1000fde8:	e0bffc17 	ldw	r2,-16(fp)
1000fdec:	10800a04 	addi	r2,r2,40
1000fdf0:	e1bfff17 	ldw	r6,-4(fp)
1000fdf4:	e17ffe17 	ldw	r5,-8(fp)
1000fdf8:	1009883a 	mov	r4,r2
1000fdfc:	00101e80 	call	100101e8 <altera_avalon_jtag_uart_ioctl>
}
1000fe00:	e037883a 	mov	sp,fp
1000fe04:	dfc00117 	ldw	ra,4(sp)
1000fe08:	df000017 	ldw	fp,0(sp)
1000fe0c:	dec00204 	addi	sp,sp,8
1000fe10:	f800283a 	ret

1000fe14 <altera_avalon_jtag_uart_init>:
 * Return 1 on sucessful IRQ register and 0 on failure.
 */

void altera_avalon_jtag_uart_init(altera_avalon_jtag_uart_state* sp, 
                                  int irq_controller_id, int irq)
{
1000fe14:	defffa04 	addi	sp,sp,-24
1000fe18:	dfc00515 	stw	ra,20(sp)
1000fe1c:	df000415 	stw	fp,16(sp)
1000fe20:	df000404 	addi	fp,sp,16
1000fe24:	e13ffd15 	stw	r4,-12(fp)
1000fe28:	e17ffe15 	stw	r5,-8(fp)
1000fe2c:	e1bfff15 	stw	r6,-4(fp)
  ALT_FLAG_CREATE(&sp->events, 0);
  ALT_SEM_CREATE(&sp->read_lock, 1);
  ALT_SEM_CREATE(&sp->write_lock, 1);

  /* enable read interrupts at the device */
  sp->irq_enable = ALTERA_AVALON_JTAG_UART_CONTROL_RE_MSK;
1000fe30:	e0bffd17 	ldw	r2,-12(fp)
1000fe34:	00c00044 	movi	r3,1
1000fe38:	10c00815 	stw	r3,32(r2)

  IOWR_ALTERA_AVALON_JTAG_UART_CONTROL(sp->base, sp->irq_enable); 
1000fe3c:	e0bffd17 	ldw	r2,-12(fp)
1000fe40:	10800017 	ldw	r2,0(r2)
1000fe44:	10800104 	addi	r2,r2,4
1000fe48:	1007883a 	mov	r3,r2
1000fe4c:	e0bffd17 	ldw	r2,-12(fp)
1000fe50:	10800817 	ldw	r2,32(r2)
1000fe54:	18800035 	stwio	r2,0(r3)
  
  /* register the interrupt handler */
#ifdef ALT_ENHANCED_INTERRUPT_API_PRESENT
  alt_ic_isr_register(irq_controller_id, irq, altera_avalon_jtag_uart_irq, 
1000fe58:	e0bffe17 	ldw	r2,-8(fp)
1000fe5c:	e0ffff17 	ldw	r3,-4(fp)
1000fe60:	d8000015 	stw	zero,0(sp)
1000fe64:	e1fffd17 	ldw	r7,-12(fp)
1000fe68:	01840074 	movhi	r6,4097
1000fe6c:	31bfb504 	addi	r6,r6,-300
1000fe70:	180b883a 	mov	r5,r3
1000fe74:	1009883a 	mov	r4,r2
1000fe78:	0010b7c0 	call	10010b7c <alt_ic_isr_register>
#else
  alt_irq_register(irq, sp, altera_avalon_jtag_uart_irq);
#endif  

  /* Register an alarm to go off every second to check for presence of host */
  sp->host_inactive = 0;
1000fe7c:	e0bffd17 	ldw	r2,-12(fp)
1000fe80:	10000915 	stw	zero,36(r2)

  if (alt_alarm_start(&sp->alarm, alt_ticks_per_second(), 
1000fe84:	e0bffd17 	ldw	r2,-12(fp)
1000fe88:	10800204 	addi	r2,r2,8
 * Obtain the system clock rate in ticks/s. 
 */

static ALT_INLINE alt_u32 ALT_ALWAYS_INLINE alt_ticks_per_second (void)
{
  return _alt_tick_rate;
1000fe8c:	d0e6d717 	ldw	r3,-25764(gp)
1000fe90:	e1fffd17 	ldw	r7,-12(fp)
1000fe94:	01840074 	movhi	r6,4097
1000fe98:	31803804 	addi	r6,r6,224
1000fe9c:	180b883a 	mov	r5,r3
1000fea0:	1009883a 	mov	r4,r2
1000fea4:	00107180 	call	10010718 <alt_alarm_start>
1000fea8:	1000040e 	bge	r2,zero,1000febc <altera_avalon_jtag_uart_init+0xa8>
    &altera_avalon_jtag_uart_timeout, sp) < 0)
  {
    /* If we can't set the alarm then record "don't know if host present" 
     * and behave as though the host is present.
     */
    sp->timeout = INT_MAX;
1000feac:	e0fffd17 	ldw	r3,-12(fp)
1000feb0:	00a00034 	movhi	r2,32768
1000feb4:	10bfffc4 	addi	r2,r2,-1
1000feb8:	18800115 	stw	r2,4(r3)
  }

  /* ALT_LOG - see altera_hal/HAL/inc/sys/alt_log_printf.h */ 
  ALT_LOG_JTAG_UART_ALARM_REGISTER(sp, sp->base);
}
1000febc:	0001883a 	nop
1000fec0:	e037883a 	mov	sp,fp
1000fec4:	dfc00117 	ldw	ra,4(sp)
1000fec8:	df000017 	ldw	fp,0(sp)
1000fecc:	dec00204 	addi	sp,sp,8
1000fed0:	f800283a 	ret

1000fed4 <altera_avalon_jtag_uart_irq>:
#ifdef ALT_ENHANCED_INTERRUPT_API_PRESENT
static void altera_avalon_jtag_uart_irq(void* context)
#else
static void altera_avalon_jtag_uart_irq(void* context, alt_u32 id)
#endif
{
1000fed4:	defff804 	addi	sp,sp,-32
1000fed8:	df000715 	stw	fp,28(sp)
1000fedc:	df000704 	addi	fp,sp,28
1000fee0:	e13fff15 	stw	r4,-4(fp)
  altera_avalon_jtag_uart_state* sp = (altera_avalon_jtag_uart_state*) context;
1000fee4:	e0bfff17 	ldw	r2,-4(fp)
1000fee8:	e0bffb15 	stw	r2,-20(fp)
  unsigned int base = sp->base;
1000feec:	e0bffb17 	ldw	r2,-20(fp)
1000fef0:	10800017 	ldw	r2,0(r2)
1000fef4:	e0bffc15 	stw	r2,-16(fp)
  /* ALT_LOG - see altera_hal/HAL/inc/sys/alt_log_printf.h */ 
  ALT_LOG_JTAG_UART_ISR_FUNCTION(base, sp);

  for ( ; ; )
  {
    unsigned int control = IORD_ALTERA_AVALON_JTAG_UART_CONTROL(base);
1000fef8:	e0bffc17 	ldw	r2,-16(fp)
1000fefc:	10800104 	addi	r2,r2,4
1000ff00:	10800037 	ldwio	r2,0(r2)
1000ff04:	e0bffd15 	stw	r2,-12(fp)

    /* Return once nothing more to do */
    if ((control & (ALTERA_AVALON_JTAG_UART_CONTROL_RI_MSK | ALTERA_AVALON_JTAG_UART_CONTROL_WI_MSK)) == 0)
1000ff08:	e0bffd17 	ldw	r2,-12(fp)
1000ff0c:	1080c00c 	andi	r2,r2,768
1000ff10:	10006d26 	beq	r2,zero,100100c8 <altera_avalon_jtag_uart_irq+0x1f4>
      break;

    if (control & ALTERA_AVALON_JTAG_UART_CONTROL_RI_MSK)
1000ff14:	e0bffd17 	ldw	r2,-12(fp)
1000ff18:	1080400c 	andi	r2,r2,256
1000ff1c:	10003526 	beq	r2,zero,1000fff4 <altera_avalon_jtag_uart_irq+0x120>
    {
      /* process a read irq.  Start by assuming that there is data in the
       * receive FIFO (otherwise why would we have been interrupted?)
       */
      unsigned int data = 1 << ALTERA_AVALON_JTAG_UART_DATA_RAVAIL_OFST;
1000ff20:	00800074 	movhi	r2,1
1000ff24:	e0bff915 	stw	r2,-28(fp)
      for ( ; ; )
      {
        /* Check whether there is space in the buffer.  If not then we must not
         * read any characters from the buffer as they will be lost.
         */
        unsigned int next = (sp->rx_in + 1) % ALTERA_AVALON_JTAG_UART_BUF_LEN;
1000ff28:	e0bffb17 	ldw	r2,-20(fp)
1000ff2c:	10800a17 	ldw	r2,40(r2)
1000ff30:	10800044 	addi	r2,r2,1
1000ff34:	1081ffcc 	andi	r2,r2,2047
1000ff38:	e0bffe15 	stw	r2,-8(fp)
        if (next == sp->rx_out)
1000ff3c:	e0bffb17 	ldw	r2,-20(fp)
1000ff40:	10c00b17 	ldw	r3,44(r2)
1000ff44:	e0bffe17 	ldw	r2,-8(fp)
1000ff48:	18801526 	beq	r3,r2,1000ffa0 <altera_avalon_jtag_uart_irq+0xcc>
          break;

        /* Try to remove a character from the FIFO and find out whether there
         * are any more characters remaining.
         */
        data = IORD_ALTERA_AVALON_JTAG_UART_DATA(base);
1000ff4c:	e0bffc17 	ldw	r2,-16(fp)
1000ff50:	10800037 	ldwio	r2,0(r2)
1000ff54:	e0bff915 	stw	r2,-28(fp)
        
        if ((data & ALTERA_AVALON_JTAG_UART_DATA_RVALID_MSK) == 0)
1000ff58:	e0bff917 	ldw	r2,-28(fp)
1000ff5c:	10a0000c 	andi	r2,r2,32768
1000ff60:	10001126 	beq	r2,zero,1000ffa8 <altera_avalon_jtag_uart_irq+0xd4>
          break;

        sp->rx_buf[sp->rx_in] = (data & ALTERA_AVALON_JTAG_UART_DATA_DATA_MSK) >> ALTERA_AVALON_JTAG_UART_DATA_DATA_OFST;
1000ff64:	e0bffb17 	ldw	r2,-20(fp)
1000ff68:	10800a17 	ldw	r2,40(r2)
1000ff6c:	e0fff917 	ldw	r3,-28(fp)
1000ff70:	1809883a 	mov	r4,r3
1000ff74:	e0fffb17 	ldw	r3,-20(fp)
1000ff78:	1885883a 	add	r2,r3,r2
1000ff7c:	10800e04 	addi	r2,r2,56
1000ff80:	11000005 	stb	r4,0(r2)
        sp->rx_in = (sp->rx_in + 1) % ALTERA_AVALON_JTAG_UART_BUF_LEN;
1000ff84:	e0bffb17 	ldw	r2,-20(fp)
1000ff88:	10800a17 	ldw	r2,40(r2)
1000ff8c:	10800044 	addi	r2,r2,1
1000ff90:	10c1ffcc 	andi	r3,r2,2047
1000ff94:	e0bffb17 	ldw	r2,-20(fp)
1000ff98:	10c00a15 	stw	r3,40(r2)

        /* Post an event to notify jtag_uart_read that a character has been read */
        ALT_FLAG_POST (sp->events, ALT_JTAG_UART_READ_RDY, OS_FLAG_SET);
      }
1000ff9c:	003fe206 	br	1000ff28 <__alt_data_end+0xf800ff28>
        /* Check whether there is space in the buffer.  If not then we must not
         * read any characters from the buffer as they will be lost.
         */
        unsigned int next = (sp->rx_in + 1) % ALTERA_AVALON_JTAG_UART_BUF_LEN;
        if (next == sp->rx_out)
          break;
1000ffa0:	0001883a 	nop
1000ffa4:	00000106 	br	1000ffac <altera_avalon_jtag_uart_irq+0xd8>
         * are any more characters remaining.
         */
        data = IORD_ALTERA_AVALON_JTAG_UART_DATA(base);
        
        if ((data & ALTERA_AVALON_JTAG_UART_DATA_RVALID_MSK) == 0)
          break;
1000ffa8:	0001883a 	nop

        /* Post an event to notify jtag_uart_read that a character has been read */
        ALT_FLAG_POST (sp->events, ALT_JTAG_UART_READ_RDY, OS_FLAG_SET);
      }

      if (data & ALTERA_AVALON_JTAG_UART_DATA_RAVAIL_MSK)
1000ffac:	e0bff917 	ldw	r2,-28(fp)
1000ffb0:	10bfffec 	andhi	r2,r2,65535
1000ffb4:	10000f26 	beq	r2,zero,1000fff4 <altera_avalon_jtag_uart_irq+0x120>
      {
        /* If there is still data available here then the buffer is full 
         * so turn off receive interrupts until some space becomes available.
         */
        sp->irq_enable &= ~ALTERA_AVALON_JTAG_UART_CONTROL_RE_MSK;
1000ffb8:	e0bffb17 	ldw	r2,-20(fp)
1000ffbc:	10c00817 	ldw	r3,32(r2)
1000ffc0:	00bfff84 	movi	r2,-2
1000ffc4:	1886703a 	and	r3,r3,r2
1000ffc8:	e0bffb17 	ldw	r2,-20(fp)
1000ffcc:	10c00815 	stw	r3,32(r2)
        IOWR_ALTERA_AVALON_JTAG_UART_CONTROL(base, sp->irq_enable);
1000ffd0:	e0bffc17 	ldw	r2,-16(fp)
1000ffd4:	10800104 	addi	r2,r2,4
1000ffd8:	1007883a 	mov	r3,r2
1000ffdc:	e0bffb17 	ldw	r2,-20(fp)
1000ffe0:	10800817 	ldw	r2,32(r2)
1000ffe4:	18800035 	stwio	r2,0(r3)
        
        /* Dummy read to ensure IRQ is cleared prior to ISR completion */
        IORD_ALTERA_AVALON_JTAG_UART_CONTROL(base);
1000ffe8:	e0bffc17 	ldw	r2,-16(fp)
1000ffec:	10800104 	addi	r2,r2,4
1000fff0:	10800037 	ldwio	r2,0(r2)
      }
    }

    if (control & ALTERA_AVALON_JTAG_UART_CONTROL_WI_MSK)
1000fff4:	e0bffd17 	ldw	r2,-12(fp)
1000fff8:	1080800c 	andi	r2,r2,512
1000fffc:	103fbe26 	beq	r2,zero,1000fef8 <__alt_data_end+0xf800fef8>
    {
      /* process a write irq */
      unsigned int space = (control & ALTERA_AVALON_JTAG_UART_CONTROL_WSPACE_MSK) >> ALTERA_AVALON_JTAG_UART_CONTROL_WSPACE_OFST;
10010000:	e0bffd17 	ldw	r2,-12(fp)
10010004:	1004d43a 	srli	r2,r2,16
10010008:	e0bffa15 	stw	r2,-24(fp)

      while (space > 0 && sp->tx_out != sp->tx_in)
1001000c:	00001406 	br	10010060 <altera_avalon_jtag_uart_irq+0x18c>
      {
        IOWR_ALTERA_AVALON_JTAG_UART_DATA(base, sp->tx_buf[sp->tx_out]);
10010010:	e0bffc17 	ldw	r2,-16(fp)
10010014:	e0fffb17 	ldw	r3,-20(fp)
10010018:	18c00d17 	ldw	r3,52(r3)
1001001c:	e13ffb17 	ldw	r4,-20(fp)
10010020:	20c7883a 	add	r3,r4,r3
10010024:	18c20e04 	addi	r3,r3,2104
10010028:	18c00003 	ldbu	r3,0(r3)
1001002c:	18c03fcc 	andi	r3,r3,255
10010030:	18c0201c 	xori	r3,r3,128
10010034:	18ffe004 	addi	r3,r3,-128
10010038:	10c00035 	stwio	r3,0(r2)

        sp->tx_out = (sp->tx_out + 1) % ALTERA_AVALON_JTAG_UART_BUF_LEN;
1001003c:	e0bffb17 	ldw	r2,-20(fp)
10010040:	10800d17 	ldw	r2,52(r2)
10010044:	10800044 	addi	r2,r2,1
10010048:	10c1ffcc 	andi	r3,r2,2047
1001004c:	e0bffb17 	ldw	r2,-20(fp)
10010050:	10c00d15 	stw	r3,52(r2)

        /* Post an event to notify jtag_uart_write that a character has been written */
        ALT_FLAG_POST (sp->events, ALT_JTAG_UART_WRITE_RDY, OS_FLAG_SET);

        space--;
10010054:	e0bffa17 	ldw	r2,-24(fp)
10010058:	10bfffc4 	addi	r2,r2,-1
1001005c:	e0bffa15 	stw	r2,-24(fp)
    if (control & ALTERA_AVALON_JTAG_UART_CONTROL_WI_MSK)
    {
      /* process a write irq */
      unsigned int space = (control & ALTERA_AVALON_JTAG_UART_CONTROL_WSPACE_MSK) >> ALTERA_AVALON_JTAG_UART_CONTROL_WSPACE_OFST;

      while (space > 0 && sp->tx_out != sp->tx_in)
10010060:	e0bffa17 	ldw	r2,-24(fp)
10010064:	10000526 	beq	r2,zero,1001007c <altera_avalon_jtag_uart_irq+0x1a8>
10010068:	e0bffb17 	ldw	r2,-20(fp)
1001006c:	10c00d17 	ldw	r3,52(r2)
10010070:	e0bffb17 	ldw	r2,-20(fp)
10010074:	10800c17 	ldw	r2,48(r2)
10010078:	18bfe51e 	bne	r3,r2,10010010 <__alt_data_end+0xf8010010>
        ALT_FLAG_POST (sp->events, ALT_JTAG_UART_WRITE_RDY, OS_FLAG_SET);

        space--;
      }

      if (space > 0)
1001007c:	e0bffa17 	ldw	r2,-24(fp)
10010080:	103f9d26 	beq	r2,zero,1000fef8 <__alt_data_end+0xf800fef8>
      {
        /* If we don't have any more data available then turn off the TX interrupt */
        sp->irq_enable &= ~ALTERA_AVALON_JTAG_UART_CONTROL_WE_MSK;
10010084:	e0bffb17 	ldw	r2,-20(fp)
10010088:	10c00817 	ldw	r3,32(r2)
1001008c:	00bfff44 	movi	r2,-3
10010090:	1886703a 	and	r3,r3,r2
10010094:	e0bffb17 	ldw	r2,-20(fp)
10010098:	10c00815 	stw	r3,32(r2)
        IOWR_ALTERA_AVALON_JTAG_UART_CONTROL(sp->base, sp->irq_enable);
1001009c:	e0bffb17 	ldw	r2,-20(fp)
100100a0:	10800017 	ldw	r2,0(r2)
100100a4:	10800104 	addi	r2,r2,4
100100a8:	1007883a 	mov	r3,r2
100100ac:	e0bffb17 	ldw	r2,-20(fp)
100100b0:	10800817 	ldw	r2,32(r2)
100100b4:	18800035 	stwio	r2,0(r3)
        
        /* Dummy read to ensure IRQ is cleared prior to ISR completion */
        IORD_ALTERA_AVALON_JTAG_UART_CONTROL(base);
100100b8:	e0bffc17 	ldw	r2,-16(fp)
100100bc:	10800104 	addi	r2,r2,4
100100c0:	10800037 	ldwio	r2,0(r2)
      }
    }
  }
100100c4:	003f8c06 	br	1000fef8 <__alt_data_end+0xf800fef8>
  {
    unsigned int control = IORD_ALTERA_AVALON_JTAG_UART_CONTROL(base);

    /* Return once nothing more to do */
    if ((control & (ALTERA_AVALON_JTAG_UART_CONTROL_RI_MSK | ALTERA_AVALON_JTAG_UART_CONTROL_WI_MSK)) == 0)
      break;
100100c8:	0001883a 	nop
        /* Dummy read to ensure IRQ is cleared prior to ISR completion */
        IORD_ALTERA_AVALON_JTAG_UART_CONTROL(base);
      }
    }
  }
}
100100cc:	0001883a 	nop
100100d0:	e037883a 	mov	sp,fp
100100d4:	df000017 	ldw	fp,0(sp)
100100d8:	dec00104 	addi	sp,sp,4
100100dc:	f800283a 	ret

100100e0 <altera_avalon_jtag_uart_timeout>:
 * Timeout routine is called every second
 */

static alt_u32 
altera_avalon_jtag_uart_timeout(void* context) 
{
100100e0:	defff804 	addi	sp,sp,-32
100100e4:	df000715 	stw	fp,28(sp)
100100e8:	df000704 	addi	fp,sp,28
100100ec:	e13ffb15 	stw	r4,-20(fp)
  altera_avalon_jtag_uart_state* sp = (altera_avalon_jtag_uart_state *) context;
100100f0:	e0bffb17 	ldw	r2,-20(fp)
100100f4:	e0bff915 	stw	r2,-28(fp)

  unsigned int control = IORD_ALTERA_AVALON_JTAG_UART_CONTROL(sp->base);
100100f8:	e0bff917 	ldw	r2,-28(fp)
100100fc:	10800017 	ldw	r2,0(r2)
10010100:	10800104 	addi	r2,r2,4
10010104:	10800037 	ldwio	r2,0(r2)
10010108:	e0bffa15 	stw	r2,-24(fp)

  if (control & ALTERA_AVALON_JTAG_UART_CONTROL_AC_MSK)
1001010c:	e0bffa17 	ldw	r2,-24(fp)
10010110:	1081000c 	andi	r2,r2,1024
10010114:	10000b26 	beq	r2,zero,10010144 <altera_avalon_jtag_uart_timeout+0x64>
  {
    IOWR_ALTERA_AVALON_JTAG_UART_CONTROL(sp->base, sp->irq_enable | ALTERA_AVALON_JTAG_UART_CONTROL_AC_MSK);
10010118:	e0bff917 	ldw	r2,-28(fp)
1001011c:	10800017 	ldw	r2,0(r2)
10010120:	10800104 	addi	r2,r2,4
10010124:	1007883a 	mov	r3,r2
10010128:	e0bff917 	ldw	r2,-28(fp)
1001012c:	10800817 	ldw	r2,32(r2)
10010130:	10810014 	ori	r2,r2,1024
10010134:	18800035 	stwio	r2,0(r3)
    sp->host_inactive = 0;
10010138:	e0bff917 	ldw	r2,-28(fp)
1001013c:	10000915 	stw	zero,36(r2)
10010140:	00000a06 	br	1001016c <altera_avalon_jtag_uart_timeout+0x8c>
  }
  else if (sp->host_inactive < INT_MAX - 2) {
10010144:	e0bff917 	ldw	r2,-28(fp)
10010148:	10c00917 	ldw	r3,36(r2)
1001014c:	00a00034 	movhi	r2,32768
10010150:	10bfff04 	addi	r2,r2,-4
10010154:	10c00536 	bltu	r2,r3,1001016c <altera_avalon_jtag_uart_timeout+0x8c>
    sp->host_inactive++;
10010158:	e0bff917 	ldw	r2,-28(fp)
1001015c:	10800917 	ldw	r2,36(r2)
10010160:	10c00044 	addi	r3,r2,1
10010164:	e0bff917 	ldw	r2,-28(fp)
10010168:	10c00915 	stw	r3,36(r2)
1001016c:	d0a6d717 	ldw	r2,-25764(gp)
      ALT_FLAG_POST (sp->events, ALT_JTAG_UART_TIMEOUT, OS_FLAG_SET);
    }
  }

  return alt_ticks_per_second();
}
10010170:	e037883a 	mov	sp,fp
10010174:	df000017 	ldw	fp,0(sp)
10010178:	dec00104 	addi	sp,sp,4
1001017c:	f800283a 	ret

10010180 <altera_avalon_jtag_uart_close>:
 * The close routine is not implemented for the small driver; instead it will
 * map to null. This is because the small driver simply waits while characters
 * are transmitted; there is no interrupt-serviced buffer to empty 
 */
int altera_avalon_jtag_uart_close(altera_avalon_jtag_uart_state* sp, int flags)
{
10010180:	defffd04 	addi	sp,sp,-12
10010184:	df000215 	stw	fp,8(sp)
10010188:	df000204 	addi	fp,sp,8
1001018c:	e13ffe15 	stw	r4,-8(fp)
10010190:	e17fff15 	stw	r5,-4(fp)
  /* 
   * Wait for all transmit data to be emptied by the JTAG UART ISR, or
   * for a host-inactivity timeout, in which case transmit data will be lost
   */
  while ( (sp->tx_out != sp->tx_in) && (sp->host_inactive < sp->timeout) ) {
10010194:	00000506 	br	100101ac <altera_avalon_jtag_uart_close+0x2c>
    if (flags & O_NONBLOCK) {
10010198:	e0bfff17 	ldw	r2,-4(fp)
1001019c:	1090000c 	andi	r2,r2,16384
100101a0:	10000226 	beq	r2,zero,100101ac <altera_avalon_jtag_uart_close+0x2c>
      return -EWOULDBLOCK; 
100101a4:	00bffd44 	movi	r2,-11
100101a8:	00000b06 	br	100101d8 <altera_avalon_jtag_uart_close+0x58>
{
  /* 
   * Wait for all transmit data to be emptied by the JTAG UART ISR, or
   * for a host-inactivity timeout, in which case transmit data will be lost
   */
  while ( (sp->tx_out != sp->tx_in) && (sp->host_inactive < sp->timeout) ) {
100101ac:	e0bffe17 	ldw	r2,-8(fp)
100101b0:	10c00d17 	ldw	r3,52(r2)
100101b4:	e0bffe17 	ldw	r2,-8(fp)
100101b8:	10800c17 	ldw	r2,48(r2)
100101bc:	18800526 	beq	r3,r2,100101d4 <altera_avalon_jtag_uart_close+0x54>
100101c0:	e0bffe17 	ldw	r2,-8(fp)
100101c4:	10c00917 	ldw	r3,36(r2)
100101c8:	e0bffe17 	ldw	r2,-8(fp)
100101cc:	10800117 	ldw	r2,4(r2)
100101d0:	18bff136 	bltu	r3,r2,10010198 <__alt_data_end+0xf8010198>
    if (flags & O_NONBLOCK) {
      return -EWOULDBLOCK; 
    }
  }

  return 0;
100101d4:	0005883a 	mov	r2,zero
}
100101d8:	e037883a 	mov	sp,fp
100101dc:	df000017 	ldw	fp,0(sp)
100101e0:	dec00104 	addi	sp,sp,4
100101e4:	f800283a 	ret

100101e8 <altera_avalon_jtag_uart_ioctl>:
/* ----------------------------------------------------------- */

int 
altera_avalon_jtag_uart_ioctl(altera_avalon_jtag_uart_state* sp, int req,
  void* arg)
{
100101e8:	defffa04 	addi	sp,sp,-24
100101ec:	df000515 	stw	fp,20(sp)
100101f0:	df000504 	addi	fp,sp,20
100101f4:	e13ffd15 	stw	r4,-12(fp)
100101f8:	e17ffe15 	stw	r5,-8(fp)
100101fc:	e1bfff15 	stw	r6,-4(fp)
  int rc = -ENOTTY;
10010200:	00bff9c4 	movi	r2,-25
10010204:	e0bffb15 	stw	r2,-20(fp)

  switch (req)
10010208:	e0bffe17 	ldw	r2,-8(fp)
1001020c:	10da8060 	cmpeqi	r3,r2,27137
10010210:	1800031e 	bne	r3,zero,10010220 <altera_avalon_jtag_uart_ioctl+0x38>
10010214:	109a80a0 	cmpeqi	r2,r2,27138
10010218:	1000181e 	bne	r2,zero,1001027c <altera_avalon_jtag_uart_ioctl+0x94>
      rc = 0;
    }
    break;

  default:
    break;
1001021c:	00002906 	br	100102c4 <altera_avalon_jtag_uart_ioctl+0xdc>

  switch (req)
  {
  case TIOCSTIMEOUT:
    /* Set the time to wait until assuming host is not connected */
    if (sp->timeout != INT_MAX)
10010220:	e0bffd17 	ldw	r2,-12(fp)
10010224:	10c00117 	ldw	r3,4(r2)
10010228:	00a00034 	movhi	r2,32768
1001022c:	10bfffc4 	addi	r2,r2,-1
10010230:	18802126 	beq	r3,r2,100102b8 <altera_avalon_jtag_uart_ioctl+0xd0>
    {
      int timeout = *((int *)arg);
10010234:	e0bfff17 	ldw	r2,-4(fp)
10010238:	10800017 	ldw	r2,0(r2)
1001023c:	e0bffc15 	stw	r2,-16(fp)
      sp->timeout = (timeout >= 2 && timeout < INT_MAX) ? timeout : INT_MAX - 1;
10010240:	e0bffc17 	ldw	r2,-16(fp)
10010244:	10800090 	cmplti	r2,r2,2
10010248:	1000061e 	bne	r2,zero,10010264 <altera_avalon_jtag_uart_ioctl+0x7c>
1001024c:	e0fffc17 	ldw	r3,-16(fp)
10010250:	00a00034 	movhi	r2,32768
10010254:	10bfffc4 	addi	r2,r2,-1
10010258:	18800226 	beq	r3,r2,10010264 <altera_avalon_jtag_uart_ioctl+0x7c>
1001025c:	e0bffc17 	ldw	r2,-16(fp)
10010260:	00000206 	br	1001026c <altera_avalon_jtag_uart_ioctl+0x84>
10010264:	00a00034 	movhi	r2,32768
10010268:	10bfff84 	addi	r2,r2,-2
1001026c:	e0fffd17 	ldw	r3,-12(fp)
10010270:	18800115 	stw	r2,4(r3)
      rc = 0;
10010274:	e03ffb15 	stw	zero,-20(fp)
    }
    break;
10010278:	00000f06 	br	100102b8 <altera_avalon_jtag_uart_ioctl+0xd0>

  case TIOCGCONNECTED:
    /* Find out whether host is connected */
    if (sp->timeout != INT_MAX)
1001027c:	e0bffd17 	ldw	r2,-12(fp)
10010280:	10c00117 	ldw	r3,4(r2)
10010284:	00a00034 	movhi	r2,32768
10010288:	10bfffc4 	addi	r2,r2,-1
1001028c:	18800c26 	beq	r3,r2,100102c0 <altera_avalon_jtag_uart_ioctl+0xd8>
    {
      *((int *)arg) = (sp->host_inactive < sp->timeout) ? 1 : 0;
10010290:	e0bffd17 	ldw	r2,-12(fp)
10010294:	10c00917 	ldw	r3,36(r2)
10010298:	e0bffd17 	ldw	r2,-12(fp)
1001029c:	10800117 	ldw	r2,4(r2)
100102a0:	1885803a 	cmpltu	r2,r3,r2
100102a4:	10c03fcc 	andi	r3,r2,255
100102a8:	e0bfff17 	ldw	r2,-4(fp)
100102ac:	10c00015 	stw	r3,0(r2)
      rc = 0;
100102b0:	e03ffb15 	stw	zero,-20(fp)
    }
    break;
100102b4:	00000206 	br	100102c0 <altera_avalon_jtag_uart_ioctl+0xd8>
    {
      int timeout = *((int *)arg);
      sp->timeout = (timeout >= 2 && timeout < INT_MAX) ? timeout : INT_MAX - 1;
      rc = 0;
    }
    break;
100102b8:	0001883a 	nop
100102bc:	00000106 	br	100102c4 <altera_avalon_jtag_uart_ioctl+0xdc>
    if (sp->timeout != INT_MAX)
    {
      *((int *)arg) = (sp->host_inactive < sp->timeout) ? 1 : 0;
      rc = 0;
    }
    break;
100102c0:	0001883a 	nop

  default:
    break;
  }

  return rc;
100102c4:	e0bffb17 	ldw	r2,-20(fp)
}
100102c8:	e037883a 	mov	sp,fp
100102cc:	df000017 	ldw	fp,0(sp)
100102d0:	dec00104 	addi	sp,sp,4
100102d4:	f800283a 	ret

100102d8 <altera_avalon_jtag_uart_read>:
/* ----------------------------------------------------------- */

int 
altera_avalon_jtag_uart_read(altera_avalon_jtag_uart_state* sp, 
  char * buffer, int space, int flags)
{
100102d8:	defff304 	addi	sp,sp,-52
100102dc:	dfc00c15 	stw	ra,48(sp)
100102e0:	df000b15 	stw	fp,44(sp)
100102e4:	df000b04 	addi	fp,sp,44
100102e8:	e13ffc15 	stw	r4,-16(fp)
100102ec:	e17ffd15 	stw	r5,-12(fp)
100102f0:	e1bffe15 	stw	r6,-8(fp)
100102f4:	e1ffff15 	stw	r7,-4(fp)
  char * ptr = buffer;
100102f8:	e0bffd17 	ldw	r2,-12(fp)
100102fc:	e0bff515 	stw	r2,-44(fp)
   * When running in a multi threaded environment, obtain the "read_lock"
   * semaphore. This ensures that reading from the device is thread-safe.
   */
  ALT_SEM_PEND (sp->read_lock, 0);

  while (space > 0)
10010300:	00004706 	br	10010420 <altera_avalon_jtag_uart_read+0x148>
    unsigned int in, out;

    /* Read as much data as possible */
    do
    {
      in  = sp->rx_in;
10010304:	e0bffc17 	ldw	r2,-16(fp)
10010308:	10800a17 	ldw	r2,40(r2)
1001030c:	e0bff715 	stw	r2,-36(fp)
      out = sp->rx_out;
10010310:	e0bffc17 	ldw	r2,-16(fp)
10010314:	10800b17 	ldw	r2,44(r2)
10010318:	e0bff815 	stw	r2,-32(fp)

      if (in >= out)
1001031c:	e0fff717 	ldw	r3,-36(fp)
10010320:	e0bff817 	ldw	r2,-32(fp)
10010324:	18800536 	bltu	r3,r2,1001033c <altera_avalon_jtag_uart_read+0x64>
        n = in - out;
10010328:	e0fff717 	ldw	r3,-36(fp)
1001032c:	e0bff817 	ldw	r2,-32(fp)
10010330:	1885c83a 	sub	r2,r3,r2
10010334:	e0bff615 	stw	r2,-40(fp)
10010338:	00000406 	br	1001034c <altera_avalon_jtag_uart_read+0x74>
      else
        n = ALTERA_AVALON_JTAG_UART_BUF_LEN - out;
1001033c:	00c20004 	movi	r3,2048
10010340:	e0bff817 	ldw	r2,-32(fp)
10010344:	1885c83a 	sub	r2,r3,r2
10010348:	e0bff615 	stw	r2,-40(fp)

      if (n == 0)
1001034c:	e0bff617 	ldw	r2,-40(fp)
10010350:	10001e26 	beq	r2,zero,100103cc <altera_avalon_jtag_uart_read+0xf4>
        break; /* No more data available */

      if (n > space)
10010354:	e0fffe17 	ldw	r3,-8(fp)
10010358:	e0bff617 	ldw	r2,-40(fp)
1001035c:	1880022e 	bgeu	r3,r2,10010368 <altera_avalon_jtag_uart_read+0x90>
        n = space;
10010360:	e0bffe17 	ldw	r2,-8(fp)
10010364:	e0bff615 	stw	r2,-40(fp)

      memcpy(ptr, sp->rx_buf + out, n);
10010368:	e0bffc17 	ldw	r2,-16(fp)
1001036c:	10c00e04 	addi	r3,r2,56
10010370:	e0bff817 	ldw	r2,-32(fp)
10010374:	1885883a 	add	r2,r3,r2
10010378:	e1bff617 	ldw	r6,-40(fp)
1001037c:	100b883a 	mov	r5,r2
10010380:	e13ff517 	ldw	r4,-44(fp)
10010384:	0007ee80 	call	10007ee8 <memcpy>
      ptr   += n;
10010388:	e0fff517 	ldw	r3,-44(fp)
1001038c:	e0bff617 	ldw	r2,-40(fp)
10010390:	1885883a 	add	r2,r3,r2
10010394:	e0bff515 	stw	r2,-44(fp)
      space -= n;
10010398:	e0fffe17 	ldw	r3,-8(fp)
1001039c:	e0bff617 	ldw	r2,-40(fp)
100103a0:	1885c83a 	sub	r2,r3,r2
100103a4:	e0bffe15 	stw	r2,-8(fp)

      sp->rx_out = (out + n) % ALTERA_AVALON_JTAG_UART_BUF_LEN;
100103a8:	e0fff817 	ldw	r3,-32(fp)
100103ac:	e0bff617 	ldw	r2,-40(fp)
100103b0:	1885883a 	add	r2,r3,r2
100103b4:	10c1ffcc 	andi	r3,r2,2047
100103b8:	e0bffc17 	ldw	r2,-16(fp)
100103bc:	10c00b15 	stw	r3,44(r2)
    }
    while (space > 0);
100103c0:	e0bffe17 	ldw	r2,-8(fp)
100103c4:	00bfcf16 	blt	zero,r2,10010304 <__alt_data_end+0xf8010304>
100103c8:	00000106 	br	100103d0 <altera_avalon_jtag_uart_read+0xf8>
        n = in - out;
      else
        n = ALTERA_AVALON_JTAG_UART_BUF_LEN - out;

      if (n == 0)
        break; /* No more data available */
100103cc:	0001883a 	nop
      sp->rx_out = (out + n) % ALTERA_AVALON_JTAG_UART_BUF_LEN;
    }
    while (space > 0);

    /* If we read any data then return it */
    if (ptr != buffer)
100103d0:	e0fff517 	ldw	r3,-44(fp)
100103d4:	e0bffd17 	ldw	r2,-12(fp)
100103d8:	1880141e 	bne	r3,r2,1001042c <altera_avalon_jtag_uart_read+0x154>
      break;

    /* If in non-blocking mode then return error */
    if (flags & O_NONBLOCK)
100103dc:	e0bfff17 	ldw	r2,-4(fp)
100103e0:	1090000c 	andi	r2,r2,16384
100103e4:	1000131e 	bne	r2,zero,10010434 <altera_avalon_jtag_uart_read+0x15c>
      while (in == sp->rx_in && sp->host_inactive < sp->timeout)
        ;
    }
#else
    /* No OS: Always spin */
    while (in == sp->rx_in && sp->host_inactive < sp->timeout)
100103e8:	0001883a 	nop
100103ec:	e0bffc17 	ldw	r2,-16(fp)
100103f0:	10c00a17 	ldw	r3,40(r2)
100103f4:	e0bff717 	ldw	r2,-36(fp)
100103f8:	1880051e 	bne	r3,r2,10010410 <altera_avalon_jtag_uart_read+0x138>
100103fc:	e0bffc17 	ldw	r2,-16(fp)
10010400:	10c00917 	ldw	r3,36(r2)
10010404:	e0bffc17 	ldw	r2,-16(fp)
10010408:	10800117 	ldw	r2,4(r2)
1001040c:	18bff736 	bltu	r3,r2,100103ec <__alt_data_end+0xf80103ec>
      ;
#endif /* __ucosii__ */

    if (in == sp->rx_in)
10010410:	e0bffc17 	ldw	r2,-16(fp)
10010414:	10c00a17 	ldw	r3,40(r2)
10010418:	e0bff717 	ldw	r2,-36(fp)
1001041c:	18800726 	beq	r3,r2,1001043c <altera_avalon_jtag_uart_read+0x164>
   * When running in a multi threaded environment, obtain the "read_lock"
   * semaphore. This ensures that reading from the device is thread-safe.
   */
  ALT_SEM_PEND (sp->read_lock, 0);

  while (space > 0)
10010420:	e0bffe17 	ldw	r2,-8(fp)
10010424:	00bfb716 	blt	zero,r2,10010304 <__alt_data_end+0xf8010304>
10010428:	00000506 	br	10010440 <altera_avalon_jtag_uart_read+0x168>
    }
    while (space > 0);

    /* If we read any data then return it */
    if (ptr != buffer)
      break;
1001042c:	0001883a 	nop
10010430:	00000306 	br	10010440 <altera_avalon_jtag_uart_read+0x168>

    /* If in non-blocking mode then return error */
    if (flags & O_NONBLOCK)
      break;
10010434:	0001883a 	nop
10010438:	00000106 	br	10010440 <altera_avalon_jtag_uart_read+0x168>
    while (in == sp->rx_in && sp->host_inactive < sp->timeout)
      ;
#endif /* __ucosii__ */

    if (in == sp->rx_in)
      break;
1001043c:	0001883a 	nop
   * semaphore so that other threads can access the buffer.
   */

  ALT_SEM_POST (sp->read_lock);

  if (ptr != buffer)
10010440:	e0fff517 	ldw	r3,-44(fp)
10010444:	e0bffd17 	ldw	r2,-12(fp)
10010448:	18801826 	beq	r3,r2,100104ac <altera_avalon_jtag_uart_read+0x1d4>
static ALT_INLINE alt_irq_context ALT_ALWAYS_INLINE 
       alt_irq_disable_all (void)
{
  alt_irq_context context;

  NIOS2_READ_STATUS (context);
1001044c:	0005303a 	rdctl	r2,status
10010450:	e0bffb15 	stw	r2,-20(fp)

  NIOS2_WRITE_STATUS (context & ~NIOS2_STATUS_PIE_MSK);
10010454:	e0fffb17 	ldw	r3,-20(fp)
10010458:	00bfff84 	movi	r2,-2
1001045c:	1884703a 	and	r2,r3,r2
10010460:	1001703a 	wrctl	status,r2
  
  return context;
10010464:	e0bffb17 	ldw	r2,-20(fp)
  {
    /* If we read any data then there is space in the buffer so enable interrupts */
    context = alt_irq_disable_all();
10010468:	e0bffa15 	stw	r2,-24(fp)
    sp->irq_enable |= ALTERA_AVALON_JTAG_UART_CONTROL_RE_MSK;
1001046c:	e0bffc17 	ldw	r2,-16(fp)
10010470:	10800817 	ldw	r2,32(r2)
10010474:	10c00054 	ori	r3,r2,1
10010478:	e0bffc17 	ldw	r2,-16(fp)
1001047c:	10c00815 	stw	r3,32(r2)
    IOWR_ALTERA_AVALON_JTAG_UART_CONTROL(sp->base, sp->irq_enable);
10010480:	e0bffc17 	ldw	r2,-16(fp)
10010484:	10800017 	ldw	r2,0(r2)
10010488:	10800104 	addi	r2,r2,4
1001048c:	1007883a 	mov	r3,r2
10010490:	e0bffc17 	ldw	r2,-16(fp)
10010494:	10800817 	ldw	r2,32(r2)
10010498:	18800035 	stwio	r2,0(r3)
1001049c:	e0bffa17 	ldw	r2,-24(fp)
100104a0:	e0bff915 	stw	r2,-28(fp)
  status &= ~NIOS2_STATUS_PIE_MSK;
  status |= (context & NIOS2_STATUS_PIE_MSK);
  
  NIOS2_WRITE_STATUS (status);
#else
  NIOS2_WRITE_STATUS (context);
100104a4:	e0bff917 	ldw	r2,-28(fp)
100104a8:	1001703a 	wrctl	status,r2
    alt_irq_enable_all(context);
  }

  if (ptr != buffer)
100104ac:	e0fff517 	ldw	r3,-44(fp)
100104b0:	e0bffd17 	ldw	r2,-12(fp)
100104b4:	18800426 	beq	r3,r2,100104c8 <altera_avalon_jtag_uart_read+0x1f0>
    return ptr - buffer;
100104b8:	e0fff517 	ldw	r3,-44(fp)
100104bc:	e0bffd17 	ldw	r2,-12(fp)
100104c0:	1885c83a 	sub	r2,r3,r2
100104c4:	00000606 	br	100104e0 <altera_avalon_jtag_uart_read+0x208>
  else if (flags & O_NONBLOCK)
100104c8:	e0bfff17 	ldw	r2,-4(fp)
100104cc:	1090000c 	andi	r2,r2,16384
100104d0:	10000226 	beq	r2,zero,100104dc <altera_avalon_jtag_uart_read+0x204>
    return -EWOULDBLOCK;
100104d4:	00bffd44 	movi	r2,-11
100104d8:	00000106 	br	100104e0 <altera_avalon_jtag_uart_read+0x208>
  else
    return -EIO;
100104dc:	00bffec4 	movi	r2,-5
}
100104e0:	e037883a 	mov	sp,fp
100104e4:	dfc00117 	ldw	ra,4(sp)
100104e8:	df000017 	ldw	fp,0(sp)
100104ec:	dec00204 	addi	sp,sp,8
100104f0:	f800283a 	ret

100104f4 <altera_avalon_jtag_uart_write>:
/* ----------------------------------------------------------- */

int 
altera_avalon_jtag_uart_write(altera_avalon_jtag_uart_state* sp, 
  const char * ptr, int count, int flags)
{
100104f4:	defff304 	addi	sp,sp,-52
100104f8:	dfc00c15 	stw	ra,48(sp)
100104fc:	df000b15 	stw	fp,44(sp)
10010500:	df000b04 	addi	fp,sp,44
10010504:	e13ffc15 	stw	r4,-16(fp)
10010508:	e17ffd15 	stw	r5,-12(fp)
1001050c:	e1bffe15 	stw	r6,-8(fp)
10010510:	e1ffff15 	stw	r7,-4(fp)
  /* Remove warning at optimisation level 03 by seting out to 0 */
  unsigned int in, out=0;
10010514:	e03ff515 	stw	zero,-44(fp)
  unsigned int n;
  alt_irq_context context;

  const char * start = ptr;
10010518:	e0bffd17 	ldw	r2,-12(fp)
1001051c:	e0bff715 	stw	r2,-36(fp)
  ALT_SEM_PEND (sp->write_lock, 0);

  do
  {
    /* Copy as much as we can into the transmit buffer */
    while (count > 0)
10010520:	00003706 	br	10010600 <altera_avalon_jtag_uart_write+0x10c>
    {
      /* We need a stable value of the out pointer to calculate the space available */
      in  = sp->tx_in;
10010524:	e0bffc17 	ldw	r2,-16(fp)
10010528:	10800c17 	ldw	r2,48(r2)
1001052c:	e0bff915 	stw	r2,-28(fp)
      out = sp->tx_out;
10010530:	e0bffc17 	ldw	r2,-16(fp)
10010534:	10800d17 	ldw	r2,52(r2)
10010538:	e0bff515 	stw	r2,-44(fp)

      if (in < out)
1001053c:	e0fff917 	ldw	r3,-28(fp)
10010540:	e0bff517 	ldw	r2,-44(fp)
10010544:	1880062e 	bgeu	r3,r2,10010560 <altera_avalon_jtag_uart_write+0x6c>
        n = out - 1 - in;
10010548:	e0fff517 	ldw	r3,-44(fp)
1001054c:	e0bff917 	ldw	r2,-28(fp)
10010550:	1885c83a 	sub	r2,r3,r2
10010554:	10bfffc4 	addi	r2,r2,-1
10010558:	e0bff615 	stw	r2,-40(fp)
1001055c:	00000b06 	br	1001058c <altera_avalon_jtag_uart_write+0x98>
      else if (out > 0)
10010560:	e0bff517 	ldw	r2,-44(fp)
10010564:	10000526 	beq	r2,zero,1001057c <altera_avalon_jtag_uart_write+0x88>
        n = ALTERA_AVALON_JTAG_UART_BUF_LEN - in;
10010568:	00c20004 	movi	r3,2048
1001056c:	e0bff917 	ldw	r2,-28(fp)
10010570:	1885c83a 	sub	r2,r3,r2
10010574:	e0bff615 	stw	r2,-40(fp)
10010578:	00000406 	br	1001058c <altera_avalon_jtag_uart_write+0x98>
      else
        n = ALTERA_AVALON_JTAG_UART_BUF_LEN - 1 - in;
1001057c:	00c1ffc4 	movi	r3,2047
10010580:	e0bff917 	ldw	r2,-28(fp)
10010584:	1885c83a 	sub	r2,r3,r2
10010588:	e0bff615 	stw	r2,-40(fp)

      if (n == 0)
1001058c:	e0bff617 	ldw	r2,-40(fp)
10010590:	10001e26 	beq	r2,zero,1001060c <altera_avalon_jtag_uart_write+0x118>
        break;

      if (n > count)
10010594:	e0fffe17 	ldw	r3,-8(fp)
10010598:	e0bff617 	ldw	r2,-40(fp)
1001059c:	1880022e 	bgeu	r3,r2,100105a8 <altera_avalon_jtag_uart_write+0xb4>
        n = count;
100105a0:	e0bffe17 	ldw	r2,-8(fp)
100105a4:	e0bff615 	stw	r2,-40(fp)

      memcpy(sp->tx_buf + in, ptr, n);
100105a8:	e0bffc17 	ldw	r2,-16(fp)
100105ac:	10c20e04 	addi	r3,r2,2104
100105b0:	e0bff917 	ldw	r2,-28(fp)
100105b4:	1885883a 	add	r2,r3,r2
100105b8:	e1bff617 	ldw	r6,-40(fp)
100105bc:	e17ffd17 	ldw	r5,-12(fp)
100105c0:	1009883a 	mov	r4,r2
100105c4:	0007ee80 	call	10007ee8 <memcpy>
      ptr   += n;
100105c8:	e0fffd17 	ldw	r3,-12(fp)
100105cc:	e0bff617 	ldw	r2,-40(fp)
100105d0:	1885883a 	add	r2,r3,r2
100105d4:	e0bffd15 	stw	r2,-12(fp)
      count -= n;
100105d8:	e0fffe17 	ldw	r3,-8(fp)
100105dc:	e0bff617 	ldw	r2,-40(fp)
100105e0:	1885c83a 	sub	r2,r3,r2
100105e4:	e0bffe15 	stw	r2,-8(fp)

      sp->tx_in = (in + n) % ALTERA_AVALON_JTAG_UART_BUF_LEN;
100105e8:	e0fff917 	ldw	r3,-28(fp)
100105ec:	e0bff617 	ldw	r2,-40(fp)
100105f0:	1885883a 	add	r2,r3,r2
100105f4:	10c1ffcc 	andi	r3,r2,2047
100105f8:	e0bffc17 	ldw	r2,-16(fp)
100105fc:	10c00c15 	stw	r3,48(r2)
  ALT_SEM_PEND (sp->write_lock, 0);

  do
  {
    /* Copy as much as we can into the transmit buffer */
    while (count > 0)
10010600:	e0bffe17 	ldw	r2,-8(fp)
10010604:	00bfc716 	blt	zero,r2,10010524 <__alt_data_end+0xf8010524>
10010608:	00000106 	br	10010610 <altera_avalon_jtag_uart_write+0x11c>
        n = ALTERA_AVALON_JTAG_UART_BUF_LEN - in;
      else
        n = ALTERA_AVALON_JTAG_UART_BUF_LEN - 1 - in;

      if (n == 0)
        break;
1001060c:	0001883a 	nop
static ALT_INLINE alt_irq_context ALT_ALWAYS_INLINE 
       alt_irq_disable_all (void)
{
  alt_irq_context context;

  NIOS2_READ_STATUS (context);
10010610:	0005303a 	rdctl	r2,status
10010614:	e0bffb15 	stw	r2,-20(fp)

  NIOS2_WRITE_STATUS (context & ~NIOS2_STATUS_PIE_MSK);
10010618:	e0fffb17 	ldw	r3,-20(fp)
1001061c:	00bfff84 	movi	r2,-2
10010620:	1884703a 	and	r2,r3,r2
10010624:	1001703a 	wrctl	status,r2
  
  return context;
10010628:	e0bffb17 	ldw	r2,-20(fp)
     * to enable interrupts if there is no space left in the FIFO
     *
     * For now kick the interrupt routine every time to make it transmit 
     * the data 
     */
    context = alt_irq_disable_all();
1001062c:	e0bffa15 	stw	r2,-24(fp)
    sp->irq_enable |= ALTERA_AVALON_JTAG_UART_CONTROL_WE_MSK;
10010630:	e0bffc17 	ldw	r2,-16(fp)
10010634:	10800817 	ldw	r2,32(r2)
10010638:	10c00094 	ori	r3,r2,2
1001063c:	e0bffc17 	ldw	r2,-16(fp)
10010640:	10c00815 	stw	r3,32(r2)
    IOWR_ALTERA_AVALON_JTAG_UART_CONTROL(sp->base, sp->irq_enable);
10010644:	e0bffc17 	ldw	r2,-16(fp)
10010648:	10800017 	ldw	r2,0(r2)
1001064c:	10800104 	addi	r2,r2,4
10010650:	1007883a 	mov	r3,r2
10010654:	e0bffc17 	ldw	r2,-16(fp)
10010658:	10800817 	ldw	r2,32(r2)
1001065c:	18800035 	stwio	r2,0(r3)
10010660:	e0bffa17 	ldw	r2,-24(fp)
10010664:	e0bff815 	stw	r2,-32(fp)
  status &= ~NIOS2_STATUS_PIE_MSK;
  status |= (context & NIOS2_STATUS_PIE_MSK);
  
  NIOS2_WRITE_STATUS (status);
#else
  NIOS2_WRITE_STATUS (context);
10010668:	e0bff817 	ldw	r2,-32(fp)
1001066c:	1001703a 	wrctl	status,r2
    /* 
     * If there is any data left then either return now or block until 
     * some has been sent 
     */
    /* consider: test whether there is anything there while doing this and delay for at most 2s. */
    if (count > 0)
10010670:	e0bffe17 	ldw	r2,-8(fp)
10010674:	0080100e 	bge	zero,r2,100106b8 <altera_avalon_jtag_uart_write+0x1c4>
    {
      if (flags & O_NONBLOCK)
10010678:	e0bfff17 	ldw	r2,-4(fp)
1001067c:	1090000c 	andi	r2,r2,16384
10010680:	1000101e 	bne	r2,zero,100106c4 <altera_avalon_jtag_uart_write+0x1d0>
      /*
       * No OS present: Always wait for data to be removed from buffer.  Once
       * the interrupt routine has removed some data then we will be able to
       * insert some more.
       */
      while (out == sp->tx_out && sp->host_inactive < sp->timeout)
10010684:	0001883a 	nop
10010688:	e0bffc17 	ldw	r2,-16(fp)
1001068c:	10c00d17 	ldw	r3,52(r2)
10010690:	e0bff517 	ldw	r2,-44(fp)
10010694:	1880051e 	bne	r3,r2,100106ac <altera_avalon_jtag_uart_write+0x1b8>
10010698:	e0bffc17 	ldw	r2,-16(fp)
1001069c:	10c00917 	ldw	r3,36(r2)
100106a0:	e0bffc17 	ldw	r2,-16(fp)
100106a4:	10800117 	ldw	r2,4(r2)
100106a8:	18bff736 	bltu	r3,r2,10010688 <__alt_data_end+0xf8010688>
        ;
#endif /* __ucosii__ */

      if  (sp->host_inactive)
100106ac:	e0bffc17 	ldw	r2,-16(fp)
100106b0:	10800917 	ldw	r2,36(r2)
100106b4:	1000051e 	bne	r2,zero,100106cc <altera_avalon_jtag_uart_write+0x1d8>
         break;
    }
  }
  while (count > 0);
100106b8:	e0bffe17 	ldw	r2,-8(fp)
100106bc:	00bfd016 	blt	zero,r2,10010600 <__alt_data_end+0xf8010600>
100106c0:	00000306 	br	100106d0 <altera_avalon_jtag_uart_write+0x1dc>
     */
    /* consider: test whether there is anything there while doing this and delay for at most 2s. */
    if (count > 0)
    {
      if (flags & O_NONBLOCK)
        break;
100106c4:	0001883a 	nop
100106c8:	00000106 	br	100106d0 <altera_avalon_jtag_uart_write+0x1dc>
      while (out == sp->tx_out && sp->host_inactive < sp->timeout)
        ;
#endif /* __ucosii__ */

      if  (sp->host_inactive)
         break;
100106cc:	0001883a 	nop
   * Now that access to the circular buffer is complete, release the write
   * semaphore so that other threads can access the buffer.
   */
  ALT_SEM_POST (sp->write_lock);

  if (ptr != start)
100106d0:	e0fffd17 	ldw	r3,-12(fp)
100106d4:	e0bff717 	ldw	r2,-36(fp)
100106d8:	18800426 	beq	r3,r2,100106ec <altera_avalon_jtag_uart_write+0x1f8>
    return ptr - start;
100106dc:	e0fffd17 	ldw	r3,-12(fp)
100106e0:	e0bff717 	ldw	r2,-36(fp)
100106e4:	1885c83a 	sub	r2,r3,r2
100106e8:	00000606 	br	10010704 <altera_avalon_jtag_uart_write+0x210>
  else if (flags & O_NONBLOCK)
100106ec:	e0bfff17 	ldw	r2,-4(fp)
100106f0:	1090000c 	andi	r2,r2,16384
100106f4:	10000226 	beq	r2,zero,10010700 <altera_avalon_jtag_uart_write+0x20c>
    return -EWOULDBLOCK;
100106f8:	00bffd44 	movi	r2,-11
100106fc:	00000106 	br	10010704 <altera_avalon_jtag_uart_write+0x210>
    sp->tx_out = sp->tx_in = 0;
    return ptr - start + count;
  }
#endif
  else
    return -EIO; /* Host not connected */
10010700:	00bffec4 	movi	r2,-5
}
10010704:	e037883a 	mov	sp,fp
10010708:	dfc00117 	ldw	ra,4(sp)
1001070c:	df000017 	ldw	fp,0(sp)
10010710:	dec00204 	addi	sp,sp,8
10010714:	f800283a 	ret

10010718 <alt_alarm_start>:
 */ 

int alt_alarm_start (alt_alarm* alarm, alt_u32 nticks,
                     alt_u32 (*callback) (void* context),
                     void* context)
{
10010718:	defff504 	addi	sp,sp,-44
1001071c:	df000a15 	stw	fp,40(sp)
10010720:	df000a04 	addi	fp,sp,40
10010724:	e13ffc15 	stw	r4,-16(fp)
10010728:	e17ffd15 	stw	r5,-12(fp)
1001072c:	e1bffe15 	stw	r6,-8(fp)
10010730:	e1ffff15 	stw	r7,-4(fp)
  alt_irq_context irq_context;
  alt_u32 current_nticks = 0;
10010734:	e03ff615 	stw	zero,-40(fp)
10010738:	d0a6d717 	ldw	r2,-25764(gp)
  
  if (alt_ticks_per_second ())
1001073c:	10003c26 	beq	r2,zero,10010830 <alt_alarm_start+0x118>
  {
    if (alarm)
10010740:	e0bffc17 	ldw	r2,-16(fp)
10010744:	10003826 	beq	r2,zero,10010828 <alt_alarm_start+0x110>
    {
      alarm->callback = callback;
10010748:	e0bffc17 	ldw	r2,-16(fp)
1001074c:	e0fffe17 	ldw	r3,-8(fp)
10010750:	10c00315 	stw	r3,12(r2)
      alarm->context  = context;
10010754:	e0bffc17 	ldw	r2,-16(fp)
10010758:	e0ffff17 	ldw	r3,-4(fp)
1001075c:	10c00515 	stw	r3,20(r2)
static ALT_INLINE alt_irq_context ALT_ALWAYS_INLINE 
       alt_irq_disable_all (void)
{
  alt_irq_context context;

  NIOS2_READ_STATUS (context);
10010760:	0005303a 	rdctl	r2,status
10010764:	e0bff915 	stw	r2,-28(fp)

  NIOS2_WRITE_STATUS (context & ~NIOS2_STATUS_PIE_MSK);
10010768:	e0fff917 	ldw	r3,-28(fp)
1001076c:	00bfff84 	movi	r2,-2
10010770:	1884703a 	and	r2,r3,r2
10010774:	1001703a 	wrctl	status,r2
  
  return context;
10010778:	e0bff917 	ldw	r2,-28(fp)
 
      irq_context = alt_irq_disable_all ();
1001077c:	e0bff815 	stw	r2,-32(fp)
 * alt_nticks() returns the elapsed number of system clock ticks since reset.
 */

static ALT_INLINE alt_u32 ALT_ALWAYS_INLINE alt_nticks (void)
{
  return _alt_nticks;
10010780:	d0a6d817 	ldw	r2,-25760(gp)
      
      current_nticks = alt_nticks();
10010784:	e0bff615 	stw	r2,-40(fp)
      
      alarm->time = nticks + current_nticks + 1; 
10010788:	e0fffd17 	ldw	r3,-12(fp)
1001078c:	e0bff617 	ldw	r2,-40(fp)
10010790:	1885883a 	add	r2,r3,r2
10010794:	10c00044 	addi	r3,r2,1
10010798:	e0bffc17 	ldw	r2,-16(fp)
1001079c:	10c00215 	stw	r3,8(r2)
      /* 
       * If the desired alarm time causes a roll-over, set the rollover
       * flag. This will prevent the subsequent tick event from causing
       * an alarm too early.
       */
      if(alarm->time < current_nticks)
100107a0:	e0bffc17 	ldw	r2,-16(fp)
100107a4:	10c00217 	ldw	r3,8(r2)
100107a8:	e0bff617 	ldw	r2,-40(fp)
100107ac:	1880042e 	bgeu	r3,r2,100107c0 <alt_alarm_start+0xa8>
      {
        alarm->rollover = 1;
100107b0:	e0bffc17 	ldw	r2,-16(fp)
100107b4:	00c00044 	movi	r3,1
100107b8:	10c00405 	stb	r3,16(r2)
100107bc:	00000206 	br	100107c8 <alt_alarm_start+0xb0>
      }
      else
      {
        alarm->rollover = 0;
100107c0:	e0bffc17 	ldw	r2,-16(fp)
100107c4:	10000405 	stb	zero,16(r2)
      }
    
      alt_llist_insert (&alt_alarm_list, &alarm->llist);
100107c8:	e0bffc17 	ldw	r2,-16(fp)
100107cc:	d0e00e04 	addi	r3,gp,-32712
100107d0:	e0fffa15 	stw	r3,-24(fp)
100107d4:	e0bffb15 	stw	r2,-20(fp)
 */

static ALT_INLINE void ALT_ALWAYS_INLINE alt_llist_insert(alt_llist* list, 
                alt_llist* entry)
{
  entry->previous = list;
100107d8:	e0bffb17 	ldw	r2,-20(fp)
100107dc:	e0fffa17 	ldw	r3,-24(fp)
100107e0:	10c00115 	stw	r3,4(r2)
  entry->next     = list->next;
100107e4:	e0bffa17 	ldw	r2,-24(fp)
100107e8:	10c00017 	ldw	r3,0(r2)
100107ec:	e0bffb17 	ldw	r2,-20(fp)
100107f0:	10c00015 	stw	r3,0(r2)

  list->next->previous = entry;
100107f4:	e0bffa17 	ldw	r2,-24(fp)
100107f8:	10800017 	ldw	r2,0(r2)
100107fc:	e0fffb17 	ldw	r3,-20(fp)
10010800:	10c00115 	stw	r3,4(r2)
  list->next           = entry;
10010804:	e0bffa17 	ldw	r2,-24(fp)
10010808:	e0fffb17 	ldw	r3,-20(fp)
1001080c:	10c00015 	stw	r3,0(r2)
10010810:	e0bff817 	ldw	r2,-32(fp)
10010814:	e0bff715 	stw	r2,-36(fp)
  status &= ~NIOS2_STATUS_PIE_MSK;
  status |= (context & NIOS2_STATUS_PIE_MSK);
  
  NIOS2_WRITE_STATUS (status);
#else
  NIOS2_WRITE_STATUS (context);
10010818:	e0bff717 	ldw	r2,-36(fp)
1001081c:	1001703a 	wrctl	status,r2
      alt_irq_enable_all (irq_context);

      return 0;
10010820:	0005883a 	mov	r2,zero
10010824:	00000306 	br	10010834 <alt_alarm_start+0x11c>
    }
    else
    {
      return -EINVAL;
10010828:	00bffa84 	movi	r2,-22
1001082c:	00000106 	br	10010834 <alt_alarm_start+0x11c>
    }
  }
  else
  {
    return -ENOTSUP;
10010830:	00bfde84 	movi	r2,-134
  }
}
10010834:	e037883a 	mov	sp,fp
10010838:	df000017 	ldw	fp,0(sp)
1001083c:	dec00104 	addi	sp,sp,4
10010840:	f800283a 	ret

10010844 <alt_busy_sleep>:
#include "alt_types.h"

#include "priv/alt_busy_sleep.h"

unsigned int alt_busy_sleep (unsigned int us)
{
10010844:	defffa04 	addi	sp,sp,-24
10010848:	dfc00515 	stw	ra,20(sp)
1001084c:	df000415 	stw	fp,16(sp)
10010850:	df000404 	addi	fp,sp,16
10010854:	e13fff15 	stw	r4,-4(fp)
  int big_loops;
  alt_u32 cycles_per_loop;
  
  if (!strcmp(NIOS2_CPU_IMPLEMENTATION,"tiny"))
  {
    cycles_per_loop = 9;
10010858:	00800244 	movi	r2,9
1001085c:	e0bffd15 	stw	r2,-12(fp)
    cycles_per_loop = 3;
  }
  

  big_loops = us / (INT_MAX/
  (ALT_CPU_FREQ/(cycles_per_loop * 1000000)));
10010860:	014003f4 	movhi	r5,15
10010864:	29509004 	addi	r5,r5,16960
10010868:	e13ffd17 	ldw	r4,-12(fp)
1001086c:	000c9680 	call	1000c968 <__mulsi3>
10010870:	100b883a 	mov	r5,r2
10010874:	0100bef4 	movhi	r4,763
10010878:	213c2004 	addi	r4,r4,-3968
1001087c:	000c8ac0 	call	1000c8ac <__udivsi3>
  {
    cycles_per_loop = 3;
  }
  

  big_loops = us / (INT_MAX/
10010880:	100b883a 	mov	r5,r2
10010884:	01200034 	movhi	r4,32768
10010888:	213fffc4 	addi	r4,r4,-1
1001088c:	000c8ac0 	call	1000c8ac <__udivsi3>
10010890:	100b883a 	mov	r5,r2
10010894:	e13fff17 	ldw	r4,-4(fp)
10010898:	000c8ac0 	call	1000c8ac <__udivsi3>
1001089c:	e0bffe15 	stw	r2,-8(fp)
  (ALT_CPU_FREQ/(cycles_per_loop * 1000000)));

  if (big_loops)
100108a0:	e0bffe17 	ldw	r2,-8(fp)
100108a4:	10002a26 	beq	r2,zero,10010950 <alt_busy_sleep+0x10c>
  {
    for(i=0;i<big_loops;i++)
100108a8:	e03ffc15 	stw	zero,-16(fp)
100108ac:	00001706 	br	1001090c <alt_busy_sleep+0xc8>
      /*
      * Do NOT Try to single step the asm statement below 
      * (single step will never return)
      * Step out of this function or set a breakpoint after the asm statements
      */
      __asm__ volatile (
100108b0:	00a00034 	movhi	r2,32768
100108b4:	10bfffc4 	addi	r2,r2,-1
100108b8:	10bfffc4 	addi	r2,r2,-1
100108bc:	103ffe1e 	bne	r2,zero,100108b8 <__alt_data_end+0xf80108b8>
        "\n\t.pushsection .debug_alt_sim_info"
        "\n\t.int 4, 0, 0b, 1b"
        "\n\t.popsection"
        :: "r" (INT_MAX));
      us -= (INT_MAX/(ALT_CPU_FREQ/
      (cycles_per_loop * 1000000)));
100108c0:	014003f4 	movhi	r5,15
100108c4:	29509004 	addi	r5,r5,16960
100108c8:	e13ffd17 	ldw	r4,-12(fp)
100108cc:	000c9680 	call	1000c968 <__mulsi3>
        "\n1:"
        "\n\t.pushsection .debug_alt_sim_info"
        "\n\t.int 4, 0, 0b, 1b"
        "\n\t.popsection"
        :: "r" (INT_MAX));
      us -= (INT_MAX/(ALT_CPU_FREQ/
100108d0:	100b883a 	mov	r5,r2
100108d4:	0100bef4 	movhi	r4,763
100108d8:	213c2004 	addi	r4,r4,-3968
100108dc:	000c8ac0 	call	1000c8ac <__udivsi3>
100108e0:	100b883a 	mov	r5,r2
100108e4:	01200034 	movhi	r4,32768
100108e8:	213fffc4 	addi	r4,r4,-1
100108ec:	000c8ac0 	call	1000c8ac <__udivsi3>
100108f0:	1007883a 	mov	r3,r2
100108f4:	e0bfff17 	ldw	r2,-4(fp)
100108f8:	10c5c83a 	sub	r2,r2,r3
100108fc:	e0bfff15 	stw	r2,-4(fp)
  big_loops = us / (INT_MAX/
  (ALT_CPU_FREQ/(cycles_per_loop * 1000000)));

  if (big_loops)
  {
    for(i=0;i<big_loops;i++)
10010900:	e0bffc17 	ldw	r2,-16(fp)
10010904:	10800044 	addi	r2,r2,1
10010908:	e0bffc15 	stw	r2,-16(fp)
1001090c:	e0fffc17 	ldw	r3,-16(fp)
10010910:	e0bffe17 	ldw	r2,-8(fp)
10010914:	18bfe616 	blt	r3,r2,100108b0 <__alt_data_end+0xf80108b0>
      "\n\tbne %0,zero,0b"
      "\n1:"
      "\n\t.pushsection .debug_alt_sim_info"
      "\n\t.int 4, 0, 0b, 1b"
      "\n\t.popsection"
      :: "r" (us*(ALT_CPU_FREQ/(cycles_per_loop * 1000000))));
10010918:	014003f4 	movhi	r5,15
1001091c:	29509004 	addi	r5,r5,16960
10010920:	e13ffd17 	ldw	r4,-12(fp)
10010924:	000c9680 	call	1000c968 <__mulsi3>
10010928:	100b883a 	mov	r5,r2
1001092c:	0100bef4 	movhi	r4,763
10010930:	213c2004 	addi	r4,r4,-3968
10010934:	000c8ac0 	call	1000c8ac <__udivsi3>
10010938:	e17fff17 	ldw	r5,-4(fp)
1001093c:	1009883a 	mov	r4,r2
10010940:	000c9680 	call	1000c968 <__mulsi3>
    /*
    * Do NOT Try to single step the asm statement below 
    * (single step will never return)
    * Step out of this function or set a breakpoint after the asm statements
    */
    __asm__ volatile (
10010944:	10bfffc4 	addi	r2,r2,-1
10010948:	103ffe1e 	bne	r2,zero,10010944 <__alt_data_end+0xf8010944>
1001094c:	00000d06 	br	10010984 <alt_busy_sleep+0x140>
      "\n\tbgt %0,zero,0b"
      "\n1:"
      "\n\t.pushsection .debug_alt_sim_info"
      "\n\t.int 4, 0, 0b, 1b"
      "\n\t.popsection"
      :: "r" (us*(ALT_CPU_FREQ/(cycles_per_loop * 1000000))));
10010950:	014003f4 	movhi	r5,15
10010954:	29509004 	addi	r5,r5,16960
10010958:	e13ffd17 	ldw	r4,-12(fp)
1001095c:	000c9680 	call	1000c968 <__mulsi3>
10010960:	100b883a 	mov	r5,r2
10010964:	0100bef4 	movhi	r4,763
10010968:	213c2004 	addi	r4,r4,-3968
1001096c:	000c8ac0 	call	1000c8ac <__udivsi3>
10010970:	e17fff17 	ldw	r5,-4(fp)
10010974:	1009883a 	mov	r4,r2
10010978:	000c9680 	call	1000c968 <__mulsi3>
    /*
    * Do NOT Try to single step the asm statement below 
    * (single step will never return)
    * Step out of this function or set a breakpoint after the asm statements
    */
    __asm__ volatile (
1001097c:	10bfffc4 	addi	r2,r2,-1
10010980:	00bffe16 	blt	zero,r2,1001097c <__alt_data_end+0xf801097c>
      "\n\t.int 4, 0, 0b, 1b"
      "\n\t.popsection"
      :: "r" (us*(ALT_CPU_FREQ/(cycles_per_loop * 1000000))));
  }
#endif /* #ifndef ALT_SIM_OPTIMIZE */
  return 0;
10010984:	0005883a 	mov	r2,zero
}
10010988:	e037883a 	mov	sp,fp
1001098c:	dfc00117 	ldw	ra,4(sp)
10010990:	df000017 	ldw	fp,0(sp)
10010994:	dec00204 	addi	sp,sp,8
10010998:	f800283a 	ret

1001099c <alt_dcache_flush_all>:
/*
 * alt_dcache_flush_all() is called to flush the entire data cache.
 */

void alt_dcache_flush_all (void)
{
1001099c:	deffff04 	addi	sp,sp,-4
100109a0:	df000015 	stw	fp,0(sp)
100109a4:	d839883a 	mov	fp,sp
  for (i = (char*) 0; i < (char*) NIOS2_DCACHE_SIZE; i+= NIOS2_DCACHE_LINE_SIZE)
  { 
    __asm__ volatile ("flushd (%0)" :: "r" (i));
  }
#endif /* NIOS2_DCACHE_SIZE > 0 */
}
100109a8:	0001883a 	nop
100109ac:	e037883a 	mov	sp,fp
100109b0:	df000017 	ldw	fp,0(sp)
100109b4:	dec00104 	addi	sp,sp,4
100109b8:	f800283a 	ret

100109bc <alt_get_errno>:
#undef errno

extern int errno;

static ALT_INLINE int* alt_get_errno(void)
{
100109bc:	defffe04 	addi	sp,sp,-8
100109c0:	dfc00115 	stw	ra,4(sp)
100109c4:	df000015 	stw	fp,0(sp)
100109c8:	d839883a 	mov	fp,sp
  return ((alt_errno) ? alt_errno() : &errno);
100109cc:	d0a00b17 	ldw	r2,-32724(gp)
100109d0:	10000326 	beq	r2,zero,100109e0 <alt_get_errno+0x24>
100109d4:	d0a00b17 	ldw	r2,-32724(gp)
100109d8:	103ee83a 	callr	r2
100109dc:	00000106 	br	100109e4 <alt_get_errno+0x28>
100109e0:	d0a6d204 	addi	r2,gp,-25784
}
100109e4:	e037883a 	mov	sp,fp
100109e8:	dfc00117 	ldw	ra,4(sp)
100109ec:	df000017 	ldw	fp,0(sp)
100109f0:	dec00204 	addi	sp,sp,8
100109f4:	f800283a 	ret

100109f8 <alt_dev_llist_insert>:
/*
 *
 */

int alt_dev_llist_insert (alt_dev_llist* dev, alt_llist* list)
{
100109f8:	defffa04 	addi	sp,sp,-24
100109fc:	dfc00515 	stw	ra,20(sp)
10010a00:	df000415 	stw	fp,16(sp)
10010a04:	df000404 	addi	fp,sp,16
10010a08:	e13ffe15 	stw	r4,-8(fp)
10010a0c:	e17fff15 	stw	r5,-4(fp)
  /*
   * check that the device exists, and that it has a valid name.
   */

  if (!dev || !dev->name)
10010a10:	e0bffe17 	ldw	r2,-8(fp)
10010a14:	10000326 	beq	r2,zero,10010a24 <alt_dev_llist_insert+0x2c>
10010a18:	e0bffe17 	ldw	r2,-8(fp)
10010a1c:	10800217 	ldw	r2,8(r2)
10010a20:	1000061e 	bne	r2,zero,10010a3c <alt_dev_llist_insert+0x44>
  {
    ALT_ERRNO = EINVAL;
10010a24:	00109bc0 	call	100109bc <alt_get_errno>
10010a28:	1007883a 	mov	r3,r2
10010a2c:	00800584 	movi	r2,22
10010a30:	18800015 	stw	r2,0(r3)
    return -EINVAL;
10010a34:	00bffa84 	movi	r2,-22
10010a38:	00001306 	br	10010a88 <alt_dev_llist_insert+0x90>
  
  /*
   * register the device.
   */
  
  alt_llist_insert(list, &dev->llist);
10010a3c:	e0bffe17 	ldw	r2,-8(fp)
10010a40:	e0ffff17 	ldw	r3,-4(fp)
10010a44:	e0fffc15 	stw	r3,-16(fp)
10010a48:	e0bffd15 	stw	r2,-12(fp)
 */

static ALT_INLINE void ALT_ALWAYS_INLINE alt_llist_insert(alt_llist* list, 
                alt_llist* entry)
{
  entry->previous = list;
10010a4c:	e0bffd17 	ldw	r2,-12(fp)
10010a50:	e0fffc17 	ldw	r3,-16(fp)
10010a54:	10c00115 	stw	r3,4(r2)
  entry->next     = list->next;
10010a58:	e0bffc17 	ldw	r2,-16(fp)
10010a5c:	10c00017 	ldw	r3,0(r2)
10010a60:	e0bffd17 	ldw	r2,-12(fp)
10010a64:	10c00015 	stw	r3,0(r2)

  list->next->previous = entry;
10010a68:	e0bffc17 	ldw	r2,-16(fp)
10010a6c:	10800017 	ldw	r2,0(r2)
10010a70:	e0fffd17 	ldw	r3,-12(fp)
10010a74:	10c00115 	stw	r3,4(r2)
  list->next           = entry;
10010a78:	e0bffc17 	ldw	r2,-16(fp)
10010a7c:	e0fffd17 	ldw	r3,-12(fp)
10010a80:	10c00015 	stw	r3,0(r2)

  return 0;  
10010a84:	0005883a 	mov	r2,zero
}
10010a88:	e037883a 	mov	sp,fp
10010a8c:	dfc00117 	ldw	ra,4(sp)
10010a90:	df000017 	ldw	fp,0(sp)
10010a94:	dec00204 	addi	sp,sp,8
10010a98:	f800283a 	ret

10010a9c <_do_ctors>:
/*
 * Run the C++ static constructors.
 */

void _do_ctors(void)
{
10010a9c:	defffd04 	addi	sp,sp,-12
10010aa0:	dfc00215 	stw	ra,8(sp)
10010aa4:	df000115 	stw	fp,4(sp)
10010aa8:	df000104 	addi	fp,sp,4
  constructor* ctor;

  for (ctor = &__CTOR_END__[-1]; ctor >= __CTOR_LIST__; ctor--)
10010aac:	00840074 	movhi	r2,4097
10010ab0:	10869404 	addi	r2,r2,6736
10010ab4:	e0bfff15 	stw	r2,-4(fp)
10010ab8:	00000606 	br	10010ad4 <_do_ctors+0x38>
        (*ctor) (); 
10010abc:	e0bfff17 	ldw	r2,-4(fp)
10010ac0:	10800017 	ldw	r2,0(r2)
10010ac4:	103ee83a 	callr	r2

void _do_ctors(void)
{
  constructor* ctor;

  for (ctor = &__CTOR_END__[-1]; ctor >= __CTOR_LIST__; ctor--)
10010ac8:	e0bfff17 	ldw	r2,-4(fp)
10010acc:	10bfff04 	addi	r2,r2,-4
10010ad0:	e0bfff15 	stw	r2,-4(fp)
10010ad4:	e0ffff17 	ldw	r3,-4(fp)
10010ad8:	00840074 	movhi	r2,4097
10010adc:	10869504 	addi	r2,r2,6740
10010ae0:	18bff62e 	bgeu	r3,r2,10010abc <__alt_data_end+0xf8010abc>
        (*ctor) (); 
}
10010ae4:	0001883a 	nop
10010ae8:	e037883a 	mov	sp,fp
10010aec:	dfc00117 	ldw	ra,4(sp)
10010af0:	df000017 	ldw	fp,0(sp)
10010af4:	dec00204 	addi	sp,sp,8
10010af8:	f800283a 	ret

10010afc <_do_dtors>:
/*
 * Run the C++ static destructors.
 */

void _do_dtors(void)
{
10010afc:	defffd04 	addi	sp,sp,-12
10010b00:	dfc00215 	stw	ra,8(sp)
10010b04:	df000115 	stw	fp,4(sp)
10010b08:	df000104 	addi	fp,sp,4
  destructor* dtor;

  for (dtor = &__DTOR_END__[-1]; dtor >= __DTOR_LIST__; dtor--)
10010b0c:	00840074 	movhi	r2,4097
10010b10:	10869404 	addi	r2,r2,6736
10010b14:	e0bfff15 	stw	r2,-4(fp)
10010b18:	00000606 	br	10010b34 <_do_dtors+0x38>
        (*dtor) (); 
10010b1c:	e0bfff17 	ldw	r2,-4(fp)
10010b20:	10800017 	ldw	r2,0(r2)
10010b24:	103ee83a 	callr	r2

void _do_dtors(void)
{
  destructor* dtor;

  for (dtor = &__DTOR_END__[-1]; dtor >= __DTOR_LIST__; dtor--)
10010b28:	e0bfff17 	ldw	r2,-4(fp)
10010b2c:	10bfff04 	addi	r2,r2,-4
10010b30:	e0bfff15 	stw	r2,-4(fp)
10010b34:	e0ffff17 	ldw	r3,-4(fp)
10010b38:	00840074 	movhi	r2,4097
10010b3c:	10869504 	addi	r2,r2,6740
10010b40:	18bff62e 	bgeu	r3,r2,10010b1c <__alt_data_end+0xf8010b1c>
        (*dtor) (); 
}
10010b44:	0001883a 	nop
10010b48:	e037883a 	mov	sp,fp
10010b4c:	dfc00117 	ldw	ra,4(sp)
10010b50:	df000017 	ldw	fp,0(sp)
10010b54:	dec00204 	addi	sp,sp,8
10010b58:	f800283a 	ret

10010b5c <alt_icache_flush_all>:
/*
 * alt_icache_flush_all() is called to flush the entire instruction cache.
 */

void alt_icache_flush_all (void)
{
10010b5c:	deffff04 	addi	sp,sp,-4
10010b60:	df000015 	stw	fp,0(sp)
10010b64:	d839883a 	mov	fp,sp
#if NIOS2_ICACHE_SIZE > 0
  alt_icache_flush (0, NIOS2_ICACHE_SIZE);
#endif
}
10010b68:	0001883a 	nop
10010b6c:	e037883a 	mov	sp,fp
10010b70:	df000017 	ldw	fp,0(sp)
10010b74:	dec00104 	addi	sp,sp,4
10010b78:	f800283a 	ret

10010b7c <alt_ic_isr_register>:
  * @param irq              IRQ number
  * @return                 0 if successful, else error (-1)
  */
int alt_ic_isr_register(alt_u32 ic_id, alt_u32 irq, alt_isr_func isr, 
  void *isr_context, void *flags)
{
10010b7c:	defff904 	addi	sp,sp,-28
10010b80:	dfc00615 	stw	ra,24(sp)
10010b84:	df000515 	stw	fp,20(sp)
10010b88:	df000504 	addi	fp,sp,20
10010b8c:	e13ffc15 	stw	r4,-16(fp)
10010b90:	e17ffd15 	stw	r5,-12(fp)
10010b94:	e1bffe15 	stw	r6,-8(fp)
10010b98:	e1ffff15 	stw	r7,-4(fp)
    return alt_iic_isr_register(ic_id, irq, isr, isr_context, flags);
10010b9c:	e0800217 	ldw	r2,8(fp)
10010ba0:	d8800015 	stw	r2,0(sp)
10010ba4:	e1ffff17 	ldw	r7,-4(fp)
10010ba8:	e1bffe17 	ldw	r6,-8(fp)
10010bac:	e17ffd17 	ldw	r5,-12(fp)
10010bb0:	e13ffc17 	ldw	r4,-16(fp)
10010bb4:	0010d2c0 	call	10010d2c <alt_iic_isr_register>
}  
10010bb8:	e037883a 	mov	sp,fp
10010bbc:	dfc00117 	ldw	ra,4(sp)
10010bc0:	df000017 	ldw	fp,0(sp)
10010bc4:	dec00204 	addi	sp,sp,8
10010bc8:	f800283a 	ret

10010bcc <alt_ic_irq_enable>:
  * @param ic_id            Ignored.
  * @param irq              IRQ number
  * @return                 0 if successful, else error (-1)
  */
int alt_ic_irq_enable (alt_u32 ic_id, alt_u32 irq)
{
10010bcc:	defff904 	addi	sp,sp,-28
10010bd0:	df000615 	stw	fp,24(sp)
10010bd4:	df000604 	addi	fp,sp,24
10010bd8:	e13ffe15 	stw	r4,-8(fp)
10010bdc:	e17fff15 	stw	r5,-4(fp)
10010be0:	e0bfff17 	ldw	r2,-4(fp)
10010be4:	e0bffa15 	stw	r2,-24(fp)
static ALT_INLINE alt_irq_context ALT_ALWAYS_INLINE 
       alt_irq_disable_all (void)
{
  alt_irq_context context;

  NIOS2_READ_STATUS (context);
10010be8:	0005303a 	rdctl	r2,status
10010bec:	e0bffb15 	stw	r2,-20(fp)

  NIOS2_WRITE_STATUS (context & ~NIOS2_STATUS_PIE_MSK);
10010bf0:	e0fffb17 	ldw	r3,-20(fp)
10010bf4:	00bfff84 	movi	r2,-2
10010bf8:	1884703a 	and	r2,r3,r2
10010bfc:	1001703a 	wrctl	status,r2
  
  return context;
10010c00:	e0bffb17 	ldw	r2,-20(fp)
static ALT_INLINE int ALT_ALWAYS_INLINE alt_irq_enable (alt_u32 id)
{
  alt_irq_context  status;
  extern volatile alt_u32 alt_irq_active;

  status = alt_irq_disable_all ();
10010c04:	e0bffc15 	stw	r2,-16(fp)

  alt_irq_active |= (1 << id);
10010c08:	00c00044 	movi	r3,1
10010c0c:	e0bffa17 	ldw	r2,-24(fp)
10010c10:	1884983a 	sll	r2,r3,r2
10010c14:	1007883a 	mov	r3,r2
10010c18:	d0a6d617 	ldw	r2,-25768(gp)
10010c1c:	1884b03a 	or	r2,r3,r2
10010c20:	d0a6d615 	stw	r2,-25768(gp)
  NIOS2_WRITE_IENABLE (alt_irq_active);
10010c24:	d0a6d617 	ldw	r2,-25768(gp)
10010c28:	100170fa 	wrctl	ienable,r2
10010c2c:	e0bffc17 	ldw	r2,-16(fp)
10010c30:	e0bffd15 	stw	r2,-12(fp)
  status &= ~NIOS2_STATUS_PIE_MSK;
  status |= (context & NIOS2_STATUS_PIE_MSK);
  
  NIOS2_WRITE_STATUS (status);
#else
  NIOS2_WRITE_STATUS (context);
10010c34:	e0bffd17 	ldw	r2,-12(fp)
10010c38:	1001703a 	wrctl	status,r2

  alt_irq_enable_all(status);

  return 0;
10010c3c:	0005883a 	mov	r2,zero
    return alt_irq_enable(irq);
10010c40:	0001883a 	nop
}
10010c44:	e037883a 	mov	sp,fp
10010c48:	df000017 	ldw	fp,0(sp)
10010c4c:	dec00104 	addi	sp,sp,4
10010c50:	f800283a 	ret

10010c54 <alt_ic_irq_disable>:
  * @param ic_id            Ignored.
  * @param irq              IRQ number
  * @return                 0 if successful, else error (-1)
  */
int alt_ic_irq_disable(alt_u32 ic_id, alt_u32 irq)
{
10010c54:	defff904 	addi	sp,sp,-28
10010c58:	df000615 	stw	fp,24(sp)
10010c5c:	df000604 	addi	fp,sp,24
10010c60:	e13ffe15 	stw	r4,-8(fp)
10010c64:	e17fff15 	stw	r5,-4(fp)
10010c68:	e0bfff17 	ldw	r2,-4(fp)
10010c6c:	e0bffa15 	stw	r2,-24(fp)
static ALT_INLINE alt_irq_context ALT_ALWAYS_INLINE 
       alt_irq_disable_all (void)
{
  alt_irq_context context;

  NIOS2_READ_STATUS (context);
10010c70:	0005303a 	rdctl	r2,status
10010c74:	e0bffb15 	stw	r2,-20(fp)

  NIOS2_WRITE_STATUS (context & ~NIOS2_STATUS_PIE_MSK);
10010c78:	e0fffb17 	ldw	r3,-20(fp)
10010c7c:	00bfff84 	movi	r2,-2
10010c80:	1884703a 	and	r2,r3,r2
10010c84:	1001703a 	wrctl	status,r2
  
  return context;
10010c88:	e0bffb17 	ldw	r2,-20(fp)
static ALT_INLINE int ALT_ALWAYS_INLINE alt_irq_disable (alt_u32 id)
{
  alt_irq_context  status;
  extern volatile alt_u32 alt_irq_active;

  status = alt_irq_disable_all ();
10010c8c:	e0bffc15 	stw	r2,-16(fp)

  alt_irq_active &= ~(1 << id);
10010c90:	00c00044 	movi	r3,1
10010c94:	e0bffa17 	ldw	r2,-24(fp)
10010c98:	1884983a 	sll	r2,r3,r2
10010c9c:	0084303a 	nor	r2,zero,r2
10010ca0:	1007883a 	mov	r3,r2
10010ca4:	d0a6d617 	ldw	r2,-25768(gp)
10010ca8:	1884703a 	and	r2,r3,r2
10010cac:	d0a6d615 	stw	r2,-25768(gp)
  NIOS2_WRITE_IENABLE (alt_irq_active);
10010cb0:	d0a6d617 	ldw	r2,-25768(gp)
10010cb4:	100170fa 	wrctl	ienable,r2
10010cb8:	e0bffc17 	ldw	r2,-16(fp)
10010cbc:	e0bffd15 	stw	r2,-12(fp)
  status &= ~NIOS2_STATUS_PIE_MSK;
  status |= (context & NIOS2_STATUS_PIE_MSK);
  
  NIOS2_WRITE_STATUS (status);
#else
  NIOS2_WRITE_STATUS (context);
10010cc0:	e0bffd17 	ldw	r2,-12(fp)
10010cc4:	1001703a 	wrctl	status,r2

  alt_irq_enable_all(status);

  return 0;
10010cc8:	0005883a 	mov	r2,zero
    return alt_irq_disable(irq);
10010ccc:	0001883a 	nop
}
10010cd0:	e037883a 	mov	sp,fp
10010cd4:	df000017 	ldw	fp,0(sp)
10010cd8:	dec00104 	addi	sp,sp,4
10010cdc:	f800283a 	ret

10010ce0 <alt_ic_irq_enabled>:
  * @param irq              IRQ number
  * @return                 Zero if corresponding interrupt is disabled and
  *                         non-zero otherwise.
  */
alt_u32 alt_ic_irq_enabled(alt_u32 ic_id, alt_u32 irq)
{
10010ce0:	defffc04 	addi	sp,sp,-16
10010ce4:	df000315 	stw	fp,12(sp)
10010ce8:	df000304 	addi	fp,sp,12
10010cec:	e13ffe15 	stw	r4,-8(fp)
10010cf0:	e17fff15 	stw	r5,-4(fp)
    alt_u32 irq_enabled;

    NIOS2_READ_IENABLE(irq_enabled);
10010cf4:	000530fa 	rdctl	r2,ienable
10010cf8:	e0bffd15 	stw	r2,-12(fp)

    return (irq_enabled & (1 << irq)) ? 1: 0;
10010cfc:	00c00044 	movi	r3,1
10010d00:	e0bfff17 	ldw	r2,-4(fp)
10010d04:	1884983a 	sll	r2,r3,r2
10010d08:	1007883a 	mov	r3,r2
10010d0c:	e0bffd17 	ldw	r2,-12(fp)
10010d10:	1884703a 	and	r2,r3,r2
10010d14:	1004c03a 	cmpne	r2,r2,zero
10010d18:	10803fcc 	andi	r2,r2,255
}
10010d1c:	e037883a 	mov	sp,fp
10010d20:	df000017 	ldw	fp,0(sp)
10010d24:	dec00104 	addi	sp,sp,4
10010d28:	f800283a 	ret

10010d2c <alt_iic_isr_register>:
  * @param flags            
  * @return                 0 if successful, else error (-1)
  */
int alt_iic_isr_register(alt_u32 ic_id, alt_u32 irq, alt_isr_func isr, 
  void *isr_context, void *flags)
{
10010d2c:	defff504 	addi	sp,sp,-44
10010d30:	dfc00a15 	stw	ra,40(sp)
10010d34:	df000915 	stw	fp,36(sp)
10010d38:	df000904 	addi	fp,sp,36
10010d3c:	e13ffc15 	stw	r4,-16(fp)
10010d40:	e17ffd15 	stw	r5,-12(fp)
10010d44:	e1bffe15 	stw	r6,-8(fp)
10010d48:	e1ffff15 	stw	r7,-4(fp)
  int rc = -EINVAL;  
10010d4c:	00bffa84 	movi	r2,-22
10010d50:	e0bff715 	stw	r2,-36(fp)
  int id = irq;             /* IRQ interpreted as the interrupt ID. */
10010d54:	e0bffd17 	ldw	r2,-12(fp)
10010d58:	e0bff815 	stw	r2,-32(fp)
  alt_irq_context status;

  if (id < ALT_NIRQ)
10010d5c:	e0bff817 	ldw	r2,-32(fp)
10010d60:	10800808 	cmpgei	r2,r2,32
10010d64:	1000271e 	bne	r2,zero,10010e04 <alt_iic_isr_register+0xd8>
static ALT_INLINE alt_irq_context ALT_ALWAYS_INLINE 
       alt_irq_disable_all (void)
{
  alt_irq_context context;

  NIOS2_READ_STATUS (context);
10010d68:	0005303a 	rdctl	r2,status
10010d6c:	e0bffb15 	stw	r2,-20(fp)

  NIOS2_WRITE_STATUS (context & ~NIOS2_STATUS_PIE_MSK);
10010d70:	e0fffb17 	ldw	r3,-20(fp)
10010d74:	00bfff84 	movi	r2,-2
10010d78:	1884703a 	and	r2,r3,r2
10010d7c:	1001703a 	wrctl	status,r2
  
  return context;
10010d80:	e0bffb17 	ldw	r2,-20(fp)
     * interrupts are disabled while the handler tables are updated to ensure
     * that an interrupt doesn't occur while the tables are in an inconsistant
     * state.
     */

    status = alt_irq_disable_all();
10010d84:	e0bffa15 	stw	r2,-24(fp)

    alt_irq[id].handler = isr;
10010d88:	00840074 	movhi	r2,4097
10010d8c:	1096cd04 	addi	r2,r2,23348
10010d90:	e0fff817 	ldw	r3,-32(fp)
10010d94:	180690fa 	slli	r3,r3,3
10010d98:	10c5883a 	add	r2,r2,r3
10010d9c:	e0fffe17 	ldw	r3,-8(fp)
10010da0:	10c00015 	stw	r3,0(r2)
    alt_irq[id].context = isr_context;
10010da4:	00840074 	movhi	r2,4097
10010da8:	1096cd04 	addi	r2,r2,23348
10010dac:	e0fff817 	ldw	r3,-32(fp)
10010db0:	180690fa 	slli	r3,r3,3
10010db4:	10c5883a 	add	r2,r2,r3
10010db8:	10800104 	addi	r2,r2,4
10010dbc:	e0ffff17 	ldw	r3,-4(fp)
10010dc0:	10c00015 	stw	r3,0(r2)

    rc = (isr) ? alt_ic_irq_enable(ic_id, id) : alt_ic_irq_disable(ic_id, id);
10010dc4:	e0bffe17 	ldw	r2,-8(fp)
10010dc8:	10000526 	beq	r2,zero,10010de0 <alt_iic_isr_register+0xb4>
10010dcc:	e0bff817 	ldw	r2,-32(fp)
10010dd0:	100b883a 	mov	r5,r2
10010dd4:	e13ffc17 	ldw	r4,-16(fp)
10010dd8:	0010bcc0 	call	10010bcc <alt_ic_irq_enable>
10010ddc:	00000406 	br	10010df0 <alt_iic_isr_register+0xc4>
10010de0:	e0bff817 	ldw	r2,-32(fp)
10010de4:	100b883a 	mov	r5,r2
10010de8:	e13ffc17 	ldw	r4,-16(fp)
10010dec:	0010c540 	call	10010c54 <alt_ic_irq_disable>
10010df0:	e0bff715 	stw	r2,-36(fp)
10010df4:	e0bffa17 	ldw	r2,-24(fp)
10010df8:	e0bff915 	stw	r2,-28(fp)
  status &= ~NIOS2_STATUS_PIE_MSK;
  status |= (context & NIOS2_STATUS_PIE_MSK);
  
  NIOS2_WRITE_STATUS (status);
#else
  NIOS2_WRITE_STATUS (context);
10010dfc:	e0bff917 	ldw	r2,-28(fp)
10010e00:	1001703a 	wrctl	status,r2

    alt_irq_enable_all(status);
  }

  return rc; 
10010e04:	e0bff717 	ldw	r2,-36(fp)
}
10010e08:	e037883a 	mov	sp,fp
10010e0c:	dfc00117 	ldw	ra,4(sp)
10010e10:	df000017 	ldw	fp,0(sp)
10010e14:	dec00204 	addi	sp,sp,8
10010e18:	f800283a 	ret

10010e1c <alt_open_fd>:
 * If the device can not be succesfully opened, then the input file descriptor
 * remains unchanged.
 */

static void alt_open_fd(alt_fd* fd, const char* name, int flags, int mode)
{
10010e1c:	defff804 	addi	sp,sp,-32
10010e20:	dfc00715 	stw	ra,28(sp)
10010e24:	df000615 	stw	fp,24(sp)
10010e28:	dc000515 	stw	r16,20(sp)
10010e2c:	df000604 	addi	fp,sp,24
10010e30:	e13ffb15 	stw	r4,-20(fp)
10010e34:	e17ffc15 	stw	r5,-16(fp)
10010e38:	e1bffd15 	stw	r6,-12(fp)
10010e3c:	e1fffe15 	stw	r7,-8(fp)
  int old;

  old = open (name, flags, mode);
10010e40:	e1bffe17 	ldw	r6,-8(fp)
10010e44:	e17ffd17 	ldw	r5,-12(fp)
10010e48:	e13ffc17 	ldw	r4,-16(fp)
10010e4c:	00110a40 	call	100110a4 <open>
10010e50:	e0bffa15 	stw	r2,-24(fp)

  if (old >= 0)
10010e54:	e0bffa17 	ldw	r2,-24(fp)
10010e58:	10002216 	blt	r2,zero,10010ee4 <alt_open_fd+0xc8>
  {
    fd->dev      = alt_fd_list[old].dev;
10010e5c:	04040074 	movhi	r16,4097
10010e60:	840b7104 	addi	r16,r16,11716
10010e64:	e0bffa17 	ldw	r2,-24(fp)
10010e68:	01400304 	movi	r5,12
10010e6c:	1009883a 	mov	r4,r2
10010e70:	000c9680 	call	1000c968 <__mulsi3>
10010e74:	8085883a 	add	r2,r16,r2
10010e78:	10c00017 	ldw	r3,0(r2)
10010e7c:	e0bffb17 	ldw	r2,-20(fp)
10010e80:	10c00015 	stw	r3,0(r2)
    fd->priv     = alt_fd_list[old].priv;
10010e84:	04040074 	movhi	r16,4097
10010e88:	840b7104 	addi	r16,r16,11716
10010e8c:	e0bffa17 	ldw	r2,-24(fp)
10010e90:	01400304 	movi	r5,12
10010e94:	1009883a 	mov	r4,r2
10010e98:	000c9680 	call	1000c968 <__mulsi3>
10010e9c:	8085883a 	add	r2,r16,r2
10010ea0:	10800104 	addi	r2,r2,4
10010ea4:	10c00017 	ldw	r3,0(r2)
10010ea8:	e0bffb17 	ldw	r2,-20(fp)
10010eac:	10c00115 	stw	r3,4(r2)
    fd->fd_flags = alt_fd_list[old].fd_flags;
10010eb0:	04040074 	movhi	r16,4097
10010eb4:	840b7104 	addi	r16,r16,11716
10010eb8:	e0bffa17 	ldw	r2,-24(fp)
10010ebc:	01400304 	movi	r5,12
10010ec0:	1009883a 	mov	r4,r2
10010ec4:	000c9680 	call	1000c968 <__mulsi3>
10010ec8:	8085883a 	add	r2,r16,r2
10010ecc:	10800204 	addi	r2,r2,8
10010ed0:	10c00017 	ldw	r3,0(r2)
10010ed4:	e0bffb17 	ldw	r2,-20(fp)
10010ed8:	10c00215 	stw	r3,8(r2)

    alt_release_fd (old);
10010edc:	e13ffa17 	ldw	r4,-24(fp)
10010ee0:	000f9580 	call	1000f958 <alt_release_fd>
  }
} 
10010ee4:	0001883a 	nop
10010ee8:	e6ffff04 	addi	sp,fp,-4
10010eec:	dfc00217 	ldw	ra,8(sp)
10010ef0:	df000117 	ldw	fp,4(sp)
10010ef4:	dc000017 	ldw	r16,0(sp)
10010ef8:	dec00304 	addi	sp,sp,12
10010efc:	f800283a 	ret

10010f00 <alt_io_redirect>:
 */
 
void alt_io_redirect(const char* stdout_dev, 
                     const char* stdin_dev, 
                     const char* stderr_dev)
{
10010f00:	defffb04 	addi	sp,sp,-20
10010f04:	dfc00415 	stw	ra,16(sp)
10010f08:	df000315 	stw	fp,12(sp)
10010f0c:	df000304 	addi	fp,sp,12
10010f10:	e13ffd15 	stw	r4,-12(fp)
10010f14:	e17ffe15 	stw	r5,-8(fp)
10010f18:	e1bfff15 	stw	r6,-4(fp)
  /* Redirect the channels */

  alt_open_fd (&alt_fd_list[STDOUT_FILENO], stdout_dev, O_WRONLY, 0777);
10010f1c:	01c07fc4 	movi	r7,511
10010f20:	01800044 	movi	r6,1
10010f24:	e17ffd17 	ldw	r5,-12(fp)
10010f28:	01040074 	movhi	r4,4097
10010f2c:	210b7404 	addi	r4,r4,11728
10010f30:	0010e1c0 	call	10010e1c <alt_open_fd>
  alt_open_fd (&alt_fd_list[STDIN_FILENO], stdin_dev, O_RDONLY, 0777);
10010f34:	01c07fc4 	movi	r7,511
10010f38:	000d883a 	mov	r6,zero
10010f3c:	e17ffe17 	ldw	r5,-8(fp)
10010f40:	01040074 	movhi	r4,4097
10010f44:	210b7104 	addi	r4,r4,11716
10010f48:	0010e1c0 	call	10010e1c <alt_open_fd>
  alt_open_fd (&alt_fd_list[STDERR_FILENO], stderr_dev, O_WRONLY, 0777);
10010f4c:	01c07fc4 	movi	r7,511
10010f50:	01800044 	movi	r6,1
10010f54:	e17fff17 	ldw	r5,-4(fp)
10010f58:	01040074 	movhi	r4,4097
10010f5c:	210b7704 	addi	r4,r4,11740
10010f60:	0010e1c0 	call	10010e1c <alt_open_fd>
}  
10010f64:	0001883a 	nop
10010f68:	e037883a 	mov	sp,fp
10010f6c:	dfc00117 	ldw	ra,4(sp)
10010f70:	df000017 	ldw	fp,0(sp)
10010f74:	dec00204 	addi	sp,sp,8
10010f78:	f800283a 	ret

10010f7c <alt_get_errno>:
#undef errno

extern int errno;

static ALT_INLINE int* alt_get_errno(void)
{
10010f7c:	defffe04 	addi	sp,sp,-8
10010f80:	dfc00115 	stw	ra,4(sp)
10010f84:	df000015 	stw	fp,0(sp)
10010f88:	d839883a 	mov	fp,sp
  return ((alt_errno) ? alt_errno() : &errno);
10010f8c:	d0a00b17 	ldw	r2,-32724(gp)
10010f90:	10000326 	beq	r2,zero,10010fa0 <alt_get_errno+0x24>
10010f94:	d0a00b17 	ldw	r2,-32724(gp)
10010f98:	103ee83a 	callr	r2
10010f9c:	00000106 	br	10010fa4 <alt_get_errno+0x28>
10010fa0:	d0a6d204 	addi	r2,gp,-25784
}
10010fa4:	e037883a 	mov	sp,fp
10010fa8:	dfc00117 	ldw	ra,4(sp)
10010fac:	df000017 	ldw	fp,0(sp)
10010fb0:	dec00204 	addi	sp,sp,8
10010fb4:	f800283a 	ret

10010fb8 <alt_file_locked>:
 * performed for devices. Filesystems are required to handle the ioctl() call
 * themselves, and report the error from the filesystems open() function. 
 */ 

static int alt_file_locked (alt_fd* fd)
{
10010fb8:	defffb04 	addi	sp,sp,-20
10010fbc:	dfc00415 	stw	ra,16(sp)
10010fc0:	df000315 	stw	fp,12(sp)
10010fc4:	dc000215 	stw	r16,8(sp)
10010fc8:	df000304 	addi	fp,sp,12
10010fcc:	e13ffe15 	stw	r4,-8(fp)

  /*
   * Mark the file descriptor as belonging to a device.
   */

  fd->fd_flags |= ALT_FD_DEV;
10010fd0:	e0bffe17 	ldw	r2,-8(fp)
10010fd4:	10800217 	ldw	r2,8(r2)
10010fd8:	10d00034 	orhi	r3,r2,16384
10010fdc:	e0bffe17 	ldw	r2,-8(fp)
10010fe0:	10c00215 	stw	r3,8(r2)
  /*
   * Loop through all current file descriptors searching for one that's locked
   * for exclusive access. If a match is found, generate an error.
   */

  for (i = 0; i <= alt_max_fd; i++)
10010fe4:	e03ffd15 	stw	zero,-12(fp)
10010fe8:	00002306 	br	10011078 <alt_file_locked+0xc0>
  {
    if ((alt_fd_list[i].dev == fd->dev) &&
10010fec:	04040074 	movhi	r16,4097
10010ff0:	840b7104 	addi	r16,r16,11716
10010ff4:	e0bffd17 	ldw	r2,-12(fp)
10010ff8:	01400304 	movi	r5,12
10010ffc:	1009883a 	mov	r4,r2
10011000:	000c9680 	call	1000c968 <__mulsi3>
10011004:	8085883a 	add	r2,r16,r2
10011008:	10c00017 	ldw	r3,0(r2)
1001100c:	e0bffe17 	ldw	r2,-8(fp)
10011010:	10800017 	ldw	r2,0(r2)
10011014:	1880151e 	bne	r3,r2,1001106c <alt_file_locked+0xb4>
        (alt_fd_list[i].fd_flags & ALT_FD_EXCL) &&
10011018:	04040074 	movhi	r16,4097
1001101c:	840b7104 	addi	r16,r16,11716
10011020:	e0bffd17 	ldw	r2,-12(fp)
10011024:	01400304 	movi	r5,12
10011028:	1009883a 	mov	r4,r2
1001102c:	000c9680 	call	1000c968 <__mulsi3>
10011030:	8085883a 	add	r2,r16,r2
10011034:	10800204 	addi	r2,r2,8
10011038:	10800017 	ldw	r2,0(r2)
   * for exclusive access. If a match is found, generate an error.
   */

  for (i = 0; i <= alt_max_fd; i++)
  {
    if ((alt_fd_list[i].dev == fd->dev) &&
1001103c:	10000b0e 	bge	r2,zero,1001106c <alt_file_locked+0xb4>
        (alt_fd_list[i].fd_flags & ALT_FD_EXCL) &&
        (&alt_fd_list[i] != fd))
10011040:	01400304 	movi	r5,12
10011044:	e13ffd17 	ldw	r4,-12(fp)
10011048:	000c9680 	call	1000c968 <__mulsi3>
1001104c:	1007883a 	mov	r3,r2
10011050:	00840074 	movhi	r2,4097
10011054:	108b7104 	addi	r2,r2,11716
10011058:	1887883a 	add	r3,r3,r2
   */

  for (i = 0; i <= alt_max_fd; i++)
  {
    if ((alt_fd_list[i].dev == fd->dev) &&
        (alt_fd_list[i].fd_flags & ALT_FD_EXCL) &&
1001105c:	e0bffe17 	ldw	r2,-8(fp)
10011060:	18800226 	beq	r3,r2,1001106c <alt_file_locked+0xb4>
        (&alt_fd_list[i] != fd))
    {
      return -EACCES;
10011064:	00bffcc4 	movi	r2,-13
10011068:	00000806 	br	1001108c <alt_file_locked+0xd4>
  /*
   * Loop through all current file descriptors searching for one that's locked
   * for exclusive access. If a match is found, generate an error.
   */

  for (i = 0; i <= alt_max_fd; i++)
1001106c:	e0bffd17 	ldw	r2,-12(fp)
10011070:	10800044 	addi	r2,r2,1
10011074:	e0bffd15 	stw	r2,-12(fp)
10011078:	d0a00a17 	ldw	r2,-32728(gp)
1001107c:	1007883a 	mov	r3,r2
10011080:	e0bffd17 	ldw	r2,-12(fp)
10011084:	18bfd92e 	bgeu	r3,r2,10010fec <__alt_data_end+0xf8010fec>
    }
  }
  
  /* The device is not locked */
 
  return 0;
10011088:	0005883a 	mov	r2,zero
}
1001108c:	e6ffff04 	addi	sp,fp,-4
10011090:	dfc00217 	ldw	ra,8(sp)
10011094:	df000117 	ldw	fp,4(sp)
10011098:	dc000017 	ldw	r16,0(sp)
1001109c:	dec00304 	addi	sp,sp,12
100110a0:	f800283a 	ret

100110a4 <open>:
 *
 * ALT_OPEN is mapped onto the open() system call in alt_syscall.h
 */
 
int ALT_OPEN (const char* file, int flags, int mode)
{ 
100110a4:	defff604 	addi	sp,sp,-40
100110a8:	dfc00915 	stw	ra,36(sp)
100110ac:	df000815 	stw	fp,32(sp)
100110b0:	df000804 	addi	fp,sp,32
100110b4:	e13ffd15 	stw	r4,-12(fp)
100110b8:	e17ffe15 	stw	r5,-8(fp)
100110bc:	e1bfff15 	stw	r6,-4(fp)
  alt_dev* dev;
  alt_fd*  fd;
  int index  = -1;
100110c0:	00bfffc4 	movi	r2,-1
100110c4:	e0bff915 	stw	r2,-28(fp)
  int status = -ENODEV;
100110c8:	00bffb44 	movi	r2,-19
100110cc:	e0bffa15 	stw	r2,-24(fp)
  int isafs = 0;
100110d0:	e03ffb15 	stw	zero,-20(fp)
  /* 
   * Check the device list, to see if a device with a matching name is 
   * registered.
   */
  
  if (!(dev = alt_find_dev (file, &alt_dev_list)))
100110d4:	d1600804 	addi	r5,gp,-32736
100110d8:	e13ffd17 	ldw	r4,-12(fp)
100110dc:	00113c80 	call	100113c8 <alt_find_dev>
100110e0:	e0bff815 	stw	r2,-32(fp)
100110e4:	e0bff817 	ldw	r2,-32(fp)
100110e8:	1000051e 	bne	r2,zero,10011100 <open+0x5c>
  {
    /* No matching device, so try the filesystem list */

    dev   = alt_find_file (file);
100110ec:	e13ffd17 	ldw	r4,-12(fp)
100110f0:	00114580 	call	10011458 <alt_find_file>
100110f4:	e0bff815 	stw	r2,-32(fp)
    isafs = 1;
100110f8:	00800044 	movi	r2,1
100110fc:	e0bffb15 	stw	r2,-20(fp)

  /* 
   * If a matching device or filesystem is found, allocate a file descriptor. 
   */

  if (dev)
10011100:	e0bff817 	ldw	r2,-32(fp)
10011104:	10002b26 	beq	r2,zero,100111b4 <open+0x110>
  {
    if ((index = alt_get_fd (dev)) < 0)
10011108:	e13ff817 	ldw	r4,-32(fp)
1001110c:	00115600 	call	10011560 <alt_get_fd>
10011110:	e0bff915 	stw	r2,-28(fp)
10011114:	e0bff917 	ldw	r2,-28(fp)
10011118:	1000030e 	bge	r2,zero,10011128 <open+0x84>
    {
      status = index;
1001111c:	e0bff917 	ldw	r2,-28(fp)
10011120:	e0bffa15 	stw	r2,-24(fp)
10011124:	00002506 	br	100111bc <open+0x118>
    }
    else
    {
      fd = &alt_fd_list[index];
10011128:	01400304 	movi	r5,12
1001112c:	e13ff917 	ldw	r4,-28(fp)
10011130:	000c9680 	call	1000c968 <__mulsi3>
10011134:	1007883a 	mov	r3,r2
10011138:	00840074 	movhi	r2,4097
1001113c:	108b7104 	addi	r2,r2,11716
10011140:	1885883a 	add	r2,r3,r2
10011144:	e0bffc15 	stw	r2,-16(fp)
      fd->fd_flags = (flags & ~ALT_FD_FLAGS_MASK);
10011148:	e0fffe17 	ldw	r3,-8(fp)
1001114c:	00900034 	movhi	r2,16384
10011150:	10bfffc4 	addi	r2,r2,-1
10011154:	1886703a 	and	r3,r3,r2
10011158:	e0bffc17 	ldw	r2,-16(fp)
1001115c:	10c00215 	stw	r3,8(r2)
      
      /* If this is a device, ensure it isn't already locked */

      if (isafs || ((status = alt_file_locked (fd)) >= 0))
10011160:	e0bffb17 	ldw	r2,-20(fp)
10011164:	1000051e 	bne	r2,zero,1001117c <open+0xd8>
10011168:	e13ffc17 	ldw	r4,-16(fp)
1001116c:	0010fb80 	call	10010fb8 <alt_file_locked>
10011170:	e0bffa15 	stw	r2,-24(fp)
10011174:	e0bffa17 	ldw	r2,-24(fp)
10011178:	10001016 	blt	r2,zero,100111bc <open+0x118>
        /* 
         * If the device or filesystem provides an open() callback function,
         * call it now to perform any device/filesystem specific operations.
         */
    
        status = (dev->open) ? dev->open(fd, file, flags, mode): 0;
1001117c:	e0bff817 	ldw	r2,-32(fp)
10011180:	10800317 	ldw	r2,12(r2)
10011184:	10000826 	beq	r2,zero,100111a8 <open+0x104>
10011188:	e0bff817 	ldw	r2,-32(fp)
1001118c:	10800317 	ldw	r2,12(r2)
10011190:	e1ffff17 	ldw	r7,-4(fp)
10011194:	e1bffe17 	ldw	r6,-8(fp)
10011198:	e17ffd17 	ldw	r5,-12(fp)
1001119c:	e13ffc17 	ldw	r4,-16(fp)
100111a0:	103ee83a 	callr	r2
100111a4:	00000106 	br	100111ac <open+0x108>
100111a8:	0005883a 	mov	r2,zero
100111ac:	e0bffa15 	stw	r2,-24(fp)
100111b0:	00000206 	br	100111bc <open+0x118>
      }
    }
  }
  else
  {
    status = -ENODEV;
100111b4:	00bffb44 	movi	r2,-19
100111b8:	e0bffa15 	stw	r2,-24(fp)
  }

  /* Allocation failed, so clean up and return an error */ 

  if (status < 0)
100111bc:	e0bffa17 	ldw	r2,-24(fp)
100111c0:	1000090e 	bge	r2,zero,100111e8 <open+0x144>
  {
    alt_release_fd (index);  
100111c4:	e13ff917 	ldw	r4,-28(fp)
100111c8:	000f9580 	call	1000f958 <alt_release_fd>
    ALT_ERRNO = -status;
100111cc:	0010f7c0 	call	10010f7c <alt_get_errno>
100111d0:	1007883a 	mov	r3,r2
100111d4:	e0bffa17 	ldw	r2,-24(fp)
100111d8:	0085c83a 	sub	r2,zero,r2
100111dc:	18800015 	stw	r2,0(r3)
    return -1;
100111e0:	00bfffc4 	movi	r2,-1
100111e4:	00000106 	br	100111ec <open+0x148>
  }
  
  /* return the reference upon success */

  return index;
100111e8:	e0bff917 	ldw	r2,-28(fp)
}
100111ec:	e037883a 	mov	sp,fp
100111f0:	dfc00117 	ldw	ra,4(sp)
100111f4:	df000017 	ldw	fp,0(sp)
100111f8:	dec00204 	addi	sp,sp,8
100111fc:	f800283a 	ret

10011200 <alt_alarm_stop>:
 * alarms. Alternatively an alarm can unregister itself by returning zero when 
 * the alarm executes.
 */

void alt_alarm_stop (alt_alarm* alarm)
{
10011200:	defffa04 	addi	sp,sp,-24
10011204:	df000515 	stw	fp,20(sp)
10011208:	df000504 	addi	fp,sp,20
1001120c:	e13fff15 	stw	r4,-4(fp)
static ALT_INLINE alt_irq_context ALT_ALWAYS_INLINE 
       alt_irq_disable_all (void)
{
  alt_irq_context context;

  NIOS2_READ_STATUS (context);
10011210:	0005303a 	rdctl	r2,status
10011214:	e0bffc15 	stw	r2,-16(fp)

  NIOS2_WRITE_STATUS (context & ~NIOS2_STATUS_PIE_MSK);
10011218:	e0fffc17 	ldw	r3,-16(fp)
1001121c:	00bfff84 	movi	r2,-2
10011220:	1884703a 	and	r2,r3,r2
10011224:	1001703a 	wrctl	status,r2
  
  return context;
10011228:	e0bffc17 	ldw	r2,-16(fp)
  alt_irq_context irq_context;

  irq_context = alt_irq_disable_all();
1001122c:	e0bffb15 	stw	r2,-20(fp)
  alt_llist_remove (&alarm->llist);
10011230:	e0bfff17 	ldw	r2,-4(fp)
10011234:	e0bffd15 	stw	r2,-12(fp)
 * input argument is the element to remove.
 */
     
static ALT_INLINE void ALT_ALWAYS_INLINE alt_llist_remove(alt_llist* entry)
{
  entry->next->previous = entry->previous;
10011238:	e0bffd17 	ldw	r2,-12(fp)
1001123c:	10800017 	ldw	r2,0(r2)
10011240:	e0fffd17 	ldw	r3,-12(fp)
10011244:	18c00117 	ldw	r3,4(r3)
10011248:	10c00115 	stw	r3,4(r2)
  entry->previous->next = entry->next;
1001124c:	e0bffd17 	ldw	r2,-12(fp)
10011250:	10800117 	ldw	r2,4(r2)
10011254:	e0fffd17 	ldw	r3,-12(fp)
10011258:	18c00017 	ldw	r3,0(r3)
1001125c:	10c00015 	stw	r3,0(r2)
  /* 
   * Set the entry to point to itself, so that any further calls to
   * alt_llist_remove() are harmless.
   */

  entry->previous = entry;
10011260:	e0bffd17 	ldw	r2,-12(fp)
10011264:	e0fffd17 	ldw	r3,-12(fp)
10011268:	10c00115 	stw	r3,4(r2)
  entry->next     = entry;
1001126c:	e0bffd17 	ldw	r2,-12(fp)
10011270:	e0fffd17 	ldw	r3,-12(fp)
10011274:	10c00015 	stw	r3,0(r2)
10011278:	e0bffb17 	ldw	r2,-20(fp)
1001127c:	e0bffe15 	stw	r2,-8(fp)
  status &= ~NIOS2_STATUS_PIE_MSK;
  status |= (context & NIOS2_STATUS_PIE_MSK);
  
  NIOS2_WRITE_STATUS (status);
#else
  NIOS2_WRITE_STATUS (context);
10011280:	e0bffe17 	ldw	r2,-8(fp)
10011284:	1001703a 	wrctl	status,r2
  alt_irq_enable_all (irq_context);
}
10011288:	0001883a 	nop
1001128c:	e037883a 	mov	sp,fp
10011290:	df000017 	ldw	fp,0(sp)
10011294:	dec00104 	addi	sp,sp,4
10011298:	f800283a 	ret

1001129c <alt_tick>:
 * 
 * alt_tick() is expected to run at interrupt level.
 */

void alt_tick (void)
{
1001129c:	defffb04 	addi	sp,sp,-20
100112a0:	dfc00415 	stw	ra,16(sp)
100112a4:	df000315 	stw	fp,12(sp)
100112a8:	df000304 	addi	fp,sp,12
  alt_alarm* next;
  alt_alarm* alarm = (alt_alarm*) alt_alarm_list.next;
100112ac:	d0a00e17 	ldw	r2,-32712(gp)
100112b0:	e0bffd15 	stw	r2,-12(fp)

  alt_u32    next_callback;

  /* update the tick counter */

  _alt_nticks++;
100112b4:	d0a6d817 	ldw	r2,-25760(gp)
100112b8:	10800044 	addi	r2,r2,1
100112bc:	d0a6d815 	stw	r2,-25760(gp)

  /* process the registered callbacks */

  while (alarm != (alt_alarm*) &alt_alarm_list)
100112c0:	00002e06 	br	1001137c <alt_tick+0xe0>
  {
    next = (alt_alarm*) alarm->llist.next;
100112c4:	e0bffd17 	ldw	r2,-12(fp)
100112c8:	10800017 	ldw	r2,0(r2)
100112cc:	e0bffe15 	stw	r2,-8(fp)
    /* 
     * Upon the tick-counter rolling over it is safe to clear the 
     * roll-over flag; once the flag is cleared this (or subsequnt)
     * tick events are enabled to generate an alarm event. 
     */
    if ((alarm->rollover) && (_alt_nticks == 0))
100112d0:	e0bffd17 	ldw	r2,-12(fp)
100112d4:	10800403 	ldbu	r2,16(r2)
100112d8:	10803fcc 	andi	r2,r2,255
100112dc:	10000426 	beq	r2,zero,100112f0 <alt_tick+0x54>
100112e0:	d0a6d817 	ldw	r2,-25760(gp)
100112e4:	1000021e 	bne	r2,zero,100112f0 <alt_tick+0x54>
    {
      alarm->rollover = 0;
100112e8:	e0bffd17 	ldw	r2,-12(fp)
100112ec:	10000405 	stb	zero,16(r2)
    }
    
    /* if the alarm period has expired, make the callback */    
    if ((alarm->time <= _alt_nticks) && (alarm->rollover == 0))
100112f0:	e0bffd17 	ldw	r2,-12(fp)
100112f4:	10800217 	ldw	r2,8(r2)
100112f8:	d0e6d817 	ldw	r3,-25760(gp)
100112fc:	18801d36 	bltu	r3,r2,10011374 <alt_tick+0xd8>
10011300:	e0bffd17 	ldw	r2,-12(fp)
10011304:	10800403 	ldbu	r2,16(r2)
10011308:	10803fcc 	andi	r2,r2,255
1001130c:	1000191e 	bne	r2,zero,10011374 <alt_tick+0xd8>
    {
      next_callback = alarm->callback (alarm->context);
10011310:	e0bffd17 	ldw	r2,-12(fp)
10011314:	10800317 	ldw	r2,12(r2)
10011318:	e0fffd17 	ldw	r3,-12(fp)
1001131c:	18c00517 	ldw	r3,20(r3)
10011320:	1809883a 	mov	r4,r3
10011324:	103ee83a 	callr	r2
10011328:	e0bfff15 	stw	r2,-4(fp)

      /* deactivate the alarm if the return value is zero */

      if (next_callback == 0)
1001132c:	e0bfff17 	ldw	r2,-4(fp)
10011330:	1000031e 	bne	r2,zero,10011340 <alt_tick+0xa4>
      {
        alt_alarm_stop (alarm);
10011334:	e13ffd17 	ldw	r4,-12(fp)
10011338:	00112000 	call	10011200 <alt_alarm_stop>
1001133c:	00000d06 	br	10011374 <alt_tick+0xd8>
      }
      else
      {
        alarm->time += next_callback;
10011340:	e0bffd17 	ldw	r2,-12(fp)
10011344:	10c00217 	ldw	r3,8(r2)
10011348:	e0bfff17 	ldw	r2,-4(fp)
1001134c:	1887883a 	add	r3,r3,r2
10011350:	e0bffd17 	ldw	r2,-12(fp)
10011354:	10c00215 	stw	r3,8(r2)
        /* 
         * If the desired alarm time causes a roll-over, set the rollover
         * flag. This will prevent the subsequent tick event from causing
         * an alarm too early.
         */
        if(alarm->time < _alt_nticks)
10011358:	e0bffd17 	ldw	r2,-12(fp)
1001135c:	10c00217 	ldw	r3,8(r2)
10011360:	d0a6d817 	ldw	r2,-25760(gp)
10011364:	1880032e 	bgeu	r3,r2,10011374 <alt_tick+0xd8>
        {
          alarm->rollover = 1;
10011368:	e0bffd17 	ldw	r2,-12(fp)
1001136c:	00c00044 	movi	r3,1
10011370:	10c00405 	stb	r3,16(r2)
        }
      }
    }
    alarm = next;
10011374:	e0bffe17 	ldw	r2,-8(fp)
10011378:	e0bffd15 	stw	r2,-12(fp)

  _alt_nticks++;

  /* process the registered callbacks */

  while (alarm != (alt_alarm*) &alt_alarm_list)
1001137c:	e0fffd17 	ldw	r3,-12(fp)
10011380:	d0a00e04 	addi	r2,gp,-32712
10011384:	18bfcf1e 	bne	r3,r2,100112c4 <__alt_data_end+0xf80112c4>

  /* 
   * Update the operating system specific timer facilities.
   */

  ALT_OS_TIME_TICK();
10011388:	0001883a 	nop
}
1001138c:	0001883a 	nop
10011390:	e037883a 	mov	sp,fp
10011394:	dfc00117 	ldw	ra,4(sp)
10011398:	df000017 	ldw	fp,0(sp)
1001139c:	dec00204 	addi	sp,sp,8
100113a0:	f800283a 	ret

100113a4 <altera_nios2_gen2_irq_init>:
/*
 * To initialize the internal interrupt controller, just clear the IENABLE
 * register so that all possible IRQs are disabled.
 */
void altera_nios2_gen2_irq_init(void) 
{
100113a4:	deffff04 	addi	sp,sp,-4
100113a8:	df000015 	stw	fp,0(sp)
100113ac:	d839883a 	mov	fp,sp
    NIOS2_WRITE_IENABLE(0);
100113b0:	000170fa 	wrctl	ienable,zero
}
100113b4:	0001883a 	nop
100113b8:	e037883a 	mov	sp,fp
100113bc:	df000017 	ldw	fp,0(sp)
100113c0:	dec00104 	addi	sp,sp,4
100113c4:	f800283a 	ret

100113c8 <alt_find_dev>:
 * "name" must be an exact match for the devices registered name for a match to
 * be found.
 */
 
alt_dev* alt_find_dev(const char* name, alt_llist* llist)
{
100113c8:	defffa04 	addi	sp,sp,-24
100113cc:	dfc00515 	stw	ra,20(sp)
100113d0:	df000415 	stw	fp,16(sp)
100113d4:	df000404 	addi	fp,sp,16
100113d8:	e13ffe15 	stw	r4,-8(fp)
100113dc:	e17fff15 	stw	r5,-4(fp)
  alt_dev* next = (alt_dev*) llist->next;
100113e0:	e0bfff17 	ldw	r2,-4(fp)
100113e4:	10800017 	ldw	r2,0(r2)
100113e8:	e0bffc15 	stw	r2,-16(fp)
  alt_32 len;

  len  = strlen(name) + 1;
100113ec:	e13ffe17 	ldw	r4,-8(fp)
100113f0:	00024340 	call	10002434 <strlen>
100113f4:	10800044 	addi	r2,r2,1
100113f8:	e0bffd15 	stw	r2,-12(fp)
  /*
   * Check each list entry in turn, until a match is found, or we reach the
   * end of the list (i.e. next winds up pointing back to the list head).
   */ 

  while (next != (alt_dev*) llist)
100113fc:	00000d06 	br	10011434 <alt_find_dev+0x6c>
    /* 
     * memcmp() is used here rather than strcmp() in order to reduce the size
     * of the executable.
     */

    if (!memcmp (next->name, name, len))
10011400:	e0bffc17 	ldw	r2,-16(fp)
10011404:	10800217 	ldw	r2,8(r2)
10011408:	e0fffd17 	ldw	r3,-12(fp)
1001140c:	180d883a 	mov	r6,r3
10011410:	e17ffe17 	ldw	r5,-8(fp)
10011414:	1009883a 	mov	r4,r2
10011418:	001170c0 	call	1001170c <memcmp>
1001141c:	1000021e 	bne	r2,zero,10011428 <alt_find_dev+0x60>
    {
      /* match found */

      return next;
10011420:	e0bffc17 	ldw	r2,-16(fp)
10011424:	00000706 	br	10011444 <alt_find_dev+0x7c>
    }
    next = (alt_dev*) next->llist.next;
10011428:	e0bffc17 	ldw	r2,-16(fp)
1001142c:	10800017 	ldw	r2,0(r2)
10011430:	e0bffc15 	stw	r2,-16(fp)
  /*
   * Check each list entry in turn, until a match is found, or we reach the
   * end of the list (i.e. next winds up pointing back to the list head).
   */ 

  while (next != (alt_dev*) llist)
10011434:	e0fffc17 	ldw	r3,-16(fp)
10011438:	e0bfff17 	ldw	r2,-4(fp)
1001143c:	18bff01e 	bne	r3,r2,10011400 <__alt_data_end+0xf8011400>
    next = (alt_dev*) next->llist.next;
  }
  
  /* No match found */
  
  return NULL;
10011440:	0005883a 	mov	r2,zero
}
10011444:	e037883a 	mov	sp,fp
10011448:	dfc00117 	ldw	ra,4(sp)
1001144c:	df000017 	ldw	fp,0(sp)
10011450:	dec00204 	addi	sp,sp,8
10011454:	f800283a 	ret

10011458 <alt_find_file>:
 * either '/' or '\0' is the prefix of the filename. For example the filename:
 * "/myfilesystem/junk.txt" would match: "/myfilesystem", but not: "/myfile". 
 */
 
alt_dev* alt_find_file (const char* name)
{
10011458:	defffb04 	addi	sp,sp,-20
1001145c:	dfc00415 	stw	ra,16(sp)
10011460:	df000315 	stw	fp,12(sp)
10011464:	df000304 	addi	fp,sp,12
10011468:	e13fff15 	stw	r4,-4(fp)
  alt_dev* next = (alt_dev*) alt_fs_list.next;   
1001146c:	d0a00617 	ldw	r2,-32744(gp)
10011470:	e0bffd15 	stw	r2,-12(fp)
  /*
   * Check each list entry in turn, until a match is found, or we reach the
   * end of the list (i.e. next winds up pointing back to the list head).
   */ 
 
  while (next != (alt_dev*) &alt_fs_list)
10011474:	00003106 	br	1001153c <alt_find_file+0xe4>
  {
    len = strlen(next->name);
10011478:	e0bffd17 	ldw	r2,-12(fp)
1001147c:	10800217 	ldw	r2,8(r2)
10011480:	1009883a 	mov	r4,r2
10011484:	00024340 	call	10002434 <strlen>
10011488:	e0bffe15 	stw	r2,-8(fp)
    
    if (next->name[len-1] == '/')
1001148c:	e0bffd17 	ldw	r2,-12(fp)
10011490:	10c00217 	ldw	r3,8(r2)
10011494:	e0bffe17 	ldw	r2,-8(fp)
10011498:	10bfffc4 	addi	r2,r2,-1
1001149c:	1885883a 	add	r2,r3,r2
100114a0:	10800003 	ldbu	r2,0(r2)
100114a4:	10803fcc 	andi	r2,r2,255
100114a8:	1080201c 	xori	r2,r2,128
100114ac:	10bfe004 	addi	r2,r2,-128
100114b0:	10800bd8 	cmpnei	r2,r2,47
100114b4:	1000031e 	bne	r2,zero,100114c4 <alt_find_file+0x6c>
    {
      len -= 1;
100114b8:	e0bffe17 	ldw	r2,-8(fp)
100114bc:	10bfffc4 	addi	r2,r2,-1
100114c0:	e0bffe15 	stw	r2,-8(fp)
    }

    if (((name[len] == '/') || (name[len] == '\0')) && 
100114c4:	e0bffe17 	ldw	r2,-8(fp)
100114c8:	e0ffff17 	ldw	r3,-4(fp)
100114cc:	1885883a 	add	r2,r3,r2
100114d0:	10800003 	ldbu	r2,0(r2)
100114d4:	10803fcc 	andi	r2,r2,255
100114d8:	1080201c 	xori	r2,r2,128
100114dc:	10bfe004 	addi	r2,r2,-128
100114e0:	10800be0 	cmpeqi	r2,r2,47
100114e4:	1000081e 	bne	r2,zero,10011508 <alt_find_file+0xb0>
100114e8:	e0bffe17 	ldw	r2,-8(fp)
100114ec:	e0ffff17 	ldw	r3,-4(fp)
100114f0:	1885883a 	add	r2,r3,r2
100114f4:	10800003 	ldbu	r2,0(r2)
100114f8:	10803fcc 	andi	r2,r2,255
100114fc:	1080201c 	xori	r2,r2,128
10011500:	10bfe004 	addi	r2,r2,-128
10011504:	10000a1e 	bne	r2,zero,10011530 <alt_find_file+0xd8>
        !memcmp (next->name, name, len))
10011508:	e0bffd17 	ldw	r2,-12(fp)
1001150c:	10800217 	ldw	r2,8(r2)
10011510:	e0fffe17 	ldw	r3,-8(fp)
10011514:	180d883a 	mov	r6,r3
10011518:	e17fff17 	ldw	r5,-4(fp)
1001151c:	1009883a 	mov	r4,r2
10011520:	001170c0 	call	1001170c <memcmp>
    if (next->name[len-1] == '/')
    {
      len -= 1;
    }

    if (((name[len] == '/') || (name[len] == '\0')) && 
10011524:	1000021e 	bne	r2,zero,10011530 <alt_find_file+0xd8>
        !memcmp (next->name, name, len))
    {
      /* match found */

      return next;
10011528:	e0bffd17 	ldw	r2,-12(fp)
1001152c:	00000706 	br	1001154c <alt_find_file+0xf4>
    }
    next = (alt_dev*) next->llist.next;
10011530:	e0bffd17 	ldw	r2,-12(fp)
10011534:	10800017 	ldw	r2,0(r2)
10011538:	e0bffd15 	stw	r2,-12(fp)
  /*
   * Check each list entry in turn, until a match is found, or we reach the
   * end of the list (i.e. next winds up pointing back to the list head).
   */ 
 
  while (next != (alt_dev*) &alt_fs_list)
1001153c:	e0fffd17 	ldw	r3,-12(fp)
10011540:	d0a00604 	addi	r2,gp,-32744
10011544:	18bfcc1e 	bne	r3,r2,10011478 <__alt_data_end+0xf8011478>
    next = (alt_dev*) next->llist.next;
  }
  
  /* No match found */
  
  return NULL;     
10011548:	0005883a 	mov	r2,zero
}
1001154c:	e037883a 	mov	sp,fp
10011550:	dfc00117 	ldw	ra,4(sp)
10011554:	df000017 	ldw	fp,0(sp)
10011558:	dec00204 	addi	sp,sp,8
1001155c:	f800283a 	ret

10011560 <alt_get_fd>:
 * the offset of the file descriptor within the file descriptor array). A
 * negative value indicates failure.
 */

int alt_get_fd (alt_dev* dev)
{
10011560:	defffa04 	addi	sp,sp,-24
10011564:	dfc00515 	stw	ra,20(sp)
10011568:	df000415 	stw	fp,16(sp)
1001156c:	dc000315 	stw	r16,12(sp)
10011570:	df000404 	addi	fp,sp,16
10011574:	e13ffe15 	stw	r4,-8(fp)
  alt_32 i;
  int rc = -EMFILE;
10011578:	00bffa04 	movi	r2,-24
1001157c:	e0bffd15 	stw	r2,-12(fp)
   * indicates the highest file descriptor ever allocated. This is used to
   * improve efficency when searching the file descriptor list, and 
   * therefore reduce contention on the alt_fd_list_lock semaphore. 
   */

  for (i = 0; i < ALT_MAX_FD; i++)
10011580:	e03ffc15 	stw	zero,-16(fp)
10011584:	00001d06 	br	100115fc <alt_get_fd+0x9c>
  {
    if (!alt_fd_list[i].dev)
10011588:	04040074 	movhi	r16,4097
1001158c:	840b7104 	addi	r16,r16,11716
10011590:	e0bffc17 	ldw	r2,-16(fp)
10011594:	01400304 	movi	r5,12
10011598:	1009883a 	mov	r4,r2
1001159c:	000c9680 	call	1000c968 <__mulsi3>
100115a0:	8085883a 	add	r2,r16,r2
100115a4:	10800017 	ldw	r2,0(r2)
100115a8:	1000111e 	bne	r2,zero,100115f0 <alt_get_fd+0x90>
    {
      alt_fd_list[i].dev = dev;
100115ac:	04040074 	movhi	r16,4097
100115b0:	840b7104 	addi	r16,r16,11716
100115b4:	e0bffc17 	ldw	r2,-16(fp)
100115b8:	01400304 	movi	r5,12
100115bc:	1009883a 	mov	r4,r2
100115c0:	000c9680 	call	1000c968 <__mulsi3>
100115c4:	8085883a 	add	r2,r16,r2
100115c8:	e0fffe17 	ldw	r3,-8(fp)
100115cc:	10c00015 	stw	r3,0(r2)
      if (i > alt_max_fd)
100115d0:	d0e00a17 	ldw	r3,-32728(gp)
100115d4:	e0bffc17 	ldw	r2,-16(fp)
100115d8:	1880020e 	bge	r3,r2,100115e4 <alt_get_fd+0x84>
      {
        alt_max_fd = i;
100115dc:	e0bffc17 	ldw	r2,-16(fp)
100115e0:	d0a00a15 	stw	r2,-32728(gp)
      }
      rc = i;
100115e4:	e0bffc17 	ldw	r2,-16(fp)
100115e8:	e0bffd15 	stw	r2,-12(fp)
      goto alt_get_fd_exit;
100115ec:	00000606 	br	10011608 <alt_get_fd+0xa8>
   * indicates the highest file descriptor ever allocated. This is used to
   * improve efficency when searching the file descriptor list, and 
   * therefore reduce contention on the alt_fd_list_lock semaphore. 
   */

  for (i = 0; i < ALT_MAX_FD; i++)
100115f0:	e0bffc17 	ldw	r2,-16(fp)
100115f4:	10800044 	addi	r2,r2,1
100115f8:	e0bffc15 	stw	r2,-16(fp)
100115fc:	e0bffc17 	ldw	r2,-16(fp)
10011600:	10800810 	cmplti	r2,r2,32
10011604:	103fe01e 	bne	r2,zero,10011588 <__alt_data_end+0xf8011588>
   * file descriptor pool.
   */

  ALT_SEM_POST(alt_fd_list_lock);

  return rc;
10011608:	e0bffd17 	ldw	r2,-12(fp)
}
1001160c:	e6ffff04 	addi	sp,fp,-4
10011610:	dfc00217 	ldw	ra,8(sp)
10011614:	df000117 	ldw	fp,4(sp)
10011618:	dc000017 	ldw	r16,0(sp)
1001161c:	dec00304 	addi	sp,sp,12
10011620:	f800283a 	ret

10011624 <alt_exception_cause_generated_bad_addr>:
 * Return: 1: BADADDR (bad_addr argument to handler) is valid
 *         0: BADADDR is not valid
 */
int 
alt_exception_cause_generated_bad_addr(alt_exception_cause cause)
{
10011624:	defffe04 	addi	sp,sp,-8
10011628:	df000115 	stw	fp,4(sp)
1001162c:	df000104 	addi	fp,sp,4
10011630:	e13fff15 	stw	r4,-4(fp)
  switch (cause) {
10011634:	e0bfff17 	ldw	r2,-4(fp)
10011638:	10bffe84 	addi	r2,r2,-6
1001163c:	10c00428 	cmpgeui	r3,r2,16
10011640:	18001a1e 	bne	r3,zero,100116ac <alt_exception_cause_generated_bad_addr+0x88>
10011644:	100690ba 	slli	r3,r2,2
10011648:	00840074 	movhi	r2,4097
1001164c:	10859704 	addi	r2,r2,5724
10011650:	1885883a 	add	r2,r3,r2
10011654:	10800017 	ldw	r2,0(r2)
10011658:	1000683a 	jmp	r2
1001165c:	1001169c 	xori	zero,r2,1114
10011660:	1001169c 	xori	zero,r2,1114
10011664:	100116ac 	andhi	zero,r2,1114
10011668:	100116ac 	andhi	zero,r2,1114
1001166c:	100116ac 	andhi	zero,r2,1114
10011670:	1001169c 	xori	zero,r2,1114
10011674:	100116a4 	muli	zero,r2,1114
10011678:	100116ac 	andhi	zero,r2,1114
1001167c:	1001169c 	xori	zero,r2,1114
10011680:	1001169c 	xori	zero,r2,1114
10011684:	100116ac 	andhi	zero,r2,1114
10011688:	1001169c 	xori	zero,r2,1114
1001168c:	100116a4 	muli	zero,r2,1114
10011690:	100116ac 	andhi	zero,r2,1114
10011694:	100116ac 	andhi	zero,r2,1114
10011698:	1001169c 	xori	zero,r2,1114
  case NIOS2_EXCEPTION_MISALIGNED_TARGET_PC:
  case NIOS2_EXCEPTION_TLB_READ_PERM_VIOLATION:
  case NIOS2_EXCEPTION_TLB_WRITE_PERM_VIOLATION:
  case NIOS2_EXCEPTION_MPU_DATA_REGION_VIOLATION:
  case NIOS2_EXCEPTION_ECC_DATA_ERR:
    return 1;
1001169c:	00800044 	movi	r2,1
100116a0:	00000306 	br	100116b0 <alt_exception_cause_generated_bad_addr+0x8c>

  case NIOS2_EXCEPTION_TLB_MISS:
  case NIOS2_EXCEPTION_ECC_TLB_ERR:
    return 0;
100116a4:	0005883a 	mov	r2,zero
100116a8:	00000106 	br	100116b0 <alt_exception_cause_generated_bad_addr+0x8c>

  default:
    return 0;
100116ac:	0005883a 	mov	r2,zero
  }
}
100116b0:	e037883a 	mov	sp,fp
100116b4:	df000017 	ldw	fp,0(sp)
100116b8:	dec00104 	addi	sp,sp,4
100116bc:	f800283a 	ret

100116c0 <atexit>:
100116c0:	200b883a 	mov	r5,r4
100116c4:	000f883a 	mov	r7,zero
100116c8:	000d883a 	mov	r6,zero
100116cc:	0009883a 	mov	r4,zero
100116d0:	00117881 	jmpi	10011788 <__register_exitproc>

100116d4 <exit>:
100116d4:	defffe04 	addi	sp,sp,-8
100116d8:	000b883a 	mov	r5,zero
100116dc:	dc000015 	stw	r16,0(sp)
100116e0:	dfc00115 	stw	ra,4(sp)
100116e4:	2021883a 	mov	r16,r4
100116e8:	00118a00 	call	100118a0 <__call_exitprocs>
100116ec:	00840074 	movhi	r2,4097
100116f0:	108fe904 	addi	r2,r2,16292
100116f4:	11000017 	ldw	r4,0(r2)
100116f8:	20800f17 	ldw	r2,60(r4)
100116fc:	10000126 	beq	r2,zero,10011704 <exit+0x30>
10011700:	103ee83a 	callr	r2
10011704:	8009883a 	mov	r4,r16
10011708:	0011a200 	call	10011a20 <_exit>

1001170c <memcmp>:
1001170c:	01c000c4 	movi	r7,3
10011710:	3980192e 	bgeu	r7,r6,10011778 <memcmp+0x6c>
10011714:	2144b03a 	or	r2,r4,r5
10011718:	11c4703a 	and	r2,r2,r7
1001171c:	10000f26 	beq	r2,zero,1001175c <memcmp+0x50>
10011720:	20800003 	ldbu	r2,0(r4)
10011724:	28c00003 	ldbu	r3,0(r5)
10011728:	10c0151e 	bne	r2,r3,10011780 <memcmp+0x74>
1001172c:	31bfff84 	addi	r6,r6,-2
10011730:	01ffffc4 	movi	r7,-1
10011734:	00000406 	br	10011748 <memcmp+0x3c>
10011738:	20800003 	ldbu	r2,0(r4)
1001173c:	28c00003 	ldbu	r3,0(r5)
10011740:	31bfffc4 	addi	r6,r6,-1
10011744:	10c00e1e 	bne	r2,r3,10011780 <memcmp+0x74>
10011748:	21000044 	addi	r4,r4,1
1001174c:	29400044 	addi	r5,r5,1
10011750:	31fff91e 	bne	r6,r7,10011738 <__alt_data_end+0xf8011738>
10011754:	0005883a 	mov	r2,zero
10011758:	f800283a 	ret
1001175c:	20c00017 	ldw	r3,0(r4)
10011760:	28800017 	ldw	r2,0(r5)
10011764:	18bfee1e 	bne	r3,r2,10011720 <__alt_data_end+0xf8011720>
10011768:	31bfff04 	addi	r6,r6,-4
1001176c:	21000104 	addi	r4,r4,4
10011770:	29400104 	addi	r5,r5,4
10011774:	39bff936 	bltu	r7,r6,1001175c <__alt_data_end+0xf801175c>
10011778:	303fe91e 	bne	r6,zero,10011720 <__alt_data_end+0xf8011720>
1001177c:	003ff506 	br	10011754 <__alt_data_end+0xf8011754>
10011780:	10c5c83a 	sub	r2,r2,r3
10011784:	f800283a 	ret

10011788 <__register_exitproc>:
10011788:	defffa04 	addi	sp,sp,-24
1001178c:	dc000315 	stw	r16,12(sp)
10011790:	04040074 	movhi	r16,4097
10011794:	840fe904 	addi	r16,r16,16292
10011798:	80c00017 	ldw	r3,0(r16)
1001179c:	dc400415 	stw	r17,16(sp)
100117a0:	dfc00515 	stw	ra,20(sp)
100117a4:	18805217 	ldw	r2,328(r3)
100117a8:	2023883a 	mov	r17,r4
100117ac:	10003726 	beq	r2,zero,1001188c <__register_exitproc+0x104>
100117b0:	10c00117 	ldw	r3,4(r2)
100117b4:	010007c4 	movi	r4,31
100117b8:	20c00e16 	blt	r4,r3,100117f4 <__register_exitproc+0x6c>
100117bc:	1a000044 	addi	r8,r3,1
100117c0:	8800221e 	bne	r17,zero,1001184c <__register_exitproc+0xc4>
100117c4:	18c00084 	addi	r3,r3,2
100117c8:	18c7883a 	add	r3,r3,r3
100117cc:	18c7883a 	add	r3,r3,r3
100117d0:	12000115 	stw	r8,4(r2)
100117d4:	10c7883a 	add	r3,r2,r3
100117d8:	19400015 	stw	r5,0(r3)
100117dc:	0005883a 	mov	r2,zero
100117e0:	dfc00517 	ldw	ra,20(sp)
100117e4:	dc400417 	ldw	r17,16(sp)
100117e8:	dc000317 	ldw	r16,12(sp)
100117ec:	dec00604 	addi	sp,sp,24
100117f0:	f800283a 	ret
100117f4:	00800034 	movhi	r2,0
100117f8:	10800004 	addi	r2,r2,0
100117fc:	10002626 	beq	r2,zero,10011898 <__register_exitproc+0x110>
10011800:	01006404 	movi	r4,400
10011804:	d9400015 	stw	r5,0(sp)
10011808:	d9800115 	stw	r6,4(sp)
1001180c:	d9c00215 	stw	r7,8(sp)
10011810:	00000000 	call	10000000 <__alt_mem_sdram>
10011814:	d9400017 	ldw	r5,0(sp)
10011818:	d9800117 	ldw	r6,4(sp)
1001181c:	d9c00217 	ldw	r7,8(sp)
10011820:	10001d26 	beq	r2,zero,10011898 <__register_exitproc+0x110>
10011824:	81000017 	ldw	r4,0(r16)
10011828:	10000115 	stw	zero,4(r2)
1001182c:	02000044 	movi	r8,1
10011830:	22405217 	ldw	r9,328(r4)
10011834:	0007883a 	mov	r3,zero
10011838:	12400015 	stw	r9,0(r2)
1001183c:	20805215 	stw	r2,328(r4)
10011840:	10006215 	stw	zero,392(r2)
10011844:	10006315 	stw	zero,396(r2)
10011848:	883fde26 	beq	r17,zero,100117c4 <__alt_data_end+0xf80117c4>
1001184c:	18c9883a 	add	r4,r3,r3
10011850:	2109883a 	add	r4,r4,r4
10011854:	1109883a 	add	r4,r2,r4
10011858:	21802215 	stw	r6,136(r4)
1001185c:	01800044 	movi	r6,1
10011860:	12406217 	ldw	r9,392(r2)
10011864:	30cc983a 	sll	r6,r6,r3
10011868:	4992b03a 	or	r9,r9,r6
1001186c:	12406215 	stw	r9,392(r2)
10011870:	21c04215 	stw	r7,264(r4)
10011874:	01000084 	movi	r4,2
10011878:	893fd21e 	bne	r17,r4,100117c4 <__alt_data_end+0xf80117c4>
1001187c:	11006317 	ldw	r4,396(r2)
10011880:	218cb03a 	or	r6,r4,r6
10011884:	11806315 	stw	r6,396(r2)
10011888:	003fce06 	br	100117c4 <__alt_data_end+0xf80117c4>
1001188c:	18805304 	addi	r2,r3,332
10011890:	18805215 	stw	r2,328(r3)
10011894:	003fc606 	br	100117b0 <__alt_data_end+0xf80117b0>
10011898:	00bfffc4 	movi	r2,-1
1001189c:	003fd006 	br	100117e0 <__alt_data_end+0xf80117e0>

100118a0 <__call_exitprocs>:
100118a0:	defff504 	addi	sp,sp,-44
100118a4:	df000915 	stw	fp,36(sp)
100118a8:	dd400615 	stw	r21,24(sp)
100118ac:	dc800315 	stw	r18,12(sp)
100118b0:	dfc00a15 	stw	ra,40(sp)
100118b4:	ddc00815 	stw	r23,32(sp)
100118b8:	dd800715 	stw	r22,28(sp)
100118bc:	dd000515 	stw	r20,20(sp)
100118c0:	dcc00415 	stw	r19,16(sp)
100118c4:	dc400215 	stw	r17,8(sp)
100118c8:	dc000115 	stw	r16,4(sp)
100118cc:	d9000015 	stw	r4,0(sp)
100118d0:	2839883a 	mov	fp,r5
100118d4:	04800044 	movi	r18,1
100118d8:	057fffc4 	movi	r21,-1
100118dc:	00840074 	movhi	r2,4097
100118e0:	108fe904 	addi	r2,r2,16292
100118e4:	12000017 	ldw	r8,0(r2)
100118e8:	45005217 	ldw	r20,328(r8)
100118ec:	44c05204 	addi	r19,r8,328
100118f0:	a0001c26 	beq	r20,zero,10011964 <__call_exitprocs+0xc4>
100118f4:	a0800117 	ldw	r2,4(r20)
100118f8:	15ffffc4 	addi	r23,r2,-1
100118fc:	b8000d16 	blt	r23,zero,10011934 <__call_exitprocs+0x94>
10011900:	14000044 	addi	r16,r2,1
10011904:	8421883a 	add	r16,r16,r16
10011908:	8421883a 	add	r16,r16,r16
1001190c:	84402004 	addi	r17,r16,128
10011910:	a463883a 	add	r17,r20,r17
10011914:	a421883a 	add	r16,r20,r16
10011918:	e0001e26 	beq	fp,zero,10011994 <__call_exitprocs+0xf4>
1001191c:	80804017 	ldw	r2,256(r16)
10011920:	e0801c26 	beq	fp,r2,10011994 <__call_exitprocs+0xf4>
10011924:	bdffffc4 	addi	r23,r23,-1
10011928:	843fff04 	addi	r16,r16,-4
1001192c:	8c7fff04 	addi	r17,r17,-4
10011930:	bd7ff91e 	bne	r23,r21,10011918 <__alt_data_end+0xf8011918>
10011934:	00800034 	movhi	r2,0
10011938:	10800004 	addi	r2,r2,0
1001193c:	10000926 	beq	r2,zero,10011964 <__call_exitprocs+0xc4>
10011940:	a0800117 	ldw	r2,4(r20)
10011944:	1000301e 	bne	r2,zero,10011a08 <__call_exitprocs+0x168>
10011948:	a0800017 	ldw	r2,0(r20)
1001194c:	10003226 	beq	r2,zero,10011a18 <__call_exitprocs+0x178>
10011950:	a009883a 	mov	r4,r20
10011954:	98800015 	stw	r2,0(r19)
10011958:	00000000 	call	10000000 <__alt_mem_sdram>
1001195c:	9d000017 	ldw	r20,0(r19)
10011960:	a03fe41e 	bne	r20,zero,100118f4 <__alt_data_end+0xf80118f4>
10011964:	dfc00a17 	ldw	ra,40(sp)
10011968:	df000917 	ldw	fp,36(sp)
1001196c:	ddc00817 	ldw	r23,32(sp)
10011970:	dd800717 	ldw	r22,28(sp)
10011974:	dd400617 	ldw	r21,24(sp)
10011978:	dd000517 	ldw	r20,20(sp)
1001197c:	dcc00417 	ldw	r19,16(sp)
10011980:	dc800317 	ldw	r18,12(sp)
10011984:	dc400217 	ldw	r17,8(sp)
10011988:	dc000117 	ldw	r16,4(sp)
1001198c:	dec00b04 	addi	sp,sp,44
10011990:	f800283a 	ret
10011994:	a0800117 	ldw	r2,4(r20)
10011998:	80c00017 	ldw	r3,0(r16)
1001199c:	10bfffc4 	addi	r2,r2,-1
100119a0:	15c01426 	beq	r2,r23,100119f4 <__call_exitprocs+0x154>
100119a4:	80000015 	stw	zero,0(r16)
100119a8:	183fde26 	beq	r3,zero,10011924 <__alt_data_end+0xf8011924>
100119ac:	95c8983a 	sll	r4,r18,r23
100119b0:	a0806217 	ldw	r2,392(r20)
100119b4:	a5800117 	ldw	r22,4(r20)
100119b8:	2084703a 	and	r2,r4,r2
100119bc:	10000b26 	beq	r2,zero,100119ec <__call_exitprocs+0x14c>
100119c0:	a0806317 	ldw	r2,396(r20)
100119c4:	2088703a 	and	r4,r4,r2
100119c8:	20000c1e 	bne	r4,zero,100119fc <__call_exitprocs+0x15c>
100119cc:	89400017 	ldw	r5,0(r17)
100119d0:	d9000017 	ldw	r4,0(sp)
100119d4:	183ee83a 	callr	r3
100119d8:	a0800117 	ldw	r2,4(r20)
100119dc:	15bfbf1e 	bne	r2,r22,100118dc <__alt_data_end+0xf80118dc>
100119e0:	98800017 	ldw	r2,0(r19)
100119e4:	153fcf26 	beq	r2,r20,10011924 <__alt_data_end+0xf8011924>
100119e8:	003fbc06 	br	100118dc <__alt_data_end+0xf80118dc>
100119ec:	183ee83a 	callr	r3
100119f0:	003ff906 	br	100119d8 <__alt_data_end+0xf80119d8>
100119f4:	a5c00115 	stw	r23,4(r20)
100119f8:	003feb06 	br	100119a8 <__alt_data_end+0xf80119a8>
100119fc:	89000017 	ldw	r4,0(r17)
10011a00:	183ee83a 	callr	r3
10011a04:	003ff406 	br	100119d8 <__alt_data_end+0xf80119d8>
10011a08:	a0800017 	ldw	r2,0(r20)
10011a0c:	a027883a 	mov	r19,r20
10011a10:	1029883a 	mov	r20,r2
10011a14:	003fb606 	br	100118f0 <__alt_data_end+0xf80118f0>
10011a18:	0005883a 	mov	r2,zero
10011a1c:	003ffb06 	br	10011a0c <__alt_data_end+0xf8011a0c>

10011a20 <_exit>:
 *
 * ALT_EXIT is mapped onto the _exit() system call in alt_syscall.h
 */

void ALT_EXIT (int exit_code)
{
10011a20:	defffd04 	addi	sp,sp,-12
10011a24:	df000215 	stw	fp,8(sp)
10011a28:	df000204 	addi	fp,sp,8
10011a2c:	e13fff15 	stw	r4,-4(fp)
  ALT_LOG_PRINT_BOOT("[alt_exit.c] Entering _exit() function.\r\n");
  ALT_LOG_PRINT_BOOT("[alt_exit.c] Exit code from main was %d.\r\n",exit_code);
  /* Stop all other threads */

  ALT_LOG_PRINT_BOOT("[alt_exit.c] Calling ALT_OS_STOP().\r\n");
  ALT_OS_STOP();
10011a30:	0001883a 	nop
10011a34:	e0bfff17 	ldw	r2,-4(fp)
10011a38:	e0bffe15 	stw	r2,-8(fp)
/*
 * Routine called on exit.
 */
static ALT_INLINE ALT_ALWAYS_INLINE void alt_sim_halt(int exit_code)
{
  register int r2 asm ("r2") = exit_code;
10011a3c:	e0bffe17 	ldw	r2,-8(fp)
  __asm__ volatile ("\n0:\n\taddi %0,%0, -1\n\tbgt %0,zero,0b" : : "r" (ALT_CPU_FREQ/100) ); /* Delay for >30ms */

  __asm__ volatile ("break 2" : : "r"(r2), "r"(r3) ALT_GMON_DATA );

#else /* !DEBUG_STUB */
  if (r2) {
10011a40:	10000226 	beq	r2,zero,10011a4c <_exit+0x2c>
    ALT_SIM_FAIL();
10011a44:	002af070 	cmpltui	zero,zero,43969
10011a48:	00000106 	br	10011a50 <_exit+0x30>
  } else {
    ALT_SIM_PASS();
10011a4c:	002af0b0 	cmpltui	zero,zero,43970
  ALT_SIM_HALT(exit_code);

  /* spin forever, since there's no where to go back to */

  ALT_LOG_PRINT_BOOT("[alt_exit.c] Spinning forever.\r\n");
  while (1);
10011a50:	003fff06 	br	10011a50 <__alt_data_end+0xf8011a50>
